EXPORTS 
	?$TSS0@?1???$get_static_exception_object@Ubad_alloc_@exception_detail@boost@@@exception_detail@boost@@YA?AVexception_ptr@2@XZ@4HA 	 DATA
	?$TSS0@?1???$get_static_exception_object@Ubad_exception_@exception_detail@boost@@@exception_detail@boost@@YA?AVexception_ptr@2@XZ@4HA 	 DATA
	?$TSS0@?1??get_instance@?$singleton@V?$archive_serializer_map@Vbinary_oarchive@archive@boost@@@detail@archive@boost@@@serialization@boost@@CAAEAV?$archive_serializer_map@Vbinary_oarchive@archive@boost@@@detail@archive@4@XZ@4HA 	 DATA
	?$TSS0@?1??get_instance@?$singleton@V?$extended_type_info_typeid@U?$pair@$$CBHPEAVObject@karto@@@std@@@serialization@boost@@@serialization@boost@@CAAEAV?$extended_type_info_typeid@U?$pair@$$CBHPEAVObject@karto@@@std@@@34@XZ@4HA 	 DATA
	?$TSS0@?1??get_instance@?$singleton@V?$extended_type_info_typeid@U?$pair@$$CBV?$basic_string@DU?$char_traits@D@std@@V?$allocator@D@2@@std@@PEAVAbstractParameter@karto@@@std@@@serialization@boost@@@serialization@boost@@CAAEAV?$extended_type_info_typeid@U?$pair@$$CBV?$basic_string@DU?$char_traits@D@std@@V?$allocator@D@2@@std@@PEAVAbstractParameter@karto@@@std@@@34@XZ@4HA 	 DATA
	?$TSS0@?1??get_instance@?$singleton@V?$extended_type_info_typeid@U?$pair@$$CBVName@karto@@PEAVSensor@2@@std@@@serialization@boost@@@serialization@boost@@CAAEAV?$extended_type_info_typeid@U?$pair@$$CBVName@karto@@PEAVSensor@2@@std@@@34@XZ@4HA 	 DATA
	?$TSS0@?1??get_instance@?$singleton@V?$extended_type_info_typeid@V?$Parameter@V?$basic_string@DU?$char_traits@D@std@@V?$allocator@D@2@@std@@@karto@@@serialization@boost@@@serialization@boost@@CAAEAV?$extended_type_info_typeid@V?$Parameter@V?$basic_string@DU?$char_traits@D@std@@V?$allocator@D@2@@std@@@karto@@@34@XZ@4HA 	 DATA
	?$TSS0@?1??get_instance@?$singleton@V?$extended_type_info_typeid@V?$map@HPEAVObject@karto@@U?$less@H@std@@V?$allocator@U?$pair@$$CBHPEAVObject@karto@@@std@@@4@@std@@@serialization@boost@@@serialization@boost@@CAAEAV?$extended_type_info_typeid@V?$map@HPEAVObject@karto@@U?$less@H@std@@V?$allocator@U?$pair@$$CBHPEAVObject@karto@@@std@@@4@@std@@@34@XZ@4HA 	 DATA
	?$TSS0@?1??get_instance@?$singleton@V?$extended_type_info_typeid@V?$map@V?$basic_string@DU?$char_traits@D@std@@V?$allocator@D@2@@std@@PEAVAbstractParameter@karto@@U?$less@V?$basic_string@DU?$char_traits@D@std@@V?$allocator@D@2@@std@@@2@V?$allocator@U?$pair@$$CBV?$basic_string@DU?$char_traits@D@std@@V?$allocator@D@2@@std@@PEAVAbstractParameter@karto@@@std@@@2@@std@@@serialization@boost@@@serialization@boost@@CAAEAV?$extended_type_info_typeid@V?$map@V?$basic_string@DU?$char_traits@D@std@@V?$allocator@D@2@@std@@PEAVAbstractParameter@karto@@U?$less@V?$basic_string@DU?$char_traits@D@std@@V?$allocator@D@2@@std@@@2@V?$allocator@U?$pair@$$CBV?$basic_string@DU?$char_traits@D@std@@V?$allocator@D@2@@std@@PEAVAbstractParameter@karto@@@std@@@2@@std@@@34@XZ@4HA 	 DATA
	?$TSS0@?1??get_instance@?$singleton@V?$extended_type_info_typeid@V?$map@VName@karto@@PEAVSensor@2@U?$less@VName@karto@@@std@@V?$allocator@U?$pair@$$CBVName@karto@@PEAVSensor@2@@std@@@5@@std@@@serialization@boost@@@serialization@boost@@CAAEAV?$extended_type_info_typeid@V?$map@VName@karto@@PEAVSensor@2@U?$less@VName@karto@@@std@@V?$allocator@U?$pair@$$CBVName@karto@@PEAVSensor@2@@std@@@5@@std@@@34@XZ@4HA 	 DATA
	?$TSS0@?1??get_instance@?$singleton@V?$extended_type_info_typeid@V?$vector@PEAVAbstractParameter@karto@@V?$allocator@PEAVAbstractParameter@karto@@@std@@@std@@@serialization@boost@@@serialization@boost@@CAAEAV?$extended_type_info_typeid@V?$vector@PEAVAbstractParameter@karto@@V?$allocator@PEAVAbstractParameter@karto@@@std@@@std@@@34@XZ@4HA 	 DATA
	?$TSS0@?1??get_instance@?$singleton@V?$extended_type_info_typeid@V?$vector@PEAVObject@karto@@V?$allocator@PEAVObject@karto@@@std@@@std@@@serialization@boost@@@serialization@boost@@CAAEAV?$extended_type_info_typeid@V?$vector@PEAVObject@karto@@V?$allocator@PEAVObject@karto@@@std@@@std@@@34@XZ@4HA 	 DATA
	?$TSS0@?1??get_instance@?$singleton@V?$extended_type_info_typeid@VAbstractParameter@karto@@@serialization@boost@@@serialization@boost@@CAAEAV?$extended_type_info_typeid@VAbstractParameter@karto@@@34@XZ@4HA 	 DATA
	?$TSS0@?1??get_instance@?$singleton@V?$extended_type_info_typeid@VDataset@karto@@@serialization@boost@@@serialization@boost@@CAAEAV?$extended_type_info_typeid@VDataset@karto@@@34@XZ@4HA 	 DATA
	?$TSS0@?1??get_instance@?$singleton@V?$extended_type_info_typeid@VDatasetInfo@karto@@@serialization@boost@@@serialization@boost@@CAAEAV?$extended_type_info_typeid@VDatasetInfo@karto@@@34@XZ@4HA 	 DATA
	?$TSS0@?1??get_instance@?$singleton@V?$extended_type_info_typeid@VName@karto@@@serialization@boost@@@serialization@boost@@CAAEAV?$extended_type_info_typeid@VName@karto@@@34@XZ@4HA 	 DATA
	?$TSS0@?1??get_instance@?$singleton@V?$extended_type_info_typeid@VNonCopyable@karto@@@serialization@boost@@@serialization@boost@@CAAEAV?$extended_type_info_typeid@VNonCopyable@karto@@@34@XZ@4HA 	 DATA
	?$TSS0@?1??get_instance@?$singleton@V?$extended_type_info_typeid@VObject@karto@@@serialization@boost@@@serialization@boost@@CAAEAV?$extended_type_info_typeid@VObject@karto@@@34@XZ@4HA 	 DATA
	?$TSS0@?1??get_instance@?$singleton@V?$extended_type_info_typeid@VParameterManager@karto@@@serialization@boost@@@serialization@boost@@CAAEAV?$extended_type_info_typeid@VParameterManager@karto@@@34@XZ@4HA 	 DATA
	?$TSS0@?1??get_instance@?$singleton@V?$extended_type_info_typeid@VSensor@karto@@@serialization@boost@@@serialization@boost@@CAAEAV?$extended_type_info_typeid@VSensor@karto@@@34@XZ@4HA 	 DATA
	?$TSS0@?1??get_instance@?$singleton@V?$iserializer@Vbinary_iarchive@archive@boost@@U?$pair@$$CBHPEAVObject@karto@@@std@@@detail@archive@boost@@@serialization@boost@@CAAEAV?$iserializer@Vbinary_iarchive@archive@boost@@U?$pair@$$CBHPEAVObject@karto@@@std@@@detail@archive@4@XZ@4HA 	 DATA
	?$TSS0@?1??get_instance@?$singleton@V?$iserializer@Vbinary_iarchive@archive@boost@@U?$pair@$$CBV?$basic_string@DU?$char_traits@D@std@@V?$allocator@D@2@@std@@PEAVAbstractParameter@karto@@@std@@@detail@archive@boost@@@serialization@boost@@CAAEAV?$iserializer@Vbinary_iarchive@archive@boost@@U?$pair@$$CBV?$basic_string@DU?$char_traits@D@std@@V?$allocator@D@2@@std@@PEAVAbstractParameter@karto@@@std@@@detail@archive@4@XZ@4HA 	 DATA
	?$TSS0@?1??get_instance@?$singleton@V?$iserializer@Vbinary_iarchive@archive@boost@@U?$pair@$$CBVName@karto@@PEAVSensor@2@@std@@@detail@archive@boost@@@serialization@boost@@CAAEAV?$iserializer@Vbinary_iarchive@archive@boost@@U?$pair@$$CBVName@karto@@PEAVSensor@2@@std@@@detail@archive@4@XZ@4HA 	 DATA
	?$TSS0@?1??get_instance@?$singleton@V?$iserializer@Vbinary_iarchive@archive@boost@@V?$Parameter@V?$basic_string@DU?$char_traits@D@std@@V?$allocator@D@2@@std@@@karto@@@detail@archive@boost@@@serialization@boost@@CAAEAV?$iserializer@Vbinary_iarchive@archive@boost@@V?$Parameter@V?$basic_string@DU?$char_traits@D@std@@V?$allocator@D@2@@std@@@karto@@@detail@archive@4@XZ@4HA 	 DATA
	?$TSS0@?1??get_instance@?$singleton@V?$iserializer@Vbinary_iarchive@archive@boost@@V?$map@HPEAVObject@karto@@U?$less@H@std@@V?$allocator@U?$pair@$$CBHPEAVObject@karto@@@std@@@4@@std@@@detail@archive@boost@@@serialization@boost@@CAAEAV?$iserializer@Vbinary_iarchive@archive@boost@@V?$map@HPEAVObject@karto@@U?$less@H@std@@V?$allocator@U?$pair@$$CBHPEAVObject@karto@@@std@@@4@@std@@@detail@archive@4@XZ@4HA 	 DATA
	?$TSS0@?1??get_instance@?$singleton@V?$iserializer@Vbinary_iarchive@archive@boost@@V?$map@V?$basic_string@DU?$char_traits@D@std@@V?$allocator@D@2@@std@@PEAVAbstractParameter@karto@@U?$less@V?$basic_string@DU?$char_traits@D@std@@V?$allocator@D@2@@std@@@2@V?$allocator@U?$pair@$$CBV?$basic_string@DU?$char_traits@D@std@@V?$allocator@D@2@@std@@PEAVAbstractParameter@karto@@@std@@@2@@std@@@detail@archive@boost@@@serialization@boost@@CAAEAV?$iserializer@Vbinary_iarchive@archive@boost@@V?$map@V?$basic_string@DU?$char_traits@D@std@@V?$allocator@D@2@@std@@PEAVAbstractParameter@karto@@U?$less@V?$basic_string@DU?$char_traits@D@std@@V?$allocator@D@2@@std@@@2@V?$allocator@U?$pair@$$CBV?$basic_string@DU?$char_traits@D@std@@V?$allocator@D@2@@std@@PEAVAbstractParameter@karto@@@std@@@2@@std@@@detail@archive@4@XZ@4HA 	 DATA
	?$TSS0@?1??get_instance@?$singleton@V?$iserializer@Vbinary_iarchive@archive@boost@@V?$map@VName@karto@@PEAVSensor@2@U?$less@VName@karto@@@std@@V?$allocator@U?$pair@$$CBVName@karto@@PEAVSensor@2@@std@@@5@@std@@@detail@archive@boost@@@serialization@boost@@CAAEAV?$iserializer@Vbinary_iarchive@archive@boost@@V?$map@VName@karto@@PEAVSensor@2@U?$less@VName@karto@@@std@@V?$allocator@U?$pair@$$CBVName@karto@@PEAVSensor@2@@std@@@5@@std@@@detail@archive@4@XZ@4HA 	 DATA
	?$TSS0@?1??get_instance@?$singleton@V?$iserializer@Vbinary_iarchive@archive@boost@@V?$vector@PEAVAbstractParameter@karto@@V?$allocator@PEAVAbstractParameter@karto@@@std@@@std@@@detail@archive@boost@@@serialization@boost@@CAAEAV?$iserializer@Vbinary_iarchive@archive@boost@@V?$vector@PEAVAbstractParameter@karto@@V?$allocator@PEAVAbstractParameter@karto@@@std@@@std@@@detail@archive@4@XZ@4HA 	 DATA
	?$TSS0@?1??get_instance@?$singleton@V?$iserializer@Vbinary_iarchive@archive@boost@@V?$vector@PEAVObject@karto@@V?$allocator@PEAVObject@karto@@@std@@@std@@@detail@archive@boost@@@serialization@boost@@CAAEAV?$iserializer@Vbinary_iarchive@archive@boost@@V?$vector@PEAVObject@karto@@V?$allocator@PEAVObject@karto@@@std@@@std@@@detail@archive@4@XZ@4HA 	 DATA
	?$TSS0@?1??get_instance@?$singleton@V?$iserializer@Vbinary_iarchive@archive@boost@@VAbstractParameter@karto@@@detail@archive@boost@@@serialization@boost@@CAAEAV?$iserializer@Vbinary_iarchive@archive@boost@@VAbstractParameter@karto@@@detail@archive@4@XZ@4HA 	 DATA
	?$TSS0@?1??get_instance@?$singleton@V?$iserializer@Vbinary_iarchive@archive@boost@@VDataset@karto@@@detail@archive@boost@@@serialization@boost@@CAAEAV?$iserializer@Vbinary_iarchive@archive@boost@@VDataset@karto@@@detail@archive@4@XZ@4HA 	 DATA
	?$TSS0@?1??get_instance@?$singleton@V?$iserializer@Vbinary_iarchive@archive@boost@@VDatasetInfo@karto@@@detail@archive@boost@@@serialization@boost@@CAAEAV?$iserializer@Vbinary_iarchive@archive@boost@@VDatasetInfo@karto@@@detail@archive@4@XZ@4HA 	 DATA
	?$TSS0@?1??get_instance@?$singleton@V?$iserializer@Vbinary_iarchive@archive@boost@@VName@karto@@@detail@archive@boost@@@serialization@boost@@CAAEAV?$iserializer@Vbinary_iarchive@archive@boost@@VName@karto@@@detail@archive@4@XZ@4HA 	 DATA
	?$TSS0@?1??get_instance@?$singleton@V?$iserializer@Vbinary_iarchive@archive@boost@@VNonCopyable@karto@@@detail@archive@boost@@@serialization@boost@@CAAEAV?$iserializer@Vbinary_iarchive@archive@boost@@VNonCopyable@karto@@@detail@archive@4@XZ@4HA 	 DATA
	?$TSS0@?1??get_instance@?$singleton@V?$iserializer@Vbinary_iarchive@archive@boost@@VObject@karto@@@detail@archive@boost@@@serialization@boost@@CAAEAV?$iserializer@Vbinary_iarchive@archive@boost@@VObject@karto@@@detail@archive@4@XZ@4HA 	 DATA
	?$TSS0@?1??get_instance@?$singleton@V?$iserializer@Vbinary_iarchive@archive@boost@@VParameterManager@karto@@@detail@archive@boost@@@serialization@boost@@CAAEAV?$iserializer@Vbinary_iarchive@archive@boost@@VParameterManager@karto@@@detail@archive@4@XZ@4HA 	 DATA
	?$TSS0@?1??get_instance@?$singleton@V?$oserializer@Vbinary_oarchive@archive@boost@@U?$pair@$$CBHPEAVObject@karto@@@std@@@detail@archive@boost@@@serialization@boost@@CAAEAV?$oserializer@Vbinary_oarchive@archive@boost@@U?$pair@$$CBHPEAVObject@karto@@@std@@@detail@archive@4@XZ@4HA 	 DATA
	?$TSS0@?1??get_instance@?$singleton@V?$oserializer@Vbinary_oarchive@archive@boost@@U?$pair@$$CBV?$basic_string@DU?$char_traits@D@std@@V?$allocator@D@2@@std@@PEAVAbstractParameter@karto@@@std@@@detail@archive@boost@@@serialization@boost@@CAAEAV?$oserializer@Vbinary_oarchive@archive@boost@@U?$pair@$$CBV?$basic_string@DU?$char_traits@D@std@@V?$allocator@D@2@@std@@PEAVAbstractParameter@karto@@@std@@@detail@archive@4@XZ@4HA 	 DATA
	?$TSS0@?1??get_instance@?$singleton@V?$oserializer@Vbinary_oarchive@archive@boost@@U?$pair@$$CBVName@karto@@PEAVSensor@2@@std@@@detail@archive@boost@@@serialization@boost@@CAAEAV?$oserializer@Vbinary_oarchive@archive@boost@@U?$pair@$$CBVName@karto@@PEAVSensor@2@@std@@@detail@archive@4@XZ@4HA 	 DATA
	?$TSS0@?1??get_instance@?$singleton@V?$oserializer@Vbinary_oarchive@archive@boost@@V?$Parameter@V?$basic_string@DU?$char_traits@D@std@@V?$allocator@D@2@@std@@@karto@@@detail@archive@boost@@@serialization@boost@@CAAEAV?$oserializer@Vbinary_oarchive@archive@boost@@V?$Parameter@V?$basic_string@DU?$char_traits@D@std@@V?$allocator@D@2@@std@@@karto@@@detail@archive@4@XZ@4HA 	 DATA
	?$TSS0@?1??get_instance@?$singleton@V?$oserializer@Vbinary_oarchive@archive@boost@@V?$map@HPEAVObject@karto@@U?$less@H@std@@V?$allocator@U?$pair@$$CBHPEAVObject@karto@@@std@@@4@@std@@@detail@archive@boost@@@serialization@boost@@CAAEAV?$oserializer@Vbinary_oarchive@archive@boost@@V?$map@HPEAVObject@karto@@U?$less@H@std@@V?$allocator@U?$pair@$$CBHPEAVObject@karto@@@std@@@4@@std@@@detail@archive@4@XZ@4HA 	 DATA
	?$TSS0@?1??get_instance@?$singleton@V?$oserializer@Vbinary_oarchive@archive@boost@@V?$map@V?$basic_string@DU?$char_traits@D@std@@V?$allocator@D@2@@std@@PEAVAbstractParameter@karto@@U?$less@V?$basic_string@DU?$char_traits@D@std@@V?$allocator@D@2@@std@@@2@V?$allocator@U?$pair@$$CBV?$basic_string@DU?$char_traits@D@std@@V?$allocator@D@2@@std@@PEAVAbstractParameter@karto@@@std@@@2@@std@@@detail@archive@boost@@@serialization@boost@@CAAEAV?$oserializer@Vbinary_oarchive@archive@boost@@V?$map@V?$basic_string@DU?$char_traits@D@std@@V?$allocator@D@2@@std@@PEAVAbstractParameter@karto@@U?$less@V?$basic_string@DU?$char_traits@D@std@@V?$allocator@D@2@@std@@@2@V?$allocator@U?$pair@$$CBV?$basic_string@DU?$char_traits@D@std@@V?$allocator@D@2@@std@@PEAVAbstractParameter@karto@@@std@@@2@@std@@@detail@archive@4@XZ@4HA 	 DATA
	?$TSS0@?1??get_instance@?$singleton@V?$oserializer@Vbinary_oarchive@archive@boost@@V?$map@VName@karto@@PEAVSensor@2@U?$less@VName@karto@@@std@@V?$allocator@U?$pair@$$CBVName@karto@@PEAVSensor@2@@std@@@5@@std@@@detail@archive@boost@@@serialization@boost@@CAAEAV?$oserializer@Vbinary_oarchive@archive@boost@@V?$map@VName@karto@@PEAVSensor@2@U?$less@VName@karto@@@std@@V?$allocator@U?$pair@$$CBVName@karto@@PEAVSensor@2@@std@@@5@@std@@@detail@archive@4@XZ@4HA 	 DATA
	?$TSS0@?1??get_instance@?$singleton@V?$oserializer@Vbinary_oarchive@archive@boost@@V?$vector@PEAVAbstractParameter@karto@@V?$allocator@PEAVAbstractParameter@karto@@@std@@@std@@@detail@archive@boost@@@serialization@boost@@CAAEAV?$oserializer@Vbinary_oarchive@archive@boost@@V?$vector@PEAVAbstractParameter@karto@@V?$allocator@PEAVAbstractParameter@karto@@@std@@@std@@@detail@archive@4@XZ@4HA 	 DATA
	?$TSS0@?1??get_instance@?$singleton@V?$oserializer@Vbinary_oarchive@archive@boost@@V?$vector@PEAVObject@karto@@V?$allocator@PEAVObject@karto@@@std@@@std@@@detail@archive@boost@@@serialization@boost@@CAAEAV?$oserializer@Vbinary_oarchive@archive@boost@@V?$vector@PEAVObject@karto@@V?$allocator@PEAVObject@karto@@@std@@@std@@@detail@archive@4@XZ@4HA 	 DATA
	?$TSS0@?1??get_instance@?$singleton@V?$oserializer@Vbinary_oarchive@archive@boost@@VAbstractParameter@karto@@@detail@archive@boost@@@serialization@boost@@CAAEAV?$oserializer@Vbinary_oarchive@archive@boost@@VAbstractParameter@karto@@@detail@archive@4@XZ@4HA 	 DATA
	?$TSS0@?1??get_instance@?$singleton@V?$oserializer@Vbinary_oarchive@archive@boost@@VDataset@karto@@@detail@archive@boost@@@serialization@boost@@CAAEAV?$oserializer@Vbinary_oarchive@archive@boost@@VDataset@karto@@@detail@archive@4@XZ@4HA 	 DATA
	?$TSS0@?1??get_instance@?$singleton@V?$oserializer@Vbinary_oarchive@archive@boost@@VDatasetInfo@karto@@@detail@archive@boost@@@serialization@boost@@CAAEAV?$oserializer@Vbinary_oarchive@archive@boost@@VDatasetInfo@karto@@@detail@archive@4@XZ@4HA 	 DATA
	?$TSS0@?1??get_instance@?$singleton@V?$oserializer@Vbinary_oarchive@archive@boost@@VName@karto@@@detail@archive@boost@@@serialization@boost@@CAAEAV?$oserializer@Vbinary_oarchive@archive@boost@@VName@karto@@@detail@archive@4@XZ@4HA 	 DATA
	?$TSS0@?1??get_instance@?$singleton@V?$oserializer@Vbinary_oarchive@archive@boost@@VNonCopyable@karto@@@detail@archive@boost@@@serialization@boost@@CAAEAV?$oserializer@Vbinary_oarchive@archive@boost@@VNonCopyable@karto@@@detail@archive@4@XZ@4HA 	 DATA
	?$TSS0@?1??get_instance@?$singleton@V?$oserializer@Vbinary_oarchive@archive@boost@@VObject@karto@@@detail@archive@boost@@@serialization@boost@@CAAEAV?$oserializer@Vbinary_oarchive@archive@boost@@VObject@karto@@@detail@archive@4@XZ@4HA 	 DATA
	?$TSS0@?1??get_instance@?$singleton@V?$oserializer@Vbinary_oarchive@archive@boost@@VParameterManager@karto@@@detail@archive@boost@@@serialization@boost@@CAAEAV?$oserializer@Vbinary_oarchive@archive@boost@@VParameterManager@karto@@@detail@archive@4@XZ@4HA 	 DATA
	?$TSS0@?1??get_instance@?$singleton@V?$pointer_iserializer@Vbinary_iarchive@archive@boost@@VDatasetInfo@karto@@@detail@archive@boost@@@serialization@boost@@CAAEAV?$pointer_iserializer@Vbinary_iarchive@archive@boost@@VDatasetInfo@karto@@@detail@archive@4@XZ@4HA 	 DATA
	?$TSS0@?1??get_instance@?$singleton@V?$pointer_iserializer@Vbinary_iarchive@archive@boost@@VParameterManager@karto@@@detail@archive@boost@@@serialization@boost@@CAAEAV?$pointer_iserializer@Vbinary_iarchive@archive@boost@@VParameterManager@karto@@@detail@archive@4@XZ@4HA 	 DATA
	?$TSS0@?1??get_instance@?$singleton@V?$pointer_oserializer@Vbinary_oarchive@archive@boost@@VDatasetInfo@karto@@@detail@archive@boost@@@serialization@boost@@CAAEAV?$pointer_oserializer@Vbinary_oarchive@archive@boost@@VDatasetInfo@karto@@@detail@archive@4@XZ@4HA 	 DATA
	?$TSS0@?1??get_instance@?$singleton@V?$pointer_oserializer@Vbinary_oarchive@archive@boost@@VParameterManager@karto@@@detail@archive@boost@@@serialization@boost@@CAAEAV?$pointer_oserializer@Vbinary_oarchive@archive@boost@@VParameterManager@karto@@@detail@archive@4@XZ@4HA 	 DATA
	?$TSS0@?1??get_instance@?$singleton@V?$void_caster_primitive@V?$Parameter@V?$basic_string@DU?$char_traits@D@std@@V?$allocator@D@2@@std@@@karto@@VAbstractParameter@2@@void_cast_detail@serialization@boost@@@serialization@boost@@CAAEAV?$void_caster_primitive@V?$Parameter@V?$basic_string@DU?$char_traits@D@std@@V?$allocator@D@2@@std@@@karto@@VAbstractParameter@2@@void_cast_detail@34@XZ@4HA 	 DATA
	?$TSS0@?1??get_instance@?$singleton@V?$void_caster_primitive@VDatasetInfo@karto@@VObject@2@@void_cast_detail@serialization@boost@@@serialization@boost@@CAAEAV?$void_caster_primitive@VDatasetInfo@karto@@VObject@2@@void_cast_detail@34@XZ@4HA 	 DATA
	?$TSS0@?1??get_instance@?$singleton@V?$void_caster_primitive@VObject@karto@@VNonCopyable@2@@void_cast_detail@serialization@boost@@@serialization@boost@@CAAEAV?$void_caster_primitive@VObject@karto@@VNonCopyable@2@@void_cast_detail@34@XZ@4HA 	 DATA
	?$TSS0@?1??get_instance@?$singleton@V?$void_caster_primitive@VParameterManager@karto@@VNonCopyable@2@@void_cast_detail@serialization@boost@@@serialization@boost@@CAAEAV?$void_caster_primitive@VParameterManager@karto@@VNonCopyable@2@@void_cast_detail@34@XZ@4HA 	 DATA
	??_R0?AU?$pair@$$CBHPEAVObject@karto@@@std@@@8 	 DATA
	??_R0?AU?$pair@$$CBV?$basic_string@DU?$char_traits@D@std@@V?$allocator@D@2@@std@@PEAVAbstractParameter@karto@@@std@@@8 	 DATA
	??_R0?AU?$pair@$$CBVName@karto@@PEAVSensor@2@@std@@@8 	 DATA
	??_R0?AU?$wrapexcept@Vthread_resource_error@boost@@@boost@@@8 	 DATA
	??_R0?AUbad_alloc_@exception_detail@boost@@@8 	 DATA
	??_R0?AUbad_exception_@exception_detail@boost@@@8 	 DATA
	??_R0?AUbase_token@noncopyable_@boost@@@8 	 DATA
	??_R0?AV?$Parameter@V?$basic_string@DU?$char_traits@D@std@@V?$allocator@D@2@@std@@@karto@@@8 	 DATA
	??_R0?AV?$_Iosb@H@std@@@8 	 DATA
	??_R0?AV?$basic_ios@DU?$char_traits@D@std@@@std@@@8 	 DATA
	??_R0?AV?$basic_iostream@DU?$char_traits@D@std@@@std@@@8 	 DATA
	??_R0?AV?$basic_istream@DU?$char_traits@D@std@@@std@@@8 	 DATA
	??_R0?AV?$basic_ostream@DU?$char_traits@D@std@@@std@@@8 	 DATA
	??_R0?AV?$basic_streambuf@DU?$char_traits@D@std@@@std@@@8 	 DATA
	??_R0?AV?$basic_stringbuf@DU?$char_traits@D@std@@V?$allocator@D@2@@std@@@8 	 DATA
	??_R0?AV?$basic_stringstream@DU?$char_traits@D@std@@V?$allocator@D@2@@std@@@8 	 DATA
	??_R0?AV?$clone_impl@Ubad_alloc_@exception_detail@boost@@@exception_detail@boost@@@8 	 DATA
	??_R0?AV?$clone_impl@Ubad_exception_@exception_detail@boost@@@exception_detail@boost@@@8 	 DATA
	??_R0?AV?$enable_shared_from_this@VNode@rclcpp@@@std@@@8 	 DATA
	??_R0?AV?$extended_type_info_typeid@U?$pair@$$CBHPEAVObject@karto@@@std@@@serialization@boost@@@8 	 DATA
	??_R0?AV?$extended_type_info_typeid@U?$pair@$$CBV?$basic_string@DU?$char_traits@D@std@@V?$allocator@D@2@@std@@PEAVAbstractParameter@karto@@@std@@@serialization@boost@@@8 	 DATA
	??_R0?AV?$extended_type_info_typeid@U?$pair@$$CBVName@karto@@PEAVSensor@2@@std@@@serialization@boost@@@8 	 DATA
	??_R0?AV?$extended_type_info_typeid@V?$Parameter@V?$basic_string@DU?$char_traits@D@std@@V?$allocator@D@2@@std@@@karto@@@serialization@boost@@@8 	 DATA
	??_R0?AV?$extended_type_info_typeid@V?$map@HPEAVObject@karto@@U?$less@H@std@@V?$allocator@U?$pair@$$CBHPEAVObject@karto@@@std@@@4@@std@@@serialization@boost@@@8 	 DATA
	??_R0?AV?$extended_type_info_typeid@V?$map@V?$basic_string@DU?$char_traits@D@std@@V?$allocator@D@2@@std@@PEAVAbstractParameter@karto@@U?$less@V?$basic_string@DU?$char_traits@D@std@@V?$allocator@D@2@@std@@@2@V?$allocator@U?$pair@$$CBV?$basic_string@DU?$char_traits@D@std@@V?$allocator@D@2@@std@@PEAVAbstractParameter@karto@@@std@@@2@@std@@@serialization@boost@@@8 	 DATA
	??_R0?AV?$extended_type_info_typeid@V?$map@VName@karto@@PEAVSensor@2@U?$less@VName@karto@@@std@@V?$allocator@U?$pair@$$CBVName@karto@@PEAVSensor@2@@std@@@5@@std@@@serialization@boost@@@8 	 DATA
	??_R0?AV?$extended_type_info_typeid@V?$vector@PEAVAbstractParameter@karto@@V?$allocator@PEAVAbstractParameter@karto@@@std@@@std@@@serialization@boost@@@8 	 DATA
	??_R0?AV?$extended_type_info_typeid@V?$vector@PEAVObject@karto@@V?$allocator@PEAVObject@karto@@@std@@@std@@@serialization@boost@@@8 	 DATA
	??_R0?AV?$extended_type_info_typeid@VAbstractParameter@karto@@@serialization@boost@@@8 	 DATA
	??_R0?AV?$extended_type_info_typeid@VDataset@karto@@@serialization@boost@@@8 	 DATA
	??_R0?AV?$extended_type_info_typeid@VDatasetInfo@karto@@@serialization@boost@@@8 	 DATA
	??_R0?AV?$extended_type_info_typeid@VName@karto@@@serialization@boost@@@8 	 DATA
	??_R0?AV?$extended_type_info_typeid@VNonCopyable@karto@@@serialization@boost@@@8 	 DATA
	??_R0?AV?$extended_type_info_typeid@VObject@karto@@@serialization@boost@@@8 	 DATA
	??_R0?AV?$extended_type_info_typeid@VParameterManager@karto@@@serialization@boost@@@8 	 DATA
	??_R0?AV?$extended_type_info_typeid@VSensor@karto@@@serialization@boost@@@8 	 DATA
	??_R0?AV?$iserializer@Vbinary_iarchive@archive@boost@@U?$pair@$$CBHPEAVObject@karto@@@std@@@detail@archive@boost@@@8 	 DATA
	??_R0?AV?$iserializer@Vbinary_iarchive@archive@boost@@U?$pair@$$CBV?$basic_string@DU?$char_traits@D@std@@V?$allocator@D@2@@std@@PEAVAbstractParameter@karto@@@std@@@detail@archive@boost@@@8 	 DATA
	??_R0?AV?$iserializer@Vbinary_iarchive@archive@boost@@U?$pair@$$CBVName@karto@@PEAVSensor@2@@std@@@detail@archive@boost@@@8 	 DATA
	??_R0?AV?$iserializer@Vbinary_iarchive@archive@boost@@V?$Parameter@V?$basic_string@DU?$char_traits@D@std@@V?$allocator@D@2@@std@@@karto@@@detail@archive@boost@@@8 	 DATA
	??_R0?AV?$iserializer@Vbinary_iarchive@archive@boost@@V?$map@HPEAVObject@karto@@U?$less@H@std@@V?$allocator@U?$pair@$$CBHPEAVObject@karto@@@std@@@4@@std@@@detail@archive@boost@@@8 	 DATA
	??_R0?AV?$iserializer@Vbinary_iarchive@archive@boost@@V?$map@V?$basic_string@DU?$char_traits@D@std@@V?$allocator@D@2@@std@@PEAVAbstractParameter@karto@@U?$less@V?$basic_string@DU?$char_traits@D@std@@V?$allocator@D@2@@std@@@2@V?$allocator@U?$pair@$$CBV?$basic_string@DU?$char_traits@D@std@@V?$allocator@D@2@@std@@PEAVAbstractParameter@karto@@@std@@@2@@std@@@detail@archive@boost@@@8 	 DATA
	??_R0?AV?$iserializer@Vbinary_iarchive@archive@boost@@V?$map@VName@karto@@PEAVSensor@2@U?$less@VName@karto@@@std@@V?$allocator@U?$pair@$$CBVName@karto@@PEAVSensor@2@@std@@@5@@std@@@detail@archive@boost@@@8 	 DATA
	??_R0?AV?$iserializer@Vbinary_iarchive@archive@boost@@V?$vector@PEAVAbstractParameter@karto@@V?$allocator@PEAVAbstractParameter@karto@@@std@@@std@@@detail@archive@boost@@@8 	 DATA
	??_R0?AV?$iserializer@Vbinary_iarchive@archive@boost@@V?$vector@PEAVObject@karto@@V?$allocator@PEAVObject@karto@@@std@@@std@@@detail@archive@boost@@@8 	 DATA
	??_R0?AV?$iserializer@Vbinary_iarchive@archive@boost@@VAbstractParameter@karto@@@detail@archive@boost@@@8 	 DATA
	??_R0?AV?$iserializer@Vbinary_iarchive@archive@boost@@VDataset@karto@@@detail@archive@boost@@@8 	 DATA
	??_R0?AV?$iserializer@Vbinary_iarchive@archive@boost@@VDatasetInfo@karto@@@detail@archive@boost@@@8 	 DATA
	??_R0?AV?$iserializer@Vbinary_iarchive@archive@boost@@VName@karto@@@detail@archive@boost@@@8 	 DATA
	??_R0?AV?$iserializer@Vbinary_iarchive@archive@boost@@VNonCopyable@karto@@@detail@archive@boost@@@8 	 DATA
	??_R0?AV?$iserializer@Vbinary_iarchive@archive@boost@@VObject@karto@@@detail@archive@boost@@@8 	 DATA
	??_R0?AV?$iserializer@Vbinary_iarchive@archive@boost@@VParameterManager@karto@@@detail@archive@boost@@@8 	 DATA
	??_R0?AV?$map@HPEAVObject@karto@@U?$less@H@std@@V?$allocator@U?$pair@$$CBHPEAVObject@karto@@@std@@@4@@std@@@8 	 DATA
	??_R0?AV?$map@V?$basic_string@DU?$char_traits@D@std@@V?$allocator@D@2@@std@@PEAVAbstractParameter@karto@@U?$less@V?$basic_string@DU?$char_traits@D@std@@V?$allocator@D@2@@std@@@2@V?$allocator@U?$pair@$$CBV?$basic_string@DU?$char_traits@D@std@@V?$allocator@D@2@@std@@PEAVAbstractParameter@karto@@@std@@@2@@std@@@8 	 DATA
	??_R0?AV?$map@VName@karto@@PEAVSensor@2@U?$less@VName@karto@@@std@@V?$allocator@U?$pair@$$CBVName@karto@@PEAVSensor@2@@std@@@5@@std@@@8 	 DATA
	??_R0?AV?$oserializer@Vbinary_oarchive@archive@boost@@U?$pair@$$CBHPEAVObject@karto@@@std@@@detail@archive@boost@@@8 	 DATA
	??_R0?AV?$oserializer@Vbinary_oarchive@archive@boost@@U?$pair@$$CBV?$basic_string@DU?$char_traits@D@std@@V?$allocator@D@2@@std@@PEAVAbstractParameter@karto@@@std@@@detail@archive@boost@@@8 	 DATA
	??_R0?AV?$oserializer@Vbinary_oarchive@archive@boost@@U?$pair@$$CBVName@karto@@PEAVSensor@2@@std@@@detail@archive@boost@@@8 	 DATA
	??_R0?AV?$oserializer@Vbinary_oarchive@archive@boost@@V?$Parameter@V?$basic_string@DU?$char_traits@D@std@@V?$allocator@D@2@@std@@@karto@@@detail@archive@boost@@@8 	 DATA
	??_R0?AV?$oserializer@Vbinary_oarchive@archive@boost@@V?$map@HPEAVObject@karto@@U?$less@H@std@@V?$allocator@U?$pair@$$CBHPEAVObject@karto@@@std@@@4@@std@@@detail@archive@boost@@@8 	 DATA
	??_R0?AV?$oserializer@Vbinary_oarchive@archive@boost@@V?$map@V?$basic_string@DU?$char_traits@D@std@@V?$allocator@D@2@@std@@PEAVAbstractParameter@karto@@U?$less@V?$basic_string@DU?$char_traits@D@std@@V?$allocator@D@2@@std@@@2@V?$allocator@U?$pair@$$CBV?$basic_string@DU?$char_traits@D@std@@V?$allocator@D@2@@std@@PEAVAbstractParameter@karto@@@std@@@2@@std@@@detail@archive@boost@@@8 	 DATA
	??_R0?AV?$oserializer@Vbinary_oarchive@archive@boost@@V?$map@VName@karto@@PEAVSensor@2@U?$less@VName@karto@@@std@@V?$allocator@U?$pair@$$CBVName@karto@@PEAVSensor@2@@std@@@5@@std@@@detail@archive@boost@@@8 	 DATA
	??_R0?AV?$oserializer@Vbinary_oarchive@archive@boost@@V?$vector@PEAVAbstractParameter@karto@@V?$allocator@PEAVAbstractParameter@karto@@@std@@@std@@@detail@archive@boost@@@8 	 DATA
	??_R0?AV?$oserializer@Vbinary_oarchive@archive@boost@@V?$vector@PEAVObject@karto@@V?$allocator@PEAVObject@karto@@@std@@@std@@@detail@archive@boost@@@8 	 DATA
	??_R0?AV?$oserializer@Vbinary_oarchive@archive@boost@@VAbstractParameter@karto@@@detail@archive@boost@@@8 	 DATA
	??_R0?AV?$oserializer@Vbinary_oarchive@archive@boost@@VDataset@karto@@@detail@archive@boost@@@8 	 DATA
	??_R0?AV?$oserializer@Vbinary_oarchive@archive@boost@@VDatasetInfo@karto@@@detail@archive@boost@@@8 	 DATA
	??_R0?AV?$oserializer@Vbinary_oarchive@archive@boost@@VName@karto@@@detail@archive@boost@@@8 	 DATA
	??_R0?AV?$oserializer@Vbinary_oarchive@archive@boost@@VNonCopyable@karto@@@detail@archive@boost@@@8 	 DATA
	??_R0?AV?$oserializer@Vbinary_oarchive@archive@boost@@VObject@karto@@@detail@archive@boost@@@8 	 DATA
	??_R0?AV?$oserializer@Vbinary_oarchive@archive@boost@@VParameterManager@karto@@@detail@archive@boost@@@8 	 DATA
	??_R0?AV?$pointer_iserializer@Vbinary_iarchive@archive@boost@@VDatasetInfo@karto@@@detail@archive@boost@@@8 	 DATA
	??_R0?AV?$pointer_iserializer@Vbinary_iarchive@archive@boost@@VParameterManager@karto@@@detail@archive@boost@@@8 	 DATA
	??_R0?AV?$pointer_oserializer@Vbinary_oarchive@archive@boost@@VDatasetInfo@karto@@@detail@archive@boost@@@8 	 DATA
	??_R0?AV?$pointer_oserializer@Vbinary_oarchive@archive@boost@@VParameterManager@karto@@@detail@archive@boost@@@8 	 DATA
	??_R0?AV?$singleton@V?$extended_type_info_typeid@U?$pair@$$CBHPEAVObject@karto@@@std@@@serialization@boost@@@serialization@boost@@@8 	 DATA
	??_R0?AV?$singleton@V?$extended_type_info_typeid@U?$pair@$$CBV?$basic_string@DU?$char_traits@D@std@@V?$allocator@D@2@@std@@PEAVAbstractParameter@karto@@@std@@@serialization@boost@@@serialization@boost@@@8 	 DATA
	??_R0?AV?$singleton@V?$extended_type_info_typeid@U?$pair@$$CBVName@karto@@PEAVSensor@2@@std@@@serialization@boost@@@serialization@boost@@@8 	 DATA
	??_R0?AV?$singleton@V?$extended_type_info_typeid@V?$Parameter@V?$basic_string@DU?$char_traits@D@std@@V?$allocator@D@2@@std@@@karto@@@serialization@boost@@@serialization@boost@@@8 	 DATA
	??_R0?AV?$singleton@V?$extended_type_info_typeid@V?$map@HPEAVObject@karto@@U?$less@H@std@@V?$allocator@U?$pair@$$CBHPEAVObject@karto@@@std@@@4@@std@@@serialization@boost@@@serialization@boost@@@8 	 DATA
	??_R0?AV?$singleton@V?$extended_type_info_typeid@V?$map@V?$basic_string@DU?$char_traits@D@std@@V?$allocator@D@2@@std@@PEAVAbstractParameter@karto@@U?$less@V?$basic_string@DU?$char_traits@D@std@@V?$allocator@D@2@@std@@@2@V?$allocator@U?$pair@$$CBV?$basic_string@DU?$char_traits@D@std@@V?$allocator@D@2@@std@@PEAVAbstractParameter@karto@@@std@@@2@@std@@@serialization@boost@@@serialization@boost@@@8 	 DATA
	??_R0?AV?$singleton@V?$extended_type_info_typeid@V?$map@VName@karto@@PEAVSensor@2@U?$less@VName@karto@@@std@@V?$allocator@U?$pair@$$CBVName@karto@@PEAVSensor@2@@std@@@5@@std@@@serialization@boost@@@serialization@boost@@@8 	 DATA
	??_R0?AV?$singleton@V?$extended_type_info_typeid@V?$vector@PEAVAbstractParameter@karto@@V?$allocator@PEAVAbstractParameter@karto@@@std@@@std@@@serialization@boost@@@serialization@boost@@@8 	 DATA
	??_R0?AV?$singleton@V?$extended_type_info_typeid@V?$vector@PEAVObject@karto@@V?$allocator@PEAVObject@karto@@@std@@@std@@@serialization@boost@@@serialization@boost@@@8 	 DATA
	??_R0?AV?$singleton@V?$extended_type_info_typeid@VAbstractParameter@karto@@@serialization@boost@@@serialization@boost@@@8 	 DATA
	??_R0?AV?$singleton@V?$extended_type_info_typeid@VDataset@karto@@@serialization@boost@@@serialization@boost@@@8 	 DATA
	??_R0?AV?$singleton@V?$extended_type_info_typeid@VDatasetInfo@karto@@@serialization@boost@@@serialization@boost@@@8 	 DATA
	??_R0?AV?$singleton@V?$extended_type_info_typeid@VName@karto@@@serialization@boost@@@serialization@boost@@@8 	 DATA
	??_R0?AV?$singleton@V?$extended_type_info_typeid@VNonCopyable@karto@@@serialization@boost@@@serialization@boost@@@8 	 DATA
	??_R0?AV?$singleton@V?$extended_type_info_typeid@VObject@karto@@@serialization@boost@@@serialization@boost@@@8 	 DATA
	??_R0?AV?$singleton@V?$extended_type_info_typeid@VParameterManager@karto@@@serialization@boost@@@serialization@boost@@@8 	 DATA
	??_R0?AV?$singleton@V?$extended_type_info_typeid@VSensor@karto@@@serialization@boost@@@serialization@boost@@@8 	 DATA
	??_R0?AV?$singleton_wrapper@V?$extended_type_info_typeid@U?$pair@$$CBHPEAVObject@karto@@@std@@@serialization@boost@@@detail@serialization@boost@@@8 	 DATA
	??_R0?AV?$singleton_wrapper@V?$extended_type_info_typeid@U?$pair@$$CBV?$basic_string@DU?$char_traits@D@std@@V?$allocator@D@2@@std@@PEAVAbstractParameter@karto@@@std@@@serialization@boost@@@detail@serialization@boost@@@8 	 DATA
	??_R0?AV?$singleton_wrapper@V?$extended_type_info_typeid@U?$pair@$$CBVName@karto@@PEAVSensor@2@@std@@@serialization@boost@@@detail@serialization@boost@@@8 	 DATA
	??_R0?AV?$singleton_wrapper@V?$extended_type_info_typeid@V?$Parameter@V?$basic_string@DU?$char_traits@D@std@@V?$allocator@D@2@@std@@@karto@@@serialization@boost@@@detail@serialization@boost@@@8 	 DATA
	??_R0?AV?$singleton_wrapper@V?$extended_type_info_typeid@V?$map@HPEAVObject@karto@@U?$less@H@std@@V?$allocator@U?$pair@$$CBHPEAVObject@karto@@@std@@@4@@std@@@serialization@boost@@@detail@serialization@boost@@@8 	 DATA
	??_R0?AV?$singleton_wrapper@V?$extended_type_info_typeid@V?$map@V?$basic_string@DU?$char_traits@D@std@@V?$allocator@D@2@@std@@PEAVAbstractParameter@karto@@U?$less@V?$basic_string@DU?$char_traits@D@std@@V?$allocator@D@2@@std@@@2@V?$allocator@U?$pair@$$CBV?$basic_string@DU?$char_traits@D@std@@V?$allocator@D@2@@std@@PEAVAbstractParameter@karto@@@std@@@2@@std@@@serialization@boost@@@detail@serialization@boost@@@8 	 DATA
	??_R0?AV?$singleton_wrapper@V?$extended_type_info_typeid@V?$map@VName@karto@@PEAVSensor@2@U?$less@VName@karto@@@std@@V?$allocator@U?$pair@$$CBVName@karto@@PEAVSensor@2@@std@@@5@@std@@@serialization@boost@@@detail@serialization@boost@@@8 	 DATA
	??_R0?AV?$singleton_wrapper@V?$extended_type_info_typeid@V?$vector@PEAVAbstractParameter@karto@@V?$allocator@PEAVAbstractParameter@karto@@@std@@@std@@@serialization@boost@@@detail@serialization@boost@@@8 	 DATA
	??_R0?AV?$singleton_wrapper@V?$extended_type_info_typeid@V?$vector@PEAVObject@karto@@V?$allocator@PEAVObject@karto@@@std@@@std@@@serialization@boost@@@detail@serialization@boost@@@8 	 DATA
	??_R0?AV?$singleton_wrapper@V?$extended_type_info_typeid@VAbstractParameter@karto@@@serialization@boost@@@detail@serialization@boost@@@8 	 DATA
	??_R0?AV?$singleton_wrapper@V?$extended_type_info_typeid@VDataset@karto@@@serialization@boost@@@detail@serialization@boost@@@8 	 DATA
	??_R0?AV?$singleton_wrapper@V?$extended_type_info_typeid@VDatasetInfo@karto@@@serialization@boost@@@detail@serialization@boost@@@8 	 DATA
	??_R0?AV?$singleton_wrapper@V?$extended_type_info_typeid@VName@karto@@@serialization@boost@@@detail@serialization@boost@@@8 	 DATA
	??_R0?AV?$singleton_wrapper@V?$extended_type_info_typeid@VNonCopyable@karto@@@serialization@boost@@@detail@serialization@boost@@@8 	 DATA
	??_R0?AV?$singleton_wrapper@V?$extended_type_info_typeid@VObject@karto@@@serialization@boost@@@detail@serialization@boost@@@8 	 DATA
	??_R0?AV?$singleton_wrapper@V?$extended_type_info_typeid@VParameterManager@karto@@@serialization@boost@@@detail@serialization@boost@@@8 	 DATA
	??_R0?AV?$singleton_wrapper@V?$extended_type_info_typeid@VSensor@karto@@@serialization@boost@@@detail@serialization@boost@@@8 	 DATA
	??_R0?AV?$singleton_wrapper@V?$iserializer@Vbinary_iarchive@archive@boost@@U?$pair@$$CBHPEAVObject@karto@@@std@@@detail@archive@boost@@@detail@serialization@boost@@@8 	 DATA
	??_R0?AV?$singleton_wrapper@V?$iserializer@Vbinary_iarchive@archive@boost@@U?$pair@$$CBV?$basic_string@DU?$char_traits@D@std@@V?$allocator@D@2@@std@@PEAVAbstractParameter@karto@@@std@@@detail@archive@boost@@@detail@serialization@boost@@@8 	 DATA
	??_R0?AV?$singleton_wrapper@V?$iserializer@Vbinary_iarchive@archive@boost@@U?$pair@$$CBVName@karto@@PEAVSensor@2@@std@@@detail@archive@boost@@@detail@serialization@boost@@@8 	 DATA
	??_R0?AV?$singleton_wrapper@V?$iserializer@Vbinary_iarchive@archive@boost@@V?$Parameter@V?$basic_string@DU?$char_traits@D@std@@V?$allocator@D@2@@std@@@karto@@@detail@archive@boost@@@detail@serialization@boost@@@8 	 DATA
	??_R0?AV?$singleton_wrapper@V?$iserializer@Vbinary_iarchive@archive@boost@@V?$map@HPEAVObject@karto@@U?$less@H@std@@V?$allocator@U?$pair@$$CBHPEAVObject@karto@@@std@@@4@@std@@@detail@archive@boost@@@detail@serialization@boost@@@8 	 DATA
	??_R0?AV?$singleton_wrapper@V?$iserializer@Vbinary_iarchive@archive@boost@@V?$map@V?$basic_string@DU?$char_traits@D@std@@V?$allocator@D@2@@std@@PEAVAbstractParameter@karto@@U?$less@V?$basic_string@DU?$char_traits@D@std@@V?$allocator@D@2@@std@@@2@V?$allocator@U?$pair@$$CBV?$basic_string@DU?$char_traits@D@std@@V?$allocator@D@2@@std@@PEAVAbstractParameter@karto@@@std@@@2@@std@@@detail@archive@boost@@@detail@serialization@boost@@@8 	 DATA
	??_R0?AV?$singleton_wrapper@V?$iserializer@Vbinary_iarchive@archive@boost@@V?$map@VName@karto@@PEAVSensor@2@U?$less@VName@karto@@@std@@V?$allocator@U?$pair@$$CBVName@karto@@PEAVSensor@2@@std@@@5@@std@@@detail@archive@boost@@@detail@serialization@boost@@@8 	 DATA
	??_R0?AV?$singleton_wrapper@V?$iserializer@Vbinary_iarchive@archive@boost@@V?$vector@PEAVAbstractParameter@karto@@V?$allocator@PEAVAbstractParameter@karto@@@std@@@std@@@detail@archive@boost@@@detail@serialization@boost@@@8 	 DATA
	??_R0?AV?$singleton_wrapper@V?$iserializer@Vbinary_iarchive@archive@boost@@V?$vector@PEAVObject@karto@@V?$allocator@PEAVObject@karto@@@std@@@std@@@detail@archive@boost@@@detail@serialization@boost@@@8 	 DATA
	??_R0?AV?$singleton_wrapper@V?$iserializer@Vbinary_iarchive@archive@boost@@VAbstractParameter@karto@@@detail@archive@boost@@@detail@serialization@boost@@@8 	 DATA
	??_R0?AV?$singleton_wrapper@V?$iserializer@Vbinary_iarchive@archive@boost@@VDataset@karto@@@detail@archive@boost@@@detail@serialization@boost@@@8 	 DATA
	??_R0?AV?$singleton_wrapper@V?$iserializer@Vbinary_iarchive@archive@boost@@VDatasetInfo@karto@@@detail@archive@boost@@@detail@serialization@boost@@@8 	 DATA
	??_R0?AV?$singleton_wrapper@V?$iserializer@Vbinary_iarchive@archive@boost@@VName@karto@@@detail@archive@boost@@@detail@serialization@boost@@@8 	 DATA
	??_R0?AV?$singleton_wrapper@V?$iserializer@Vbinary_iarchive@archive@boost@@VNonCopyable@karto@@@detail@archive@boost@@@detail@serialization@boost@@@8 	 DATA
	??_R0?AV?$singleton_wrapper@V?$iserializer@Vbinary_iarchive@archive@boost@@VObject@karto@@@detail@archive@boost@@@detail@serialization@boost@@@8 	 DATA
	??_R0?AV?$singleton_wrapper@V?$iserializer@Vbinary_iarchive@archive@boost@@VParameterManager@karto@@@detail@archive@boost@@@detail@serialization@boost@@@8 	 DATA
	??_R0?AV?$singleton_wrapper@V?$oserializer@Vbinary_oarchive@archive@boost@@U?$pair@$$CBHPEAVObject@karto@@@std@@@detail@archive@boost@@@detail@serialization@boost@@@8 	 DATA
	??_R0?AV?$singleton_wrapper@V?$oserializer@Vbinary_oarchive@archive@boost@@U?$pair@$$CBV?$basic_string@DU?$char_traits@D@std@@V?$allocator@D@2@@std@@PEAVAbstractParameter@karto@@@std@@@detail@archive@boost@@@detail@serialization@boost@@@8 	 DATA
	??_R0?AV?$singleton_wrapper@V?$oserializer@Vbinary_oarchive@archive@boost@@U?$pair@$$CBVName@karto@@PEAVSensor@2@@std@@@detail@archive@boost@@@detail@serialization@boost@@@8 	 DATA
	??_R0?AV?$singleton_wrapper@V?$oserializer@Vbinary_oarchive@archive@boost@@V?$Parameter@V?$basic_string@DU?$char_traits@D@std@@V?$allocator@D@2@@std@@@karto@@@detail@archive@boost@@@detail@serialization@boost@@@8 	 DATA
	??_R0?AV?$singleton_wrapper@V?$oserializer@Vbinary_oarchive@archive@boost@@V?$map@HPEAVObject@karto@@U?$less@H@std@@V?$allocator@U?$pair@$$CBHPEAVObject@karto@@@std@@@4@@std@@@detail@archive@boost@@@detail@serialization@boost@@@8 	 DATA
	??_R0?AV?$singleton_wrapper@V?$oserializer@Vbinary_oarchive@archive@boost@@V?$map@V?$basic_string@DU?$char_traits@D@std@@V?$allocator@D@2@@std@@PEAVAbstractParameter@karto@@U?$less@V?$basic_string@DU?$char_traits@D@std@@V?$allocator@D@2@@std@@@2@V?$allocator@U?$pair@$$CBV?$basic_string@DU?$char_traits@D@std@@V?$allocator@D@2@@std@@PEAVAbstractParameter@karto@@@std@@@2@@std@@@detail@archive@boost@@@detail@serialization@boost@@@8 	 DATA
	??_R0?AV?$singleton_wrapper@V?$oserializer@Vbinary_oarchive@archive@boost@@V?$map@VName@karto@@PEAVSensor@2@U?$less@VName@karto@@@std@@V?$allocator@U?$pair@$$CBVName@karto@@PEAVSensor@2@@std@@@5@@std@@@detail@archive@boost@@@detail@serialization@boost@@@8 	 DATA
	??_R0?AV?$singleton_wrapper@V?$oserializer@Vbinary_oarchive@archive@boost@@V?$vector@PEAVAbstractParameter@karto@@V?$allocator@PEAVAbstractParameter@karto@@@std@@@std@@@detail@archive@boost@@@detail@serialization@boost@@@8 	 DATA
	??_R0?AV?$singleton_wrapper@V?$oserializer@Vbinary_oarchive@archive@boost@@V?$vector@PEAVObject@karto@@V?$allocator@PEAVObject@karto@@@std@@@std@@@detail@archive@boost@@@detail@serialization@boost@@@8 	 DATA
	??_R0?AV?$singleton_wrapper@V?$oserializer@Vbinary_oarchive@archive@boost@@VAbstractParameter@karto@@@detail@archive@boost@@@detail@serialization@boost@@@8 	 DATA
	??_R0?AV?$singleton_wrapper@V?$oserializer@Vbinary_oarchive@archive@boost@@VDataset@karto@@@detail@archive@boost@@@detail@serialization@boost@@@8 	 DATA
	??_R0?AV?$singleton_wrapper@V?$oserializer@Vbinary_oarchive@archive@boost@@VDatasetInfo@karto@@@detail@archive@boost@@@detail@serialization@boost@@@8 	 DATA
	??_R0?AV?$singleton_wrapper@V?$oserializer@Vbinary_oarchive@archive@boost@@VName@karto@@@detail@archive@boost@@@detail@serialization@boost@@@8 	 DATA
	??_R0?AV?$singleton_wrapper@V?$oserializer@Vbinary_oarchive@archive@boost@@VNonCopyable@karto@@@detail@archive@boost@@@detail@serialization@boost@@@8 	 DATA
	??_R0?AV?$singleton_wrapper@V?$oserializer@Vbinary_oarchive@archive@boost@@VObject@karto@@@detail@archive@boost@@@detail@serialization@boost@@@8 	 DATA
	??_R0?AV?$singleton_wrapper@V?$oserializer@Vbinary_oarchive@archive@boost@@VParameterManager@karto@@@detail@archive@boost@@@detail@serialization@boost@@@8 	 DATA
	??_R0?AV?$singleton_wrapper@V?$pointer_iserializer@Vbinary_iarchive@archive@boost@@VDatasetInfo@karto@@@detail@archive@boost@@@detail@serialization@boost@@@8 	 DATA
	??_R0?AV?$singleton_wrapper@V?$pointer_iserializer@Vbinary_iarchive@archive@boost@@VParameterManager@karto@@@detail@archive@boost@@@detail@serialization@boost@@@8 	 DATA
	??_R0?AV?$singleton_wrapper@V?$pointer_oserializer@Vbinary_oarchive@archive@boost@@VDatasetInfo@karto@@@detail@archive@boost@@@detail@serialization@boost@@@8 	 DATA
	??_R0?AV?$singleton_wrapper@V?$pointer_oserializer@Vbinary_oarchive@archive@boost@@VParameterManager@karto@@@detail@archive@boost@@@detail@serialization@boost@@@8 	 DATA
	??_R0?AV?$singleton_wrapper@V?$void_caster_primitive@V?$Parameter@V?$basic_string@DU?$char_traits@D@std@@V?$allocator@D@2@@std@@@karto@@VAbstractParameter@2@@void_cast_detail@serialization@boost@@@detail@serialization@boost@@@8 	 DATA
	??_R0?AV?$singleton_wrapper@V?$void_caster_primitive@VDatasetInfo@karto@@VObject@2@@void_cast_detail@serialization@boost@@@detail@serialization@boost@@@8 	 DATA
	??_R0?AV?$singleton_wrapper@V?$void_caster_primitive@VObject@karto@@VNonCopyable@2@@void_cast_detail@serialization@boost@@@detail@serialization@boost@@@8 	 DATA
	??_R0?AV?$singleton_wrapper@V?$void_caster_primitive@VParameterManager@karto@@VNonCopyable@2@@void_cast_detail@serialization@boost@@@detail@serialization@boost@@@8 	 DATA
	??_R0?AV?$sp_counted_impl_p@V?$clone_impl@Ubad_alloc_@exception_detail@boost@@@exception_detail@boost@@@detail@boost@@@8 	 DATA
	??_R0?AV?$sp_counted_impl_p@V?$clone_impl@Ubad_exception_@exception_detail@boost@@@exception_detail@boost@@@detail@boost@@@8 	 DATA
	??_R0?AV?$vector@PEAVAbstractParameter@karto@@V?$allocator@PEAVAbstractParameter@karto@@@std@@@std@@@8 	 DATA
	??_R0?AV?$vector@PEAVObject@karto@@V?$allocator@PEAVObject@karto@@@std@@@std@@@8 	 DATA
	??_R0?AV?$void_caster_primitive@V?$Parameter@V?$basic_string@DU?$char_traits@D@std@@V?$allocator@D@2@@std@@@karto@@VAbstractParameter@2@@void_cast_detail@serialization@boost@@@8 	 DATA
	??_R0?AV?$void_caster_primitive@VDatasetInfo@karto@@VObject@2@@void_cast_detail@serialization@boost@@@8 	 DATA
	??_R0?AV?$void_caster_primitive@VObject@karto@@VNonCopyable@2@@void_cast_detail@serialization@boost@@@8 	 DATA
	??_R0?AV?$void_caster_primitive@VParameterManager@karto@@VNonCopyable@2@@void_cast_detail@serialization@boost@@@8 	 DATA
	??_R0?AVAbstractParameter@karto@@@8 	 DATA
	??_R0?AVAsynchronousSlamToolbox@slam_toolbox@@@8 	 DATA
	??_R0?AVDataset@karto@@@8 	 DATA
	??_R0?AVDatasetInfo@karto@@@8 	 DATA
	??_R0?AVName@karto@@@8 	 DATA
	??_R0?AVNode@rclcpp@@@8 	 DATA
	??_R0?AVNonCopyable@karto@@@8 	 DATA
	??_R0?AVObject@karto@@@8 	 DATA
	??_R0?AVParameterManager@karto@@@8 	 DATA
	??_R0?AVSensor@karto@@@8 	 DATA
	??_R0?AVSlamToolbox@slam_toolbox@@@8 	 DATA
	??_R0?AVTransformException@tf2@@@8 	 DATA
	??_R0?AVarchive_exception@archive@boost@@@8 	 DATA
	??_R0?AVbad_alloc@std@@@8 	 DATA
	??_R0?AVbad_array_new_length@std@@@8 	 DATA
	??_R0?AVbad_cast@std@@@8 	 DATA
	??_R0?AVbad_exception@std@@@8 	 DATA
	??_R0?AVbasic_iserializer@detail@archive@boost@@@8 	 DATA
	??_R0?AVbasic_oserializer@detail@archive@boost@@@8 	 DATA
	??_R0?AVbasic_pointer_iserializer@detail@archive@boost@@@8 	 DATA
	??_R0?AVbasic_pointer_oserializer@detail@archive@boost@@@8 	 DATA
	??_R0?AVbasic_serializer@detail@archive@boost@@@8 	 DATA
	??_R0?AVclone_base@exception_detail@boost@@@8 	 DATA
	??_R0?AVerror_category@system@boost@@@8 	 DATA
	??_R0?AVexception@boost@@@8 	 DATA
	??_R0?AVexception@std@@@8 	 DATA
	??_R0?AVextended_type_info@serialization@boost@@@8 	 DATA
	??_R0?AVextended_type_info_typeid_0@typeid_system@serialization@boost@@@8 	 DATA
	??_R0?AVgeneric_error_category@detail@system@boost@@@8 	 DATA
	??_R0?AVios_base@std@@@8 	 DATA
	??_R0?AVnoncopyable@noncopyable_@boost@@@8 	 DATA
	??_R0?AVruntime_error@std@@@8 	 DATA
	??_R0?AVsp_counted_base@detail@boost@@@8 	 DATA
	??_R0?AVsystem_error@system@boost@@@8 	 DATA
	??_R0?AVsystem_error_category@detail@system@boost@@@8 	 DATA
	??_R0?AVthread_exception@boost@@@8 	 DATA
	??_R0?AVthread_resource_error@boost@@@8 	 DATA
	??_R0?AVvoid_caster@void_cast_detail@serialization@boost@@@8 	 DATA
	?_OptionsStorage@?1??__local_stdio_printf_options@@9@4_KA 	 DATA
	?_Psave@?$_Facetptr@V?$ctype@D@std@@@std@@2PEBVfacet@locale@2@EB 	 DATA
	?e@?$exception_ptr_static_exception_object@Ubad_alloc_@exception_detail@boost@@@exception_detail@boost@@2Vexception_ptr@3@B 	 DATA
	?e@?$exception_ptr_static_exception_object@Ubad_exception_@exception_detail@boost@@@exception_detail@boost@@2Vexception_ptr@3@B 	 DATA
	?ep@?1???$get_static_exception_object@Ubad_alloc_@exception_detail@boost@@@exception_detail@boost@@YA?AVexception_ptr@2@XZ@4V32@A 	 DATA
	?ep@?1???$get_static_exception_object@Ubad_exception_@exception_detail@boost@@@exception_detail@boost@@YA?AVexception_ptr@2@XZ@4V32@A 	 DATA
	?is_destroyed_flag@?1??get_is_destroyed@?$singleton_wrapper@V?$archive_serializer_map@Vbinary_oarchive@archive@boost@@@detail@archive@boost@@@detail@serialization@boost@@CAAEA_NXZ@4_NA 	 DATA
	?is_destroyed_flag@?1??get_is_destroyed@?$singleton_wrapper@V?$extended_type_info_typeid@U?$pair@$$CBHPEAVObject@karto@@@std@@@serialization@boost@@@detail@serialization@boost@@CAAEA_NXZ@4_NA 	 DATA
	?is_destroyed_flag@?1??get_is_destroyed@?$singleton_wrapper@V?$extended_type_info_typeid@U?$pair@$$CBV?$basic_string@DU?$char_traits@D@std@@V?$allocator@D@2@@std@@PEAVAbstractParameter@karto@@@std@@@serialization@boost@@@detail@serialization@boost@@CAAEA_NXZ@4_NA 	 DATA
	?is_destroyed_flag@?1??get_is_destroyed@?$singleton_wrapper@V?$extended_type_info_typeid@U?$pair@$$CBVName@karto@@PEAVSensor@2@@std@@@serialization@boost@@@detail@serialization@boost@@CAAEA_NXZ@4_NA 	 DATA
	?is_destroyed_flag@?1??get_is_destroyed@?$singleton_wrapper@V?$extended_type_info_typeid@V?$Parameter@V?$basic_string@DU?$char_traits@D@std@@V?$allocator@D@2@@std@@@karto@@@serialization@boost@@@detail@serialization@boost@@CAAEA_NXZ@4_NA 	 DATA
	?is_destroyed_flag@?1??get_is_destroyed@?$singleton_wrapper@V?$extended_type_info_typeid@V?$map@HPEAVObject@karto@@U?$less@H@std@@V?$allocator@U?$pair@$$CBHPEAVObject@karto@@@std@@@4@@std@@@serialization@boost@@@detail@serialization@boost@@CAAEA_NXZ@4_NA 	 DATA
	?is_destroyed_flag@?1??get_is_destroyed@?$singleton_wrapper@V?$extended_type_info_typeid@V?$map@V?$basic_string@DU?$char_traits@D@std@@V?$allocator@D@2@@std@@PEAVAbstractParameter@karto@@U?$less@V?$basic_string@DU?$char_traits@D@std@@V?$allocator@D@2@@std@@@2@V?$allocator@U?$pair@$$CBV?$basic_string@DU?$char_traits@D@std@@V?$allocator@D@2@@std@@PEAVAbstractParameter@karto@@@std@@@2@@std@@@serialization@boost@@@detail@serialization@boost@@CAAEA_NXZ@4_NA 	 DATA
	?is_destroyed_flag@?1??get_is_destroyed@?$singleton_wrapper@V?$extended_type_info_typeid@V?$map@VName@karto@@PEAVSensor@2@U?$less@VName@karto@@@std@@V?$allocator@U?$pair@$$CBVName@karto@@PEAVSensor@2@@std@@@5@@std@@@serialization@boost@@@detail@serialization@boost@@CAAEA_NXZ@4_NA 	 DATA
	?is_destroyed_flag@?1??get_is_destroyed@?$singleton_wrapper@V?$extended_type_info_typeid@V?$vector@PEAVAbstractParameter@karto@@V?$allocator@PEAVAbstractParameter@karto@@@std@@@std@@@serialization@boost@@@detail@serialization@boost@@CAAEA_NXZ@4_NA 	 DATA
	?is_destroyed_flag@?1??get_is_destroyed@?$singleton_wrapper@V?$extended_type_info_typeid@V?$vector@PEAVObject@karto@@V?$allocator@PEAVObject@karto@@@std@@@std@@@serialization@boost@@@detail@serialization@boost@@CAAEA_NXZ@4_NA 	 DATA
	?is_destroyed_flag@?1??get_is_destroyed@?$singleton_wrapper@V?$extended_type_info_typeid@VAbstractParameter@karto@@@serialization@boost@@@detail@serialization@boost@@CAAEA_NXZ@4_NA 	 DATA
	?is_destroyed_flag@?1??get_is_destroyed@?$singleton_wrapper@V?$extended_type_info_typeid@VDataset@karto@@@serialization@boost@@@detail@serialization@boost@@CAAEA_NXZ@4_NA 	 DATA
	?is_destroyed_flag@?1??get_is_destroyed@?$singleton_wrapper@V?$extended_type_info_typeid@VDatasetInfo@karto@@@serialization@boost@@@detail@serialization@boost@@CAAEA_NXZ@4_NA 	 DATA
	?is_destroyed_flag@?1??get_is_destroyed@?$singleton_wrapper@V?$extended_type_info_typeid@VName@karto@@@serialization@boost@@@detail@serialization@boost@@CAAEA_NXZ@4_NA 	 DATA
	?is_destroyed_flag@?1??get_is_destroyed@?$singleton_wrapper@V?$extended_type_info_typeid@VNonCopyable@karto@@@serialization@boost@@@detail@serialization@boost@@CAAEA_NXZ@4_NA 	 DATA
	?is_destroyed_flag@?1??get_is_destroyed@?$singleton_wrapper@V?$extended_type_info_typeid@VObject@karto@@@serialization@boost@@@detail@serialization@boost@@CAAEA_NXZ@4_NA 	 DATA
	?is_destroyed_flag@?1??get_is_destroyed@?$singleton_wrapper@V?$extended_type_info_typeid@VParameterManager@karto@@@serialization@boost@@@detail@serialization@boost@@CAAEA_NXZ@4_NA 	 DATA
	?is_destroyed_flag@?1??get_is_destroyed@?$singleton_wrapper@V?$extended_type_info_typeid@VSensor@karto@@@serialization@boost@@@detail@serialization@boost@@CAAEA_NXZ@4_NA 	 DATA
	?is_destroyed_flag@?1??get_is_destroyed@?$singleton_wrapper@V?$iserializer@Vbinary_iarchive@archive@boost@@U?$pair@$$CBHPEAVObject@karto@@@std@@@detail@archive@boost@@@detail@serialization@boost@@CAAEA_NXZ@4_NA 	 DATA
	?is_destroyed_flag@?1??get_is_destroyed@?$singleton_wrapper@V?$iserializer@Vbinary_iarchive@archive@boost@@U?$pair@$$CBV?$basic_string@DU?$char_traits@D@std@@V?$allocator@D@2@@std@@PEAVAbstractParameter@karto@@@std@@@detail@archive@boost@@@detail@serialization@boost@@CAAEA_NXZ@4_NA 	 DATA
	?is_destroyed_flag@?1??get_is_destroyed@?$singleton_wrapper@V?$iserializer@Vbinary_iarchive@archive@boost@@U?$pair@$$CBVName@karto@@PEAVSensor@2@@std@@@detail@archive@boost@@@detail@serialization@boost@@CAAEA_NXZ@4_NA 	 DATA
	?is_destroyed_flag@?1??get_is_destroyed@?$singleton_wrapper@V?$iserializer@Vbinary_iarchive@archive@boost@@V?$Parameter@V?$basic_string@DU?$char_traits@D@std@@V?$allocator@D@2@@std@@@karto@@@detail@archive@boost@@@detail@serialization@boost@@CAAEA_NXZ@4_NA 	 DATA
	?is_destroyed_flag@?1??get_is_destroyed@?$singleton_wrapper@V?$iserializer@Vbinary_iarchive@archive@boost@@V?$map@HPEAVObject@karto@@U?$less@H@std@@V?$allocator@U?$pair@$$CBHPEAVObject@karto@@@std@@@4@@std@@@detail@archive@boost@@@detail@serialization@boost@@CAAEA_NXZ@4_NA 	 DATA
	?is_destroyed_flag@?1??get_is_destroyed@?$singleton_wrapper@V?$iserializer@Vbinary_iarchive@archive@boost@@V?$map@V?$basic_string@DU?$char_traits@D@std@@V?$allocator@D@2@@std@@PEAVAbstractParameter@karto@@U?$less@V?$basic_string@DU?$char_traits@D@std@@V?$allocator@D@2@@std@@@2@V?$allocator@U?$pair@$$CBV?$basic_string@DU?$char_traits@D@std@@V?$allocator@D@2@@std@@PEAVAbstractParameter@karto@@@std@@@2@@std@@@detail@archive@boost@@@detail@serialization@boost@@CAAEA_NXZ@4_NA 	 DATA
	?is_destroyed_flag@?1??get_is_destroyed@?$singleton_wrapper@V?$iserializer@Vbinary_iarchive@archive@boost@@V?$map@VName@karto@@PEAVSensor@2@U?$less@VName@karto@@@std@@V?$allocator@U?$pair@$$CBVName@karto@@PEAVSensor@2@@std@@@5@@std@@@detail@archive@boost@@@detail@serialization@boost@@CAAEA_NXZ@4_NA 	 DATA
	?is_destroyed_flag@?1??get_is_destroyed@?$singleton_wrapper@V?$iserializer@Vbinary_iarchive@archive@boost@@V?$vector@PEAVAbstractParameter@karto@@V?$allocator@PEAVAbstractParameter@karto@@@std@@@std@@@detail@archive@boost@@@detail@serialization@boost@@CAAEA_NXZ@4_NA 	 DATA
	?is_destroyed_flag@?1??get_is_destroyed@?$singleton_wrapper@V?$iserializer@Vbinary_iarchive@archive@boost@@V?$vector@PEAVObject@karto@@V?$allocator@PEAVObject@karto@@@std@@@std@@@detail@archive@boost@@@detail@serialization@boost@@CAAEA_NXZ@4_NA 	 DATA
	?is_destroyed_flag@?1??get_is_destroyed@?$singleton_wrapper@V?$iserializer@Vbinary_iarchive@archive@boost@@VAbstractParameter@karto@@@detail@archive@boost@@@detail@serialization@boost@@CAAEA_NXZ@4_NA 	 DATA
	?is_destroyed_flag@?1??get_is_destroyed@?$singleton_wrapper@V?$iserializer@Vbinary_iarchive@archive@boost@@VDataset@karto@@@detail@archive@boost@@@detail@serialization@boost@@CAAEA_NXZ@4_NA 	 DATA
	?is_destroyed_flag@?1??get_is_destroyed@?$singleton_wrapper@V?$iserializer@Vbinary_iarchive@archive@boost@@VDatasetInfo@karto@@@detail@archive@boost@@@detail@serialization@boost@@CAAEA_NXZ@4_NA 	 DATA
	?is_destroyed_flag@?1??get_is_destroyed@?$singleton_wrapper@V?$iserializer@Vbinary_iarchive@archive@boost@@VName@karto@@@detail@archive@boost@@@detail@serialization@boost@@CAAEA_NXZ@4_NA 	 DATA
	?is_destroyed_flag@?1??get_is_destroyed@?$singleton_wrapper@V?$iserializer@Vbinary_iarchive@archive@boost@@VNonCopyable@karto@@@detail@archive@boost@@@detail@serialization@boost@@CAAEA_NXZ@4_NA 	 DATA
	?is_destroyed_flag@?1??get_is_destroyed@?$singleton_wrapper@V?$iserializer@Vbinary_iarchive@archive@boost@@VObject@karto@@@detail@archive@boost@@@detail@serialization@boost@@CAAEA_NXZ@4_NA 	 DATA
	?is_destroyed_flag@?1??get_is_destroyed@?$singleton_wrapper@V?$iserializer@Vbinary_iarchive@archive@boost@@VParameterManager@karto@@@detail@archive@boost@@@detail@serialization@boost@@CAAEA_NXZ@4_NA 	 DATA
	?is_destroyed_flag@?1??get_is_destroyed@?$singleton_wrapper@V?$oserializer@Vbinary_oarchive@archive@boost@@U?$pair@$$CBHPEAVObject@karto@@@std@@@detail@archive@boost@@@detail@serialization@boost@@CAAEA_NXZ@4_NA 	 DATA
	?is_destroyed_flag@?1??get_is_destroyed@?$singleton_wrapper@V?$oserializer@Vbinary_oarchive@archive@boost@@U?$pair@$$CBV?$basic_string@DU?$char_traits@D@std@@V?$allocator@D@2@@std@@PEAVAbstractParameter@karto@@@std@@@detail@archive@boost@@@detail@serialization@boost@@CAAEA_NXZ@4_NA 	 DATA
	?is_destroyed_flag@?1??get_is_destroyed@?$singleton_wrapper@V?$oserializer@Vbinary_oarchive@archive@boost@@U?$pair@$$CBVName@karto@@PEAVSensor@2@@std@@@detail@archive@boost@@@detail@serialization@boost@@CAAEA_NXZ@4_NA 	 DATA
	?is_destroyed_flag@?1??get_is_destroyed@?$singleton_wrapper@V?$oserializer@Vbinary_oarchive@archive@boost@@V?$Parameter@V?$basic_string@DU?$char_traits@D@std@@V?$allocator@D@2@@std@@@karto@@@detail@archive@boost@@@detail@serialization@boost@@CAAEA_NXZ@4_NA 	 DATA
	?is_destroyed_flag@?1??get_is_destroyed@?$singleton_wrapper@V?$oserializer@Vbinary_oarchive@archive@boost@@V?$map@HPEAVObject@karto@@U?$less@H@std@@V?$allocator@U?$pair@$$CBHPEAVObject@karto@@@std@@@4@@std@@@detail@archive@boost@@@detail@serialization@boost@@CAAEA_NXZ@4_NA 	 DATA
	?is_destroyed_flag@?1??get_is_destroyed@?$singleton_wrapper@V?$oserializer@Vbinary_oarchive@archive@boost@@V?$map@V?$basic_string@DU?$char_traits@D@std@@V?$allocator@D@2@@std@@PEAVAbstractParameter@karto@@U?$less@V?$basic_string@DU?$char_traits@D@std@@V?$allocator@D@2@@std@@@2@V?$allocator@U?$pair@$$CBV?$basic_string@DU?$char_traits@D@std@@V?$allocator@D@2@@std@@PEAVAbstractParameter@karto@@@std@@@2@@std@@@detail@archive@boost@@@detail@serialization@boost@@CAAEA_NXZ@4_NA 	 DATA
	?is_destroyed_flag@?1??get_is_destroyed@?$singleton_wrapper@V?$oserializer@Vbinary_oarchive@archive@boost@@V?$map@VName@karto@@PEAVSensor@2@U?$less@VName@karto@@@std@@V?$allocator@U?$pair@$$CBVName@karto@@PEAVSensor@2@@std@@@5@@std@@@detail@archive@boost@@@detail@serialization@boost@@CAAEA_NXZ@4_NA 	 DATA
	?is_destroyed_flag@?1??get_is_destroyed@?$singleton_wrapper@V?$oserializer@Vbinary_oarchive@archive@boost@@V?$vector@PEAVAbstractParameter@karto@@V?$allocator@PEAVAbstractParameter@karto@@@std@@@std@@@detail@archive@boost@@@detail@serialization@boost@@CAAEA_NXZ@4_NA 	 DATA
	?is_destroyed_flag@?1??get_is_destroyed@?$singleton_wrapper@V?$oserializer@Vbinary_oarchive@archive@boost@@V?$vector@PEAVObject@karto@@V?$allocator@PEAVObject@karto@@@std@@@std@@@detail@archive@boost@@@detail@serialization@boost@@CAAEA_NXZ@4_NA 	 DATA
	?is_destroyed_flag@?1??get_is_destroyed@?$singleton_wrapper@V?$oserializer@Vbinary_oarchive@archive@boost@@VAbstractParameter@karto@@@detail@archive@boost@@@detail@serialization@boost@@CAAEA_NXZ@4_NA 	 DATA
	?is_destroyed_flag@?1??get_is_destroyed@?$singleton_wrapper@V?$oserializer@Vbinary_oarchive@archive@boost@@VDataset@karto@@@detail@archive@boost@@@detail@serialization@boost@@CAAEA_NXZ@4_NA 	 DATA
	?is_destroyed_flag@?1??get_is_destroyed@?$singleton_wrapper@V?$oserializer@Vbinary_oarchive@archive@boost@@VDatasetInfo@karto@@@detail@archive@boost@@@detail@serialization@boost@@CAAEA_NXZ@4_NA 	 DATA
	?is_destroyed_flag@?1??get_is_destroyed@?$singleton_wrapper@V?$oserializer@Vbinary_oarchive@archive@boost@@VName@karto@@@detail@archive@boost@@@detail@serialization@boost@@CAAEA_NXZ@4_NA 	 DATA
	?is_destroyed_flag@?1??get_is_destroyed@?$singleton_wrapper@V?$oserializer@Vbinary_oarchive@archive@boost@@VNonCopyable@karto@@@detail@archive@boost@@@detail@serialization@boost@@CAAEA_NXZ@4_NA 	 DATA
	?is_destroyed_flag@?1??get_is_destroyed@?$singleton_wrapper@V?$oserializer@Vbinary_oarchive@archive@boost@@VObject@karto@@@detail@archive@boost@@@detail@serialization@boost@@CAAEA_NXZ@4_NA 	 DATA
	?is_destroyed_flag@?1??get_is_destroyed@?$singleton_wrapper@V?$oserializer@Vbinary_oarchive@archive@boost@@VParameterManager@karto@@@detail@archive@boost@@@detail@serialization@boost@@CAAEA_NXZ@4_NA 	 DATA
	?is_destroyed_flag@?1??get_is_destroyed@?$singleton_wrapper@V?$pointer_iserializer@Vbinary_iarchive@archive@boost@@VDatasetInfo@karto@@@detail@archive@boost@@@detail@serialization@boost@@CAAEA_NXZ@4_NA 	 DATA
	?is_destroyed_flag@?1??get_is_destroyed@?$singleton_wrapper@V?$pointer_iserializer@Vbinary_iarchive@archive@boost@@VParameterManager@karto@@@detail@archive@boost@@@detail@serialization@boost@@CAAEA_NXZ@4_NA 	 DATA
	?is_destroyed_flag@?1??get_is_destroyed@?$singleton_wrapper@V?$pointer_oserializer@Vbinary_oarchive@archive@boost@@VDatasetInfo@karto@@@detail@archive@boost@@@detail@serialization@boost@@CAAEA_NXZ@4_NA 	 DATA
	?is_destroyed_flag@?1??get_is_destroyed@?$singleton_wrapper@V?$pointer_oserializer@Vbinary_oarchive@archive@boost@@VParameterManager@karto@@@detail@archive@boost@@@detail@serialization@boost@@CAAEA_NXZ@4_NA 	 DATA
	?is_destroyed_flag@?1??get_is_destroyed@?$singleton_wrapper@V?$void_caster_primitive@V?$Parameter@V?$basic_string@DU?$char_traits@D@std@@V?$allocator@D@2@@std@@@karto@@VAbstractParameter@2@@void_cast_detail@serialization@boost@@@detail@serialization@boost@@CAAEA_NXZ@4_NA 	 DATA
	?is_destroyed_flag@?1??get_is_destroyed@?$singleton_wrapper@V?$void_caster_primitive@VDatasetInfo@karto@@VObject@2@@void_cast_detail@serialization@boost@@@detail@serialization@boost@@CAAEA_NXZ@4_NA 	 DATA
	?is_destroyed_flag@?1??get_is_destroyed@?$singleton_wrapper@V?$void_caster_primitive@VObject@karto@@VNonCopyable@2@@void_cast_detail@serialization@boost@@@detail@serialization@boost@@CAAEA_NXZ@4_NA 	 DATA
	?is_destroyed_flag@?1??get_is_destroyed@?$singleton_wrapper@V?$void_caster_primitive@VParameterManager@karto@@VNonCopyable@2@@void_cast_detail@serialization@boost@@@detail@serialization@boost@@CAAEA_NXZ@4_NA 	 DATA
	?lock@?1??get_lock@singleton_module@serialization@boost@@AEAAAEA_NXZ@4_NA 	 DATA
	?m_instance@?$singleton@V?$archive_serializer_map@Vbinary_oarchive@archive@boost@@@detail@archive@boost@@@serialization@boost@@0PEAV?$archive_serializer_map@Vbinary_oarchive@archive@boost@@@detail@archive@3@EA 	 DATA
	?m_instance@?$singleton@V?$extended_type_info_typeid@U?$pair@$$CBHPEAVObject@karto@@@std@@@serialization@boost@@@serialization@boost@@0PEAV?$extended_type_info_typeid@U?$pair@$$CBHPEAVObject@karto@@@std@@@23@EA 	 DATA
	?m_instance@?$singleton@V?$extended_type_info_typeid@U?$pair@$$CBV?$basic_string@DU?$char_traits@D@std@@V?$allocator@D@2@@std@@PEAVAbstractParameter@karto@@@std@@@serialization@boost@@@serialization@boost@@0PEAV?$extended_type_info_typeid@U?$pair@$$CBV?$basic_string@DU?$char_traits@D@std@@V?$allocator@D@2@@std@@PEAVAbstractParameter@karto@@@std@@@23@EA 	 DATA
	?m_instance@?$singleton@V?$extended_type_info_typeid@U?$pair@$$CBVName@karto@@PEAVSensor@2@@std@@@serialization@boost@@@serialization@boost@@0PEAV?$extended_type_info_typeid@U?$pair@$$CBVName@karto@@PEAVSensor@2@@std@@@23@EA 	 DATA
	?m_instance@?$singleton@V?$extended_type_info_typeid@V?$Parameter@V?$basic_string@DU?$char_traits@D@std@@V?$allocator@D@2@@std@@@karto@@@serialization@boost@@@serialization@boost@@0PEAV?$extended_type_info_typeid@V?$Parameter@V?$basic_string@DU?$char_traits@D@std@@V?$allocator@D@2@@std@@@karto@@@23@EA 	 DATA
	?m_instance@?$singleton@V?$extended_type_info_typeid@V?$map@HPEAVObject@karto@@U?$less@H@std@@V?$allocator@U?$pair@$$CBHPEAVObject@karto@@@std@@@4@@std@@@serialization@boost@@@serialization@boost@@0PEAV?$extended_type_info_typeid@V?$map@HPEAVObject@karto@@U?$less@H@std@@V?$allocator@U?$pair@$$CBHPEAVObject@karto@@@std@@@4@@std@@@23@EA 	 DATA
	?m_instance@?$singleton@V?$extended_type_info_typeid@V?$map@V?$basic_string@DU?$char_traits@D@std@@V?$allocator@D@2@@std@@PEAVAbstractParameter@karto@@U?$less@V?$basic_string@DU?$char_traits@D@std@@V?$allocator@D@2@@std@@@2@V?$allocator@U?$pair@$$CBV?$basic_string@DU?$char_traits@D@std@@V?$allocator@D@2@@std@@PEAVAbstractParameter@karto@@@std@@@2@@std@@@serialization@boost@@@serialization@boost@@0PEAV?$extended_type_info_typeid@V?$map@V?$basic_string@DU?$char_traits@D@std@@V?$allocator@D@2@@std@@PEAVAbstractParameter@karto@@U?$less@V?$basic_string@DU?$char_traits@D@std@@V?$allocator@D@2@@std@@@2@V?$allocator@U?$pair@$$CBV?$basic_string@DU?$char_traits@D@std@@V?$allocator@D@2@@std@@PEAVAbstractParameter@karto@@@std@@@2@@std@@@23@EA 	 DATA
	?m_instance@?$singleton@V?$extended_type_info_typeid@V?$map@VName@karto@@PEAVSensor@2@U?$less@VName@karto@@@std@@V?$allocator@U?$pair@$$CBVName@karto@@PEAVSensor@2@@std@@@5@@std@@@serialization@boost@@@serialization@boost@@0PEAV?$extended_type_info_typeid@V?$map@VName@karto@@PEAVSensor@2@U?$less@VName@karto@@@std@@V?$allocator@U?$pair@$$CBVName@karto@@PEAVSensor@2@@std@@@5@@std@@@23@EA 	 DATA
	?m_instance@?$singleton@V?$extended_type_info_typeid@V?$vector@PEAVAbstractParameter@karto@@V?$allocator@PEAVAbstractParameter@karto@@@std@@@std@@@serialization@boost@@@serialization@boost@@0PEAV?$extended_type_info_typeid@V?$vector@PEAVAbstractParameter@karto@@V?$allocator@PEAVAbstractParameter@karto@@@std@@@std@@@23@EA 	 DATA
	?m_instance@?$singleton@V?$extended_type_info_typeid@V?$vector@PEAVObject@karto@@V?$allocator@PEAVObject@karto@@@std@@@std@@@serialization@boost@@@serialization@boost@@0PEAV?$extended_type_info_typeid@V?$vector@PEAVObject@karto@@V?$allocator@PEAVObject@karto@@@std@@@std@@@23@EA 	 DATA
	?m_instance@?$singleton@V?$extended_type_info_typeid@VAbstractParameter@karto@@@serialization@boost@@@serialization@boost@@0PEAV?$extended_type_info_typeid@VAbstractParameter@karto@@@23@EA 	 DATA
	?m_instance@?$singleton@V?$extended_type_info_typeid@VDataset@karto@@@serialization@boost@@@serialization@boost@@0PEAV?$extended_type_info_typeid@VDataset@karto@@@23@EA 	 DATA
	?m_instance@?$singleton@V?$extended_type_info_typeid@VDatasetInfo@karto@@@serialization@boost@@@serialization@boost@@0PEAV?$extended_type_info_typeid@VDatasetInfo@karto@@@23@EA 	 DATA
	?m_instance@?$singleton@V?$extended_type_info_typeid@VName@karto@@@serialization@boost@@@serialization@boost@@0PEAV?$extended_type_info_typeid@VName@karto@@@23@EA 	 DATA
	?m_instance@?$singleton@V?$extended_type_info_typeid@VNonCopyable@karto@@@serialization@boost@@@serialization@boost@@0PEAV?$extended_type_info_typeid@VNonCopyable@karto@@@23@EA 	 DATA
	?m_instance@?$singleton@V?$extended_type_info_typeid@VObject@karto@@@serialization@boost@@@serialization@boost@@0PEAV?$extended_type_info_typeid@VObject@karto@@@23@EA 	 DATA
	?m_instance@?$singleton@V?$extended_type_info_typeid@VParameterManager@karto@@@serialization@boost@@@serialization@boost@@0PEAV?$extended_type_info_typeid@VParameterManager@karto@@@23@EA 	 DATA
	?m_instance@?$singleton@V?$extended_type_info_typeid@VSensor@karto@@@serialization@boost@@@serialization@boost@@0PEAV?$extended_type_info_typeid@VSensor@karto@@@23@EA 	 DATA
	?m_instance@?$singleton@V?$iserializer@Vbinary_iarchive@archive@boost@@U?$pair@$$CBHPEAVObject@karto@@@std@@@detail@archive@boost@@@serialization@boost@@0PEAV?$iserializer@Vbinary_iarchive@archive@boost@@U?$pair@$$CBHPEAVObject@karto@@@std@@@detail@archive@3@EA 	 DATA
	?m_instance@?$singleton@V?$iserializer@Vbinary_iarchive@archive@boost@@U?$pair@$$CBV?$basic_string@DU?$char_traits@D@std@@V?$allocator@D@2@@std@@PEAVAbstractParameter@karto@@@std@@@detail@archive@boost@@@serialization@boost@@0PEAV?$iserializer@Vbinary_iarchive@archive@boost@@U?$pair@$$CBV?$basic_string@DU?$char_traits@D@std@@V?$allocator@D@2@@std@@PEAVAbstractParameter@karto@@@std@@@detail@archive@3@EA 	 DATA
	?m_instance@?$singleton@V?$iserializer@Vbinary_iarchive@archive@boost@@U?$pair@$$CBVName@karto@@PEAVSensor@2@@std@@@detail@archive@boost@@@serialization@boost@@0PEAV?$iserializer@Vbinary_iarchive@archive@boost@@U?$pair@$$CBVName@karto@@PEAVSensor@2@@std@@@detail@archive@3@EA 	 DATA
	?m_instance@?$singleton@V?$iserializer@Vbinary_iarchive@archive@boost@@V?$Parameter@V?$basic_string@DU?$char_traits@D@std@@V?$allocator@D@2@@std@@@karto@@@detail@archive@boost@@@serialization@boost@@0PEAV?$iserializer@Vbinary_iarchive@archive@boost@@V?$Parameter@V?$basic_string@DU?$char_traits@D@std@@V?$allocator@D@2@@std@@@karto@@@detail@archive@3@EA 	 DATA
	?m_instance@?$singleton@V?$iserializer@Vbinary_iarchive@archive@boost@@V?$map@HPEAVObject@karto@@U?$less@H@std@@V?$allocator@U?$pair@$$CBHPEAVObject@karto@@@std@@@4@@std@@@detail@archive@boost@@@serialization@boost@@0PEAV?$iserializer@Vbinary_iarchive@archive@boost@@V?$map@HPEAVObject@karto@@U?$less@H@std@@V?$allocator@U?$pair@$$CBHPEAVObject@karto@@@std@@@4@@std@@@detail@archive@3@EA 	 DATA
	?m_instance@?$singleton@V?$iserializer@Vbinary_iarchive@archive@boost@@V?$map@V?$basic_string@DU?$char_traits@D@std@@V?$allocator@D@2@@std@@PEAVAbstractParameter@karto@@U?$less@V?$basic_string@DU?$char_traits@D@std@@V?$allocator@D@2@@std@@@2@V?$allocator@U?$pair@$$CBV?$basic_string@DU?$char_traits@D@std@@V?$allocator@D@2@@std@@PEAVAbstractParameter@karto@@@std@@@2@@std@@@detail@archive@boost@@@serialization@boost@@0PEAV?$iserializer@Vbinary_iarchive@archive@boost@@V?$map@V?$basic_string@DU?$char_traits@D@std@@V?$allocator@D@2@@std@@PEAVAbstractParameter@karto@@U?$less@V?$basic_string@DU?$char_traits@D@std@@V?$allocator@D@2@@std@@@2@V?$allocator@U?$pair@$$CBV?$basic_string@DU?$char_traits@D@std@@V?$allocator@D@2@@std@@PEAVAbstractParameter@karto@@@std@@@2@@std@@@detail@archive@3@EA 	 DATA
	?m_instance@?$singleton@V?$iserializer@Vbinary_iarchive@archive@boost@@V?$map@VName@karto@@PEAVSensor@2@U?$less@VName@karto@@@std@@V?$allocator@U?$pair@$$CBVName@karto@@PEAVSensor@2@@std@@@5@@std@@@detail@archive@boost@@@serialization@boost@@0PEAV?$iserializer@Vbinary_iarchive@archive@boost@@V?$map@VName@karto@@PEAVSensor@2@U?$less@VName@karto@@@std@@V?$allocator@U?$pair@$$CBVName@karto@@PEAVSensor@2@@std@@@5@@std@@@detail@archive@3@EA 	 DATA
	?m_instance@?$singleton@V?$iserializer@Vbinary_iarchive@archive@boost@@V?$vector@PEAVAbstractParameter@karto@@V?$allocator@PEAVAbstractParameter@karto@@@std@@@std@@@detail@archive@boost@@@serialization@boost@@0PEAV?$iserializer@Vbinary_iarchive@archive@boost@@V?$vector@PEAVAbstractParameter@karto@@V?$allocator@PEAVAbstractParameter@karto@@@std@@@std@@@detail@archive@3@EA 	 DATA
	?m_instance@?$singleton@V?$iserializer@Vbinary_iarchive@archive@boost@@V?$vector@PEAVObject@karto@@V?$allocator@PEAVObject@karto@@@std@@@std@@@detail@archive@boost@@@serialization@boost@@0PEAV?$iserializer@Vbinary_iarchive@archive@boost@@V?$vector@PEAVObject@karto@@V?$allocator@PEAVObject@karto@@@std@@@std@@@detail@archive@3@EA 	 DATA
	?m_instance@?$singleton@V?$iserializer@Vbinary_iarchive@archive@boost@@VAbstractParameter@karto@@@detail@archive@boost@@@serialization@boost@@0PEAV?$iserializer@Vbinary_iarchive@archive@boost@@VAbstractParameter@karto@@@detail@archive@3@EA 	 DATA
	?m_instance@?$singleton@V?$iserializer@Vbinary_iarchive@archive@boost@@VDataset@karto@@@detail@archive@boost@@@serialization@boost@@0PEAV?$iserializer@Vbinary_iarchive@archive@boost@@VDataset@karto@@@detail@archive@3@EA 	 DATA
	?m_instance@?$singleton@V?$iserializer@Vbinary_iarchive@archive@boost@@VDatasetInfo@karto@@@detail@archive@boost@@@serialization@boost@@0PEAV?$iserializer@Vbinary_iarchive@archive@boost@@VDatasetInfo@karto@@@detail@archive@3@EA 	 DATA
	?m_instance@?$singleton@V?$iserializer@Vbinary_iarchive@archive@boost@@VName@karto@@@detail@archive@boost@@@serialization@boost@@0PEAV?$iserializer@Vbinary_iarchive@archive@boost@@VName@karto@@@detail@archive@3@EA 	 DATA
	?m_instance@?$singleton@V?$iserializer@Vbinary_iarchive@archive@boost@@VNonCopyable@karto@@@detail@archive@boost@@@serialization@boost@@0PEAV?$iserializer@Vbinary_iarchive@archive@boost@@VNonCopyable@karto@@@detail@archive@3@EA 	 DATA
	?m_instance@?$singleton@V?$iserializer@Vbinary_iarchive@archive@boost@@VObject@karto@@@detail@archive@boost@@@serialization@boost@@0PEAV?$iserializer@Vbinary_iarchive@archive@boost@@VObject@karto@@@detail@archive@3@EA 	 DATA
	?m_instance@?$singleton@V?$iserializer@Vbinary_iarchive@archive@boost@@VParameterManager@karto@@@detail@archive@boost@@@serialization@boost@@0PEAV?$iserializer@Vbinary_iarchive@archive@boost@@VParameterManager@karto@@@detail@archive@3@EA 	 DATA
	?m_instance@?$singleton@V?$oserializer@Vbinary_oarchive@archive@boost@@U?$pair@$$CBHPEAVObject@karto@@@std@@@detail@archive@boost@@@serialization@boost@@0PEAV?$oserializer@Vbinary_oarchive@archive@boost@@U?$pair@$$CBHPEAVObject@karto@@@std@@@detail@archive@3@EA 	 DATA
	?m_instance@?$singleton@V?$oserializer@Vbinary_oarchive@archive@boost@@U?$pair@$$CBV?$basic_string@DU?$char_traits@D@std@@V?$allocator@D@2@@std@@PEAVAbstractParameter@karto@@@std@@@detail@archive@boost@@@serialization@boost@@0PEAV?$oserializer@Vbinary_oarchive@archive@boost@@U?$pair@$$CBV?$basic_string@DU?$char_traits@D@std@@V?$allocator@D@2@@std@@PEAVAbstractParameter@karto@@@std@@@detail@archive@3@EA 	 DATA
	?m_instance@?$singleton@V?$oserializer@Vbinary_oarchive@archive@boost@@U?$pair@$$CBVName@karto@@PEAVSensor@2@@std@@@detail@archive@boost@@@serialization@boost@@0PEAV?$oserializer@Vbinary_oarchive@archive@boost@@U?$pair@$$CBVName@karto@@PEAVSensor@2@@std@@@detail@archive@3@EA 	 DATA
	?m_instance@?$singleton@V?$oserializer@Vbinary_oarchive@archive@boost@@V?$Parameter@V?$basic_string@DU?$char_traits@D@std@@V?$allocator@D@2@@std@@@karto@@@detail@archive@boost@@@serialization@boost@@0PEAV?$oserializer@Vbinary_oarchive@archive@boost@@V?$Parameter@V?$basic_string@DU?$char_traits@D@std@@V?$allocator@D@2@@std@@@karto@@@detail@archive@3@EA 	 DATA
	?m_instance@?$singleton@V?$oserializer@Vbinary_oarchive@archive@boost@@V?$map@HPEAVObject@karto@@U?$less@H@std@@V?$allocator@U?$pair@$$CBHPEAVObject@karto@@@std@@@4@@std@@@detail@archive@boost@@@serialization@boost@@0PEAV?$oserializer@Vbinary_oarchive@archive@boost@@V?$map@HPEAVObject@karto@@U?$less@H@std@@V?$allocator@U?$pair@$$CBHPEAVObject@karto@@@std@@@4@@std@@@detail@archive@3@EA 	 DATA
	?m_instance@?$singleton@V?$oserializer@Vbinary_oarchive@archive@boost@@V?$map@V?$basic_string@DU?$char_traits@D@std@@V?$allocator@D@2@@std@@PEAVAbstractParameter@karto@@U?$less@V?$basic_string@DU?$char_traits@D@std@@V?$allocator@D@2@@std@@@2@V?$allocator@U?$pair@$$CBV?$basic_string@DU?$char_traits@D@std@@V?$allocator@D@2@@std@@PEAVAbstractParameter@karto@@@std@@@2@@std@@@detail@archive@boost@@@serialization@boost@@0PEAV?$oserializer@Vbinary_oarchive@archive@boost@@V?$map@V?$basic_string@DU?$char_traits@D@std@@V?$allocator@D@2@@std@@PEAVAbstractParameter@karto@@U?$less@V?$basic_string@DU?$char_traits@D@std@@V?$allocator@D@2@@std@@@2@V?$allocator@U?$pair@$$CBV?$basic_string@DU?$char_traits@D@std@@V?$allocator@D@2@@std@@PEAVAbstractParameter@karto@@@std@@@2@@std@@@detail@archive@3@EA 	 DATA
	?m_instance@?$singleton@V?$oserializer@Vbinary_oarchive@archive@boost@@V?$map@VName@karto@@PEAVSensor@2@U?$less@VName@karto@@@std@@V?$allocator@U?$pair@$$CBVName@karto@@PEAVSensor@2@@std@@@5@@std@@@detail@archive@boost@@@serialization@boost@@0PEAV?$oserializer@Vbinary_oarchive@archive@boost@@V?$map@VName@karto@@PEAVSensor@2@U?$less@VName@karto@@@std@@V?$allocator@U?$pair@$$CBVName@karto@@PEAVSensor@2@@std@@@5@@std@@@detail@archive@3@EA 	 DATA
	?m_instance@?$singleton@V?$oserializer@Vbinary_oarchive@archive@boost@@V?$vector@PEAVAbstractParameter@karto@@V?$allocator@PEAVAbstractParameter@karto@@@std@@@std@@@detail@archive@boost@@@serialization@boost@@0PEAV?$oserializer@Vbinary_oarchive@archive@boost@@V?$vector@PEAVAbstractParameter@karto@@V?$allocator@PEAVAbstractParameter@karto@@@std@@@std@@@detail@archive@3@EA 	 DATA
	?m_instance@?$singleton@V?$oserializer@Vbinary_oarchive@archive@boost@@V?$vector@PEAVObject@karto@@V?$allocator@PEAVObject@karto@@@std@@@std@@@detail@archive@boost@@@serialization@boost@@0PEAV?$oserializer@Vbinary_oarchive@archive@boost@@V?$vector@PEAVObject@karto@@V?$allocator@PEAVObject@karto@@@std@@@std@@@detail@archive@3@EA 	 DATA
	?m_instance@?$singleton@V?$oserializer@Vbinary_oarchive@archive@boost@@VAbstractParameter@karto@@@detail@archive@boost@@@serialization@boost@@0PEAV?$oserializer@Vbinary_oarchive@archive@boost@@VAbstractParameter@karto@@@detail@archive@3@EA 	 DATA
	?m_instance@?$singleton@V?$oserializer@Vbinary_oarchive@archive@boost@@VDataset@karto@@@detail@archive@boost@@@serialization@boost@@0PEAV?$oserializer@Vbinary_oarchive@archive@boost@@VDataset@karto@@@detail@archive@3@EA 	 DATA
	?m_instance@?$singleton@V?$oserializer@Vbinary_oarchive@archive@boost@@VDatasetInfo@karto@@@detail@archive@boost@@@serialization@boost@@0PEAV?$oserializer@Vbinary_oarchive@archive@boost@@VDatasetInfo@karto@@@detail@archive@3@EA 	 DATA
	?m_instance@?$singleton@V?$oserializer@Vbinary_oarchive@archive@boost@@VName@karto@@@detail@archive@boost@@@serialization@boost@@0PEAV?$oserializer@Vbinary_oarchive@archive@boost@@VName@karto@@@detail@archive@3@EA 	 DATA
	?m_instance@?$singleton@V?$oserializer@Vbinary_oarchive@archive@boost@@VNonCopyable@karto@@@detail@archive@boost@@@serialization@boost@@0PEAV?$oserializer@Vbinary_oarchive@archive@boost@@VNonCopyable@karto@@@detail@archive@3@EA 	 DATA
	?m_instance@?$singleton@V?$oserializer@Vbinary_oarchive@archive@boost@@VObject@karto@@@detail@archive@boost@@@serialization@boost@@0PEAV?$oserializer@Vbinary_oarchive@archive@boost@@VObject@karto@@@detail@archive@3@EA 	 DATA
	?m_instance@?$singleton@V?$oserializer@Vbinary_oarchive@archive@boost@@VParameterManager@karto@@@detail@archive@boost@@@serialization@boost@@0PEAV?$oserializer@Vbinary_oarchive@archive@boost@@VParameterManager@karto@@@detail@archive@3@EA 	 DATA
	?m_instance@?$singleton@V?$pointer_iserializer@Vbinary_iarchive@archive@boost@@VDatasetInfo@karto@@@detail@archive@boost@@@serialization@boost@@0PEAV?$pointer_iserializer@Vbinary_iarchive@archive@boost@@VDatasetInfo@karto@@@detail@archive@3@EA 	 DATA
	?m_instance@?$singleton@V?$pointer_iserializer@Vbinary_iarchive@archive@boost@@VParameterManager@karto@@@detail@archive@boost@@@serialization@boost@@0PEAV?$pointer_iserializer@Vbinary_iarchive@archive@boost@@VParameterManager@karto@@@detail@archive@3@EA 	 DATA
	?m_instance@?$singleton@V?$pointer_oserializer@Vbinary_oarchive@archive@boost@@VDatasetInfo@karto@@@detail@archive@boost@@@serialization@boost@@0PEAV?$pointer_oserializer@Vbinary_oarchive@archive@boost@@VDatasetInfo@karto@@@detail@archive@3@EA 	 DATA
	?m_instance@?$singleton@V?$pointer_oserializer@Vbinary_oarchive@archive@boost@@VParameterManager@karto@@@detail@archive@boost@@@serialization@boost@@0PEAV?$pointer_oserializer@Vbinary_oarchive@archive@boost@@VParameterManager@karto@@@detail@archive@3@EA 	 DATA
	?m_instance@?$singleton@V?$void_caster_primitive@V?$Parameter@V?$basic_string@DU?$char_traits@D@std@@V?$allocator@D@2@@std@@@karto@@VAbstractParameter@2@@void_cast_detail@serialization@boost@@@serialization@boost@@0PEAV?$void_caster_primitive@V?$Parameter@V?$basic_string@DU?$char_traits@D@std@@V?$allocator@D@2@@std@@@karto@@VAbstractParameter@2@@void_cast_detail@23@EA 	 DATA
	?m_instance@?$singleton@V?$void_caster_primitive@VDatasetInfo@karto@@VObject@2@@void_cast_detail@serialization@boost@@@serialization@boost@@0PEAV?$void_caster_primitive@VDatasetInfo@karto@@VObject@2@@void_cast_detail@23@EA 	 DATA
	?m_instance@?$singleton@V?$void_caster_primitive@VObject@karto@@VNonCopyable@2@@void_cast_detail@serialization@boost@@@serialization@boost@@0PEAV?$void_caster_primitive@VObject@karto@@VNonCopyable@2@@void_cast_detail@23@EA 	 DATA
	?m_instance@?$singleton@V?$void_caster_primitive@VParameterManager@karto@@VNonCopyable@2@@void_cast_detail@serialization@boost@@@serialization@boost@@0PEAV?$void_caster_primitive@VParameterManager@karto@@VNonCopyable@2@@void_cast_detail@23@EA 	 DATA
	?t@?1??get_instance@?$singleton@V?$archive_serializer_map@Vbinary_oarchive@archive@boost@@@detail@archive@boost@@@serialization@boost@@CAAEAV?$archive_serializer_map@Vbinary_oarchive@archive@boost@@@detail@archive@4@XZ@4V?$singleton_wrapper@V?$archive_serializer_map@Vbinary_oarchive@archive@boost@@@detail@archive@boost@@@634@A 	 DATA
	?t@?1??get_instance@?$singleton@V?$extended_type_info_typeid@U?$pair@$$CBHPEAVObject@karto@@@std@@@serialization@boost@@@serialization@boost@@CAAEAV?$extended_type_info_typeid@U?$pair@$$CBHPEAVObject@karto@@@std@@@34@XZ@4V?$singleton_wrapper@V?$extended_type_info_typeid@U?$pair@$$CBHPEAVObject@karto@@@std@@@serialization@boost@@@detail@34@A 	 DATA
	?t@?1??get_instance@?$singleton@V?$extended_type_info_typeid@U?$pair@$$CBV?$basic_string@DU?$char_traits@D@std@@V?$allocator@D@2@@std@@PEAVAbstractParameter@karto@@@std@@@serialization@boost@@@serialization@boost@@CAAEAV?$extended_type_info_typeid@U?$pair@$$CBV?$basic_string@DU?$char_traits@D@std@@V?$allocator@D@2@@std@@PEAVAbstractParameter@karto@@@std@@@34@XZ@4V?$singleton_wrapper@V?$extended_type_info_typeid@U?$pair@$$CBV?$basic_string@DU?$char_traits@D@std@@V?$allocator@D@2@@std@@PEAVAbstractParameter@karto@@@std@@@serialization@boost@@@detail@34@A 	 DATA
	?t@?1??get_instance@?$singleton@V?$extended_type_info_typeid@U?$pair@$$CBVName@karto@@PEAVSensor@2@@std@@@serialization@boost@@@serialization@boost@@CAAEAV?$extended_type_info_typeid@U?$pair@$$CBVName@karto@@PEAVSensor@2@@std@@@34@XZ@4V?$singleton_wrapper@V?$extended_type_info_typeid@U?$pair@$$CBVName@karto@@PEAVSensor@2@@std@@@serialization@boost@@@detail@34@A 	 DATA
	?t@?1??get_instance@?$singleton@V?$extended_type_info_typeid@V?$Parameter@V?$basic_string@DU?$char_traits@D@std@@V?$allocator@D@2@@std@@@karto@@@serialization@boost@@@serialization@boost@@CAAEAV?$extended_type_info_typeid@V?$Parameter@V?$basic_string@DU?$char_traits@D@std@@V?$allocator@D@2@@std@@@karto@@@34@XZ@4V?$singleton_wrapper@V?$extended_type_info_typeid@V?$Parameter@V?$basic_string@DU?$char_traits@D@std@@V?$allocator@D@2@@std@@@karto@@@serialization@boost@@@detail@34@A 	 DATA
	?t@?1??get_instance@?$singleton@V?$extended_type_info_typeid@V?$map@HPEAVObject@karto@@U?$less@H@std@@V?$allocator@U?$pair@$$CBHPEAVObject@karto@@@std@@@4@@std@@@serialization@boost@@@serialization@boost@@CAAEAV?$extended_type_info_typeid@V?$map@HPEAVObject@karto@@U?$less@H@std@@V?$allocator@U?$pair@$$CBHPEAVObject@karto@@@std@@@4@@std@@@34@XZ@4V?$singleton_wrapper@V?$extended_type_info_typeid@V?$map@HPEAVObject@karto@@U?$less@H@std@@V?$allocator@U?$pair@$$CBHPEAVObject@karto@@@std@@@4@@std@@@serialization@boost@@@detail@34@A 	 DATA
	?t@?1??get_instance@?$singleton@V?$extended_type_info_typeid@V?$map@V?$basic_string@DU?$char_traits@D@std@@V?$allocator@D@2@@std@@PEAVAbstractParameter@karto@@U?$less@V?$basic_string@DU?$char_traits@D@std@@V?$allocator@D@2@@std@@@2@V?$allocator@U?$pair@$$CBV?$basic_string@DU?$char_traits@D@std@@V?$allocator@D@2@@std@@PEAVAbstractParameter@karto@@@std@@@2@@std@@@serialization@boost@@@serialization@boost@@CAAEAV?$extended_type_info_typeid@V?$map@V?$basic_string@DU?$char_traits@D@std@@V?$allocator@D@2@@std@@PEAVAbstractParameter@karto@@U?$less@V?$basic_string@DU?$char_traits@D@std@@V?$allocator@D@2@@std@@@2@V?$allocator@U?$pair@$$CBV?$basic_string@DU?$char_traits@D@std@@V?$allocator@D@2@@std@@PEAVAbstractParameter@karto@@@std@@@2@@std@@@34@XZ@4V?$singleton_wrapper@V?$extended_type_info_typeid@V?$map@V?$basic_string@DU?$char_traits@D@std@@V?$allocator@D@2@@std@@PEAVAbstractParameter@karto@@U?$less@V?$basic_string@DU?$char_traits@D@std@@V?$allocator@D@2@@std@@@2@V?$allocator@U?$pair@$$CBV?$basic_string@DU?$char_traits@D@std@@V?$allocator@D@2@@std@@PEAVAbstractParameter@karto@@@std@@@2@@std@@@serialization@boost@@@detail@34@A 	 DATA
	?t@?1??get_instance@?$singleton@V?$extended_type_info_typeid@V?$map@VName@karto@@PEAVSensor@2@U?$less@VName@karto@@@std@@V?$allocator@U?$pair@$$CBVName@karto@@PEAVSensor@2@@std@@@5@@std@@@serialization@boost@@@serialization@boost@@CAAEAV?$extended_type_info_typeid@V?$map@VName@karto@@PEAVSensor@2@U?$less@VName@karto@@@std@@V?$allocator@U?$pair@$$CBVName@karto@@PEAVSensor@2@@std@@@5@@std@@@34@XZ@4V?$singleton_wrapper@V?$extended_type_info_typeid@V?$map@VName@karto@@PEAVSensor@2@U?$less@VName@karto@@@std@@V?$allocator@U?$pair@$$CBVName@karto@@PEAVSensor@2@@std@@@5@@std@@@serialization@boost@@@detail@34@A 	 DATA
	?t@?1??get_instance@?$singleton@V?$extended_type_info_typeid@V?$vector@PEAVAbstractParameter@karto@@V?$allocator@PEAVAbstractParameter@karto@@@std@@@std@@@serialization@boost@@@serialization@boost@@CAAEAV?$extended_type_info_typeid@V?$vector@PEAVAbstractParameter@karto@@V?$allocator@PEAVAbstractParameter@karto@@@std@@@std@@@34@XZ@4V?$singleton_wrapper@V?$extended_type_info_typeid@V?$vector@PEAVAbstractParameter@karto@@V?$allocator@PEAVAbstractParameter@karto@@@std@@@std@@@serialization@boost@@@detail@34@A 	 DATA
	?t@?1??get_instance@?$singleton@V?$extended_type_info_typeid@V?$vector@PEAVObject@karto@@V?$allocator@PEAVObject@karto@@@std@@@std@@@serialization@boost@@@serialization@boost@@CAAEAV?$extended_type_info_typeid@V?$vector@PEAVObject@karto@@V?$allocator@PEAVObject@karto@@@std@@@std@@@34@XZ@4V?$singleton_wrapper@V?$extended_type_info_typeid@V?$vector@PEAVObject@karto@@V?$allocator@PEAVObject@karto@@@std@@@std@@@serialization@boost@@@detail@34@A 	 DATA
	?t@?1??get_instance@?$singleton@V?$extended_type_info_typeid@VAbstractParameter@karto@@@serialization@boost@@@serialization@boost@@CAAEAV?$extended_type_info_typeid@VAbstractParameter@karto@@@34@XZ@4V?$singleton_wrapper@V?$extended_type_info_typeid@VAbstractParameter@karto@@@serialization@boost@@@detail@34@A 	 DATA
	?t@?1??get_instance@?$singleton@V?$extended_type_info_typeid@VDataset@karto@@@serialization@boost@@@serialization@boost@@CAAEAV?$extended_type_info_typeid@VDataset@karto@@@34@XZ@4V?$singleton_wrapper@V?$extended_type_info_typeid@VDataset@karto@@@serialization@boost@@@detail@34@A 	 DATA
	?t@?1??get_instance@?$singleton@V?$extended_type_info_typeid@VDatasetInfo@karto@@@serialization@boost@@@serialization@boost@@CAAEAV?$extended_type_info_typeid@VDatasetInfo@karto@@@34@XZ@4V?$singleton_wrapper@V?$extended_type_info_typeid@VDatasetInfo@karto@@@serialization@boost@@@detail@34@A 	 DATA
	?t@?1??get_instance@?$singleton@V?$extended_type_info_typeid@VName@karto@@@serialization@boost@@@serialization@boost@@CAAEAV?$extended_type_info_typeid@VName@karto@@@34@XZ@4V?$singleton_wrapper@V?$extended_type_info_typeid@VName@karto@@@serialization@boost@@@detail@34@A 	 DATA
	?t@?1??get_instance@?$singleton@V?$extended_type_info_typeid@VNonCopyable@karto@@@serialization@boost@@@serialization@boost@@CAAEAV?$extended_type_info_typeid@VNonCopyable@karto@@@34@XZ@4V?$singleton_wrapper@V?$extended_type_info_typeid@VNonCopyable@karto@@@serialization@boost@@@detail@34@A 	 DATA
	?t@?1??get_instance@?$singleton@V?$extended_type_info_typeid@VObject@karto@@@serialization@boost@@@serialization@boost@@CAAEAV?$extended_type_info_typeid@VObject@karto@@@34@XZ@4V?$singleton_wrapper@V?$extended_type_info_typeid@VObject@karto@@@serialization@boost@@@detail@34@A 	 DATA
	?t@?1??get_instance@?$singleton@V?$extended_type_info_typeid@VParameterManager@karto@@@serialization@boost@@@serialization@boost@@CAAEAV?$extended_type_info_typeid@VParameterManager@karto@@@34@XZ@4V?$singleton_wrapper@V?$extended_type_info_typeid@VParameterManager@karto@@@serialization@boost@@@detail@34@A 	 DATA
	?t@?1??get_instance@?$singleton@V?$extended_type_info_typeid@VSensor@karto@@@serialization@boost@@@serialization@boost@@CAAEAV?$extended_type_info_typeid@VSensor@karto@@@34@XZ@4V?$singleton_wrapper@V?$extended_type_info_typeid@VSensor@karto@@@serialization@boost@@@detail@34@A 	 DATA
	?t@?1??get_instance@?$singleton@V?$iserializer@Vbinary_iarchive@archive@boost@@U?$pair@$$CBHPEAVObject@karto@@@std@@@detail@archive@boost@@@serialization@boost@@CAAEAV?$iserializer@Vbinary_iarchive@archive@boost@@U?$pair@$$CBHPEAVObject@karto@@@std@@@detail@archive@4@XZ@4V?$singleton_wrapper@V?$iserializer@Vbinary_iarchive@archive@boost@@U?$pair@$$CBHPEAVObject@karto@@@std@@@detail@archive@boost@@@634@A 	 DATA
	?t@?1??get_instance@?$singleton@V?$iserializer@Vbinary_iarchive@archive@boost@@U?$pair@$$CBV?$basic_string@DU?$char_traits@D@std@@V?$allocator@D@2@@std@@PEAVAbstractParameter@karto@@@std@@@detail@archive@boost@@@serialization@boost@@CAAEAV?$iserializer@Vbinary_iarchive@archive@boost@@U?$pair@$$CBV?$basic_string@DU?$char_traits@D@std@@V?$allocator@D@2@@std@@PEAVAbstractParameter@karto@@@std@@@detail@archive@4@XZ@4V?$singleton_wrapper@V?$iserializer@Vbinary_iarchive@archive@boost@@U?$pair@$$CBV?$basic_string@DU?$char_traits@D@std@@V?$allocator@D@2@@std@@PEAVAbstractParameter@karto@@@std@@@detail@archive@boost@@@634@A 	 DATA
	?t@?1??get_instance@?$singleton@V?$iserializer@Vbinary_iarchive@archive@boost@@U?$pair@$$CBVName@karto@@PEAVSensor@2@@std@@@detail@archive@boost@@@serialization@boost@@CAAEAV?$iserializer@Vbinary_iarchive@archive@boost@@U?$pair@$$CBVName@karto@@PEAVSensor@2@@std@@@detail@archive@4@XZ@4V?$singleton_wrapper@V?$iserializer@Vbinary_iarchive@archive@boost@@U?$pair@$$CBVName@karto@@PEAVSensor@2@@std@@@detail@archive@boost@@@634@A 	 DATA
	?t@?1??get_instance@?$singleton@V?$iserializer@Vbinary_iarchive@archive@boost@@V?$Parameter@V?$basic_string@DU?$char_traits@D@std@@V?$allocator@D@2@@std@@@karto@@@detail@archive@boost@@@serialization@boost@@CAAEAV?$iserializer@Vbinary_iarchive@archive@boost@@V?$Parameter@V?$basic_string@DU?$char_traits@D@std@@V?$allocator@D@2@@std@@@karto@@@detail@archive@4@XZ@4V?$singleton_wrapper@V?$iserializer@Vbinary_iarchive@archive@boost@@V?$Parameter@V?$basic_string@DU?$char_traits@D@std@@V?$allocator@D@2@@std@@@karto@@@detail@archive@boost@@@634@A 	 DATA
	?t@?1??get_instance@?$singleton@V?$iserializer@Vbinary_iarchive@archive@boost@@V?$map@HPEAVObject@karto@@U?$less@H@std@@V?$allocator@U?$pair@$$CBHPEAVObject@karto@@@std@@@4@@std@@@detail@archive@boost@@@serialization@boost@@CAAEAV?$iserializer@Vbinary_iarchive@archive@boost@@V?$map@HPEAVObject@karto@@U?$less@H@std@@V?$allocator@U?$pair@$$CBHPEAVObject@karto@@@std@@@4@@std@@@detail@archive@4@XZ@4V?$singleton_wrapper@V?$iserializer@Vbinary_iarchive@archive@boost@@V?$map@HPEAVObject@karto@@U?$less@H@std@@V?$allocator@U?$pair@$$CBHPEAVObject@karto@@@std@@@4@@std@@@detail@archive@boost@@@634@A 	 DATA
	?t@?1??get_instance@?$singleton@V?$iserializer@Vbinary_iarchive@archive@boost@@V?$map@V?$basic_string@DU?$char_traits@D@std@@V?$allocator@D@2@@std@@PEAVAbstractParameter@karto@@U?$less@V?$basic_string@DU?$char_traits@D@std@@V?$allocator@D@2@@std@@@2@V?$allocator@U?$pair@$$CBV?$basic_string@DU?$char_traits@D@std@@V?$allocator@D@2@@std@@PEAVAbstractParameter@karto@@@std@@@2@@std@@@detail@archive@boost@@@serialization@boost@@CAAEAV?$iserializer@Vbinary_iarchive@archive@boost@@V?$map@V?$basic_string@DU?$char_traits@D@std@@V?$allocator@D@2@@std@@PEAVAbstractParameter@karto@@U?$less@V?$basic_string@DU?$char_traits@D@std@@V?$allocator@D@2@@std@@@2@V?$allocator@U?$pair@$$CBV?$basic_string@DU?$char_traits@D@std@@V?$allocator@D@2@@std@@PEAVAbstractParameter@karto@@@std@@@2@@std@@@detail@archive@4@XZ@4V?$singleton_wrapper@V?$iserializer@Vbinary_iarchive@archive@boost@@V?$map@V?$basic_string@DU?$char_traits@D@std@@V?$allocator@D@2@@std@@PEAVAbstractParameter@karto@@U?$less@V?$basic_string@DU?$char_traits@D@std@@V?$allocator@D@2@@std@@@2@V?$allocator@U?$pair@$$CBV?$basic_string@DU?$char_traits@D@std@@V?$allocator@D@2@@std@@PEAVAbstractParameter@karto@@@std@@@2@@std@@@detail@archive@boost@@@634@A 	 DATA
	?t@?1??get_instance@?$singleton@V?$iserializer@Vbinary_iarchive@archive@boost@@V?$map@VName@karto@@PEAVSensor@2@U?$less@VName@karto@@@std@@V?$allocator@U?$pair@$$CBVName@karto@@PEAVSensor@2@@std@@@5@@std@@@detail@archive@boost@@@serialization@boost@@CAAEAV?$iserializer@Vbinary_iarchive@archive@boost@@V?$map@VName@karto@@PEAVSensor@2@U?$less@VName@karto@@@std@@V?$allocator@U?$pair@$$CBVName@karto@@PEAVSensor@2@@std@@@5@@std@@@detail@archive@4@XZ@4V?$singleton_wrapper@V?$iserializer@Vbinary_iarchive@archive@boost@@V?$map@VName@karto@@PEAVSensor@2@U?$less@VName@karto@@@std@@V?$allocator@U?$pair@$$CBVName@karto@@PEAVSensor@2@@std@@@5@@std@@@detail@archive@boost@@@634@A 	 DATA
	?t@?1??get_instance@?$singleton@V?$iserializer@Vbinary_iarchive@archive@boost@@V?$vector@PEAVAbstractParameter@karto@@V?$allocator@PEAVAbstractParameter@karto@@@std@@@std@@@detail@archive@boost@@@serialization@boost@@CAAEAV?$iserializer@Vbinary_iarchive@archive@boost@@V?$vector@PEAVAbstractParameter@karto@@V?$allocator@PEAVAbstractParameter@karto@@@std@@@std@@@detail@archive@4@XZ@4V?$singleton_wrapper@V?$iserializer@Vbinary_iarchive@archive@boost@@V?$vector@PEAVAbstractParameter@karto@@V?$allocator@PEAVAbstractParameter@karto@@@std@@@std@@@detail@archive@boost@@@634@A 	 DATA
	?t@?1??get_instance@?$singleton@V?$iserializer@Vbinary_iarchive@archive@boost@@V?$vector@PEAVObject@karto@@V?$allocator@PEAVObject@karto@@@std@@@std@@@detail@archive@boost@@@serialization@boost@@CAAEAV?$iserializer@Vbinary_iarchive@archive@boost@@V?$vector@PEAVObject@karto@@V?$allocator@PEAVObject@karto@@@std@@@std@@@detail@archive@4@XZ@4V?$singleton_wrapper@V?$iserializer@Vbinary_iarchive@archive@boost@@V?$vector@PEAVObject@karto@@V?$allocator@PEAVObject@karto@@@std@@@std@@@detail@archive@boost@@@634@A 	 DATA
	?t@?1??get_instance@?$singleton@V?$iserializer@Vbinary_iarchive@archive@boost@@VAbstractParameter@karto@@@detail@archive@boost@@@serialization@boost@@CAAEAV?$iserializer@Vbinary_iarchive@archive@boost@@VAbstractParameter@karto@@@detail@archive@4@XZ@4V?$singleton_wrapper@V?$iserializer@Vbinary_iarchive@archive@boost@@VAbstractParameter@karto@@@detail@archive@boost@@@634@A 	 DATA
	?t@?1??get_instance@?$singleton@V?$iserializer@Vbinary_iarchive@archive@boost@@VDataset@karto@@@detail@archive@boost@@@serialization@boost@@CAAEAV?$iserializer@Vbinary_iarchive@archive@boost@@VDataset@karto@@@detail@archive@4@XZ@4V?$singleton_wrapper@V?$iserializer@Vbinary_iarchive@archive@boost@@VDataset@karto@@@detail@archive@boost@@@634@A 	 DATA
	?t@?1??get_instance@?$singleton@V?$iserializer@Vbinary_iarchive@archive@boost@@VDatasetInfo@karto@@@detail@archive@boost@@@serialization@boost@@CAAEAV?$iserializer@Vbinary_iarchive@archive@boost@@VDatasetInfo@karto@@@detail@archive@4@XZ@4V?$singleton_wrapper@V?$iserializer@Vbinary_iarchive@archive@boost@@VDatasetInfo@karto@@@detail@archive@boost@@@634@A 	 DATA
	?t@?1??get_instance@?$singleton@V?$iserializer@Vbinary_iarchive@archive@boost@@VName@karto@@@detail@archive@boost@@@serialization@boost@@CAAEAV?$iserializer@Vbinary_iarchive@archive@boost@@VName@karto@@@detail@archive@4@XZ@4V?$singleton_wrapper@V?$iserializer@Vbinary_iarchive@archive@boost@@VName@karto@@@detail@archive@boost@@@634@A 	 DATA
	?t@?1??get_instance@?$singleton@V?$iserializer@Vbinary_iarchive@archive@boost@@VNonCopyable@karto@@@detail@archive@boost@@@serialization@boost@@CAAEAV?$iserializer@Vbinary_iarchive@archive@boost@@VNonCopyable@karto@@@detail@archive@4@XZ@4V?$singleton_wrapper@V?$iserializer@Vbinary_iarchive@archive@boost@@VNonCopyable@karto@@@detail@archive@boost@@@634@A 	 DATA
	?t@?1??get_instance@?$singleton@V?$iserializer@Vbinary_iarchive@archive@boost@@VObject@karto@@@detail@archive@boost@@@serialization@boost@@CAAEAV?$iserializer@Vbinary_iarchive@archive@boost@@VObject@karto@@@detail@archive@4@XZ@4V?$singleton_wrapper@V?$iserializer@Vbinary_iarchive@archive@boost@@VObject@karto@@@detail@archive@boost@@@634@A 	 DATA
	?t@?1??get_instance@?$singleton@V?$iserializer@Vbinary_iarchive@archive@boost@@VParameterManager@karto@@@detail@archive@boost@@@serialization@boost@@CAAEAV?$iserializer@Vbinary_iarchive@archive@boost@@VParameterManager@karto@@@detail@archive@4@XZ@4V?$singleton_wrapper@V?$iserializer@Vbinary_iarchive@archive@boost@@VParameterManager@karto@@@detail@archive@boost@@@634@A 	 DATA
	?t@?1??get_instance@?$singleton@V?$oserializer@Vbinary_oarchive@archive@boost@@U?$pair@$$CBHPEAVObject@karto@@@std@@@detail@archive@boost@@@serialization@boost@@CAAEAV?$oserializer@Vbinary_oarchive@archive@boost@@U?$pair@$$CBHPEAVObject@karto@@@std@@@detail@archive@4@XZ@4V?$singleton_wrapper@V?$oserializer@Vbinary_oarchive@archive@boost@@U?$pair@$$CBHPEAVObject@karto@@@std@@@detail@archive@boost@@@634@A 	 DATA
	?t@?1??get_instance@?$singleton@V?$oserializer@Vbinary_oarchive@archive@boost@@U?$pair@$$CBV?$basic_string@DU?$char_traits@D@std@@V?$allocator@D@2@@std@@PEAVAbstractParameter@karto@@@std@@@detail@archive@boost@@@serialization@boost@@CAAEAV?$oserializer@Vbinary_oarchive@archive@boost@@U?$pair@$$CBV?$basic_string@DU?$char_traits@D@std@@V?$allocator@D@2@@std@@PEAVAbstractParameter@karto@@@std@@@detail@archive@4@XZ@4V?$singleton_wrapper@V?$oserializer@Vbinary_oarchive@archive@boost@@U?$pair@$$CBV?$basic_string@DU?$char_traits@D@std@@V?$allocator@D@2@@std@@PEAVAbstractParameter@karto@@@std@@@detail@archive@boost@@@634@A 	 DATA
	?t@?1??get_instance@?$singleton@V?$oserializer@Vbinary_oarchive@archive@boost@@U?$pair@$$CBVName@karto@@PEAVSensor@2@@std@@@detail@archive@boost@@@serialization@boost@@CAAEAV?$oserializer@Vbinary_oarchive@archive@boost@@U?$pair@$$CBVName@karto@@PEAVSensor@2@@std@@@detail@archive@4@XZ@4V?$singleton_wrapper@V?$oserializer@Vbinary_oarchive@archive@boost@@U?$pair@$$CBVName@karto@@PEAVSensor@2@@std@@@detail@archive@boost@@@634@A 	 DATA
	?t@?1??get_instance@?$singleton@V?$oserializer@Vbinary_oarchive@archive@boost@@V?$Parameter@V?$basic_string@DU?$char_traits@D@std@@V?$allocator@D@2@@std@@@karto@@@detail@archive@boost@@@serialization@boost@@CAAEAV?$oserializer@Vbinary_oarchive@archive@boost@@V?$Parameter@V?$basic_string@DU?$char_traits@D@std@@V?$allocator@D@2@@std@@@karto@@@detail@archive@4@XZ@4V?$singleton_wrapper@V?$oserializer@Vbinary_oarchive@archive@boost@@V?$Parameter@V?$basic_string@DU?$char_traits@D@std@@V?$allocator@D@2@@std@@@karto@@@detail@archive@boost@@@634@A 	 DATA
	?t@?1??get_instance@?$singleton@V?$oserializer@Vbinary_oarchive@archive@boost@@V?$map@HPEAVObject@karto@@U?$less@H@std@@V?$allocator@U?$pair@$$CBHPEAVObject@karto@@@std@@@4@@std@@@detail@archive@boost@@@serialization@boost@@CAAEAV?$oserializer@Vbinary_oarchive@archive@boost@@V?$map@HPEAVObject@karto@@U?$less@H@std@@V?$allocator@U?$pair@$$CBHPEAVObject@karto@@@std@@@4@@std@@@detail@archive@4@XZ@4V?$singleton_wrapper@V?$oserializer@Vbinary_oarchive@archive@boost@@V?$map@HPEAVObject@karto@@U?$less@H@std@@V?$allocator@U?$pair@$$CBHPEAVObject@karto@@@std@@@4@@std@@@detail@archive@boost@@@634@A 	 DATA
	?t@?1??get_instance@?$singleton@V?$oserializer@Vbinary_oarchive@archive@boost@@V?$map@V?$basic_string@DU?$char_traits@D@std@@V?$allocator@D@2@@std@@PEAVAbstractParameter@karto@@U?$less@V?$basic_string@DU?$char_traits@D@std@@V?$allocator@D@2@@std@@@2@V?$allocator@U?$pair@$$CBV?$basic_string@DU?$char_traits@D@std@@V?$allocator@D@2@@std@@PEAVAbstractParameter@karto@@@std@@@2@@std@@@detail@archive@boost@@@serialization@boost@@CAAEAV?$oserializer@Vbinary_oarchive@archive@boost@@V?$map@V?$basic_string@DU?$char_traits@D@std@@V?$allocator@D@2@@std@@PEAVAbstractParameter@karto@@U?$less@V?$basic_string@DU?$char_traits@D@std@@V?$allocator@D@2@@std@@@2@V?$allocator@U?$pair@$$CBV?$basic_string@DU?$char_traits@D@std@@V?$allocator@D@2@@std@@PEAVAbstractParameter@karto@@@std@@@2@@std@@@detail@archive@4@XZ@4V?$singleton_wrapper@V?$oserializer@Vbinary_oarchive@archive@boost@@V?$map@V?$basic_string@DU?$char_traits@D@std@@V?$allocator@D@2@@std@@PEAVAbstractParameter@karto@@U?$less@V?$basic_string@DU?$char_traits@D@std@@V?$allocator@D@2@@std@@@2@V?$allocator@U?$pair@$$CBV?$basic_string@DU?$char_traits@D@std@@V?$allocator@D@2@@std@@PEAVAbstractParameter@karto@@@std@@@2@@std@@@detail@archive@boost@@@634@A 	 DATA
	?t@?1??get_instance@?$singleton@V?$oserializer@Vbinary_oarchive@archive@boost@@V?$map@VName@karto@@PEAVSensor@2@U?$less@VName@karto@@@std@@V?$allocator@U?$pair@$$CBVName@karto@@PEAVSensor@2@@std@@@5@@std@@@detail@archive@boost@@@serialization@boost@@CAAEAV?$oserializer@Vbinary_oarchive@archive@boost@@V?$map@VName@karto@@PEAVSensor@2@U?$less@VName@karto@@@std@@V?$allocator@U?$pair@$$CBVName@karto@@PEAVSensor@2@@std@@@5@@std@@@detail@archive@4@XZ@4V?$singleton_wrapper@V?$oserializer@Vbinary_oarchive@archive@boost@@V?$map@VName@karto@@PEAVSensor@2@U?$less@VName@karto@@@std@@V?$allocator@U?$pair@$$CBVName@karto@@PEAVSensor@2@@std@@@5@@std@@@detail@archive@boost@@@634@A 	 DATA
	?t@?1??get_instance@?$singleton@V?$oserializer@Vbinary_oarchive@archive@boost@@V?$vector@PEAVAbstractParameter@karto@@V?$allocator@PEAVAbstractParameter@karto@@@std@@@std@@@detail@archive@boost@@@serialization@boost@@CAAEAV?$oserializer@Vbinary_oarchive@archive@boost@@V?$vector@PEAVAbstractParameter@karto@@V?$allocator@PEAVAbstractParameter@karto@@@std@@@std@@@detail@archive@4@XZ@4V?$singleton_wrapper@V?$oserializer@Vbinary_oarchive@archive@boost@@V?$vector@PEAVAbstractParameter@karto@@V?$allocator@PEAVAbstractParameter@karto@@@std@@@std@@@detail@archive@boost@@@634@A 	 DATA
	?t@?1??get_instance@?$singleton@V?$oserializer@Vbinary_oarchive@archive@boost@@V?$vector@PEAVObject@karto@@V?$allocator@PEAVObject@karto@@@std@@@std@@@detail@archive@boost@@@serialization@boost@@CAAEAV?$oserializer@Vbinary_oarchive@archive@boost@@V?$vector@PEAVObject@karto@@V?$allocator@PEAVObject@karto@@@std@@@std@@@detail@archive@4@XZ@4V?$singleton_wrapper@V?$oserializer@Vbinary_oarchive@archive@boost@@V?$vector@PEAVObject@karto@@V?$allocator@PEAVObject@karto@@@std@@@std@@@detail@archive@boost@@@634@A 	 DATA
	?t@?1??get_instance@?$singleton@V?$oserializer@Vbinary_oarchive@archive@boost@@VAbstractParameter@karto@@@detail@archive@boost@@@serialization@boost@@CAAEAV?$oserializer@Vbinary_oarchive@archive@boost@@VAbstractParameter@karto@@@detail@archive@4@XZ@4V?$singleton_wrapper@V?$oserializer@Vbinary_oarchive@archive@boost@@VAbstractParameter@karto@@@detail@archive@boost@@@634@A 	 DATA
	?t@?1??get_instance@?$singleton@V?$oserializer@Vbinary_oarchive@archive@boost@@VDataset@karto@@@detail@archive@boost@@@serialization@boost@@CAAEAV?$oserializer@Vbinary_oarchive@archive@boost@@VDataset@karto@@@detail@archive@4@XZ@4V?$singleton_wrapper@V?$oserializer@Vbinary_oarchive@archive@boost@@VDataset@karto@@@detail@archive@boost@@@634@A 	 DATA
	?t@?1??get_instance@?$singleton@V?$oserializer@Vbinary_oarchive@archive@boost@@VDatasetInfo@karto@@@detail@archive@boost@@@serialization@boost@@CAAEAV?$oserializer@Vbinary_oarchive@archive@boost@@VDatasetInfo@karto@@@detail@archive@4@XZ@4V?$singleton_wrapper@V?$oserializer@Vbinary_oarchive@archive@boost@@VDatasetInfo@karto@@@detail@archive@boost@@@634@A 	 DATA
	?t@?1??get_instance@?$singleton@V?$oserializer@Vbinary_oarchive@archive@boost@@VName@karto@@@detail@archive@boost@@@serialization@boost@@CAAEAV?$oserializer@Vbinary_oarchive@archive@boost@@VName@karto@@@detail@archive@4@XZ@4V?$singleton_wrapper@V?$oserializer@Vbinary_oarchive@archive@boost@@VName@karto@@@detail@archive@boost@@@634@A 	 DATA
	?t@?1??get_instance@?$singleton@V?$oserializer@Vbinary_oarchive@archive@boost@@VNonCopyable@karto@@@detail@archive@boost@@@serialization@boost@@CAAEAV?$oserializer@Vbinary_oarchive@archive@boost@@VNonCopyable@karto@@@detail@archive@4@XZ@4V?$singleton_wrapper@V?$oserializer@Vbinary_oarchive@archive@boost@@VNonCopyable@karto@@@detail@archive@boost@@@634@A 	 DATA
	?t@?1??get_instance@?$singleton@V?$oserializer@Vbinary_oarchive@archive@boost@@VObject@karto@@@detail@archive@boost@@@serialization@boost@@CAAEAV?$oserializer@Vbinary_oarchive@archive@boost@@VObject@karto@@@detail@archive@4@XZ@4V?$singleton_wrapper@V?$oserializer@Vbinary_oarchive@archive@boost@@VObject@karto@@@detail@archive@boost@@@634@A 	 DATA
	?t@?1??get_instance@?$singleton@V?$oserializer@Vbinary_oarchive@archive@boost@@VParameterManager@karto@@@detail@archive@boost@@@serialization@boost@@CAAEAV?$oserializer@Vbinary_oarchive@archive@boost@@VParameterManager@karto@@@detail@archive@4@XZ@4V?$singleton_wrapper@V?$oserializer@Vbinary_oarchive@archive@boost@@VParameterManager@karto@@@detail@archive@boost@@@634@A 	 DATA
	?t@?1??get_instance@?$singleton@V?$pointer_iserializer@Vbinary_iarchive@archive@boost@@VDatasetInfo@karto@@@detail@archive@boost@@@serialization@boost@@CAAEAV?$pointer_iserializer@Vbinary_iarchive@archive@boost@@VDatasetInfo@karto@@@detail@archive@4@XZ@4V?$singleton_wrapper@V?$pointer_iserializer@Vbinary_iarchive@archive@boost@@VDatasetInfo@karto@@@detail@archive@boost@@@634@A 	 DATA
	?t@?1??get_instance@?$singleton@V?$pointer_iserializer@Vbinary_iarchive@archive@boost@@VParameterManager@karto@@@detail@archive@boost@@@serialization@boost@@CAAEAV?$pointer_iserializer@Vbinary_iarchive@archive@boost@@VParameterManager@karto@@@detail@archive@4@XZ@4V?$singleton_wrapper@V?$pointer_iserializer@Vbinary_iarchive@archive@boost@@VParameterManager@karto@@@detail@archive@boost@@@634@A 	 DATA
	?t@?1??get_instance@?$singleton@V?$pointer_oserializer@Vbinary_oarchive@archive@boost@@VDatasetInfo@karto@@@detail@archive@boost@@@serialization@boost@@CAAEAV?$pointer_oserializer@Vbinary_oarchive@archive@boost@@VDatasetInfo@karto@@@detail@archive@4@XZ@4V?$singleton_wrapper@V?$pointer_oserializer@Vbinary_oarchive@archive@boost@@VDatasetInfo@karto@@@detail@archive@boost@@@634@A 	 DATA
	?t@?1??get_instance@?$singleton@V?$pointer_oserializer@Vbinary_oarchive@archive@boost@@VParameterManager@karto@@@detail@archive@boost@@@serialization@boost@@CAAEAV?$pointer_oserializer@Vbinary_oarchive@archive@boost@@VParameterManager@karto@@@detail@archive@4@XZ@4V?$singleton_wrapper@V?$pointer_oserializer@Vbinary_oarchive@archive@boost@@VParameterManager@karto@@@detail@archive@boost@@@634@A 	 DATA
	?t@?1??get_instance@?$singleton@V?$void_caster_primitive@V?$Parameter@V?$basic_string@DU?$char_traits@D@std@@V?$allocator@D@2@@std@@@karto@@VAbstractParameter@2@@void_cast_detail@serialization@boost@@@serialization@boost@@CAAEAV?$void_caster_primitive@V?$Parameter@V?$basic_string@DU?$char_traits@D@std@@V?$allocator@D@2@@std@@@karto@@VAbstractParameter@2@@void_cast_detail@34@XZ@4V?$singleton_wrapper@V?$void_caster_primitive@V?$Parameter@V?$basic_string@DU?$char_traits@D@std@@V?$allocator@D@2@@std@@@karto@@VAbstractParameter@2@@void_cast_detail@serialization@boost@@@detail@34@A 	 DATA
	?t@?1??get_instance@?$singleton@V?$void_caster_primitive@VDatasetInfo@karto@@VObject@2@@void_cast_detail@serialization@boost@@@serialization@boost@@CAAEAV?$void_caster_primitive@VDatasetInfo@karto@@VObject@2@@void_cast_detail@34@XZ@4V?$singleton_wrapper@V?$void_caster_primitive@VDatasetInfo@karto@@VObject@2@@void_cast_detail@serialization@boost@@@detail@34@A 	 DATA
	?t@?1??get_instance@?$singleton@V?$void_caster_primitive@VObject@karto@@VNonCopyable@2@@void_cast_detail@serialization@boost@@@serialization@boost@@CAAEAV?$void_caster_primitive@VObject@karto@@VNonCopyable@2@@void_cast_detail@34@XZ@4V?$singleton_wrapper@V?$void_caster_primitive@VObject@karto@@VNonCopyable@2@@void_cast_detail@serialization@boost@@@detail@34@A 	 DATA
	?t@?1??get_instance@?$singleton@V?$void_caster_primitive@VParameterManager@karto@@VNonCopyable@2@@void_cast_detail@serialization@boost@@@serialization@boost@@CAAEAV?$void_caster_primitive@VParameterManager@karto@@VNonCopyable@2@@void_cast_detail@34@XZ@4V?$singleton_wrapper@V?$void_caster_primitive@VParameterManager@karto@@VNonCopyable@2@@void_cast_detail@serialization@boost@@@detail@34@A 	 DATA
	??$?0V?$clone_impl@Ubad_alloc_@exception_detail@boost@@@exception_detail@boost@@@shared_count@detail@boost@@QEAA@PEAV?$clone_impl@Ubad_alloc_@exception_detail@boost@@@exception_detail@2@@Z
	??$?0V?$clone_impl@Ubad_exception_@exception_detail@boost@@@exception_detail@boost@@@shared_count@detail@boost@@QEAA@PEAV?$clone_impl@Ubad_exception_@exception_detail@boost@@@exception_detail@2@@Z
	??$?5$$CBV?$nvp@PEAVAbstractParameter@karto@@@serialization@boost@@@?$interface_iarchive@Vbinary_iarchive@archive@boost@@@detail@archive@boost@@QEAAAEAVbinary_iarchive@23@AEBV?$nvp@PEAVAbstractParameter@karto@@@serialization@3@@Z
	??$?5$$CBV?$nvp@PEAVObject@karto@@@serialization@boost@@@?$interface_iarchive@Vbinary_iarchive@archive@boost@@@detail@archive@boost@@QEAAAEAVbinary_iarchive@23@AEBV?$nvp@PEAVObject@karto@@@serialization@3@@Z
	??$?5$$CBV?$nvp@Vcollection_size_type@serialization@boost@@@serialization@boost@@@?$interface_iarchive@Vbinary_iarchive@archive@boost@@@detail@archive@boost@@QEAAAEAVbinary_iarchive@23@AEBV?$nvp@Vcollection_size_type@serialization@boost@@@serialization@3@@Z
	??$?5$$CBV?$nvp@Vitem_version_type@serialization@boost@@@serialization@boost@@@?$interface_iarchive@Vbinary_iarchive@archive@boost@@@detail@archive@boost@@QEAAAEAVbinary_iarchive@23@AEBV?$nvp@Vitem_version_type@serialization@boost@@@serialization@3@@Z
	??$?5DU?$char_traits@D@std@@V?$allocator@D@1@@std@@YAAEAV?$basic_istream@DU?$char_traits@D@std@@@0@$$QEAV10@AEAV?$basic_string@DU?$char_traits@D@std@@V?$allocator@D@2@@0@@Z
	??$?5DU?$char_traits@D@std@@V?$allocator@D@1@@std@@YAAEAV?$basic_istream@DU?$char_traits@D@std@@@0@AEAV10@AEAV?$basic_string@DU?$char_traits@D@std@@V?$allocator@D@2@@0@@Z
	??$?6DU?$char_traits@D@std@@V?$allocator@D@1@@std@@YAAEAV?$basic_ostream@DU?$char_traits@D@std@@@0@AEAV10@AEBV?$basic_string@DU?$char_traits@D@std@@V?$allocator@D@2@@0@@Z
	??$?6U?$char_traits@D@std@@@std@@YAAEAV?$basic_ostream@DU?$char_traits@D@std@@@0@AEAV10@PEBD@Z
	??$?6V?$nvp@$$CBVitem_version_type@serialization@boost@@@serialization@boost@@@?$interface_oarchive@Vbinary_oarchive@archive@boost@@@detail@archive@boost@@QEAAAEAVbinary_oarchive@23@AEBV?$nvp@$$CBVitem_version_type@serialization@boost@@@serialization@3@@Z
	??$?6V?$nvp@Vcollection_size_type@serialization@boost@@@serialization@boost@@@?$interface_oarchive@Vbinary_oarchive@archive@boost@@@detail@archive@boost@@QEAAAEAVbinary_oarchive@23@AEBV?$nvp@Vcollection_size_type@serialization@boost@@@serialization@3@@Z
	??$?MDU?$char_traits@D@std@@V?$allocator@D@1@@std@@YA_NAEBV?$basic_string@DU?$char_traits@D@std@@V?$allocator@D@2@@0@0@Z
	??$_Allocate_manually_vector_aligned@U_Default_allocate_traits@std@@@std@@YAPEAX_K@Z
	??$_Atomic_address_as@JU?$_Atomic_padded@H@std@@@std@@YAPECJAEAU?$_Atomic_padded@H@0@@Z
	??$_Copy_memmove@PEAPEAVAbstractParameter@karto@@PEAPEAV12@@std@@YAPEAPEAVAbstractParameter@karto@@PEAPEAV12@00@Z
	??$_Copy_memmove@PEAPEAVObject@karto@@PEAPEAV12@@std@@YAPEAPEAVObject@karto@@PEAPEAV12@00@Z
	??$_Erase_tree@V?$allocator@U?$_Tree_node@U?$pair@$$CBHPEAVObject@karto@@@std@@PEAX@std@@@std@@@?$_Tree_val@U?$_Tree_simple_types@U?$pair@$$CBHPEAVObject@karto@@@std@@@std@@@std@@QEAAXAEAV?$allocator@U?$_Tree_node@U?$pair@$$CBHPEAVObject@karto@@@std@@PEAX@std@@@1@PEAU?$_Tree_node@U?$pair@$$CBHPEAVObject@karto@@@std@@PEAX@1@@Z
	??$_Erase_tree@V?$allocator@U?$_Tree_node@U?$pair@$$CBV?$basic_string@DU?$char_traits@D@std@@V?$allocator@D@2@@std@@PEAVAbstractParameter@karto@@@std@@PEAX@std@@@std@@@?$_Tree_val@U?$_Tree_simple_types@U?$pair@$$CBV?$basic_string@DU?$char_traits@D@std@@V?$allocator@D@2@@std@@PEAVAbstractParameter@karto@@@std@@@std@@@std@@QEAAXAEAV?$allocator@U?$_Tree_node@U?$pair@$$CBV?$basic_string@DU?$char_traits@D@std@@V?$allocator@D@2@@std@@PEAVAbstractParameter@karto@@@std@@PEAX@std@@@1@PEAU?$_Tree_node@U?$pair@$$CBV?$basic_string@DU?$char_traits@D@std@@V?$allocator@D@2@@std@@PEAVAbstractParameter@karto@@@std@@PEAX@1@@Z
	??$_Erase_tree@V?$allocator@U?$_Tree_node@U?$pair@$$CBVName@karto@@PEAVSensor@2@@std@@PEAX@std@@@std@@@?$_Tree_val@U?$_Tree_simple_types@U?$pair@$$CBVName@karto@@PEAVSensor@2@@std@@@std@@@std@@QEAAXAEAV?$allocator@U?$_Tree_node@U?$pair@$$CBVName@karto@@PEAVSensor@2@@std@@PEAX@std@@@1@PEAU?$_Tree_node@U?$pair@$$CBVName@karto@@PEAVSensor@2@@std@@PEAX@1@@Z
	??$_Find_hint@H@?$_Tree@V?$_Tmap_traits@HPEAVObject@karto@@U?$less@H@std@@V?$allocator@U?$pair@$$CBHPEAVObject@karto@@@std@@@4@$0A@@std@@@std@@IEBA?AU?$_Tree_find_hint_result@PEAU?$_Tree_node@U?$pair@$$CBHPEAVObject@karto@@@std@@PEAX@std@@@1@QEAU?$_Tree_node@U?$pair@$$CBHPEAVObject@karto@@@std@@PEAX@1@AEBH@Z
	??$_Find_hint@V?$basic_string@DU?$char_traits@D@std@@V?$allocator@D@2@@std@@@?$_Tree@V?$_Tmap_traits@V?$basic_string@DU?$char_traits@D@std@@V?$allocator@D@2@@std@@PEAVAbstractParameter@karto@@U?$less@V?$basic_string@DU?$char_traits@D@std@@V?$allocator@D@2@@std@@@2@V?$allocator@U?$pair@$$CBV?$basic_string@DU?$char_traits@D@std@@V?$allocator@D@2@@std@@PEAVAbstractParameter@karto@@@std@@@2@$0A@@std@@@std@@IEBA?AU?$_Tree_find_hint_result@PEAU?$_Tree_node@U?$pair@$$CBV?$basic_string@DU?$char_traits@D@std@@V?$allocator@D@2@@std@@PEAVAbstractParameter@karto@@@std@@PEAX@std@@@1@QEAU?$_Tree_node@U?$pair@$$CBV?$basic_string@DU?$char_traits@D@std@@V?$allocator@D@2@@std@@PEAVAbstractParameter@karto@@@std@@PEAX@1@AEBV?$basic_string@DU?$char_traits@D@std@@V?$allocator@D@2@@1@@Z
	??$_Find_hint@VName@karto@@@?$_Tree@V?$_Tmap_traits@VName@karto@@PEAVSensor@2@U?$less@VName@karto@@@std@@V?$allocator@U?$pair@$$CBVName@karto@@PEAVSensor@2@@std@@@5@$0A@@std@@@std@@IEBA?AU?$_Tree_find_hint_result@PEAU?$_Tree_node@U?$pair@$$CBVName@karto@@PEAVSensor@2@@std@@PEAX@std@@@1@QEAU?$_Tree_node@U?$pair@$$CBVName@karto@@PEAVSensor@2@@std@@PEAX@1@AEBVName@karto@@@Z
	??$_Find_lower_bound@VName@karto@@@?$_Tree@V?$_Tmap_traits@VName@karto@@PEAVSensor@2@U?$less@VName@karto@@@std@@V?$allocator@U?$pair@$$CBVName@karto@@PEAVSensor@2@@std@@@5@$0A@@std@@@std@@IEBA?AU?$_Tree_find_result@PEAU?$_Tree_node@U?$pair@$$CBVName@karto@@PEAVSensor@2@@std@@PEAX@std@@@1@AEBVName@karto@@@Z
	??$_Getvals@_W@?$time_get@DV?$istreambuf_iterator@DU?$char_traits@D@std@@@std@@@std@@IEAAX_WAEBV_Locinfo@1@@Z
	??$_Getvals@_W@?$time_get@_WV?$istreambuf_iterator@_WU?$char_traits@_W@std@@@std@@@std@@IEAAX_WAEBV_Locinfo@1@@Z
	??$_Insert_string@DU?$char_traits@D@std@@_K@std@@YAAEAV?$basic_ostream@DU?$char_traits@D@std@@@0@AEAV10@QEBD_K@Z
	??$_Maklocstr@D@std@@YAPEADPEBDPEADAEBU_Cvtvec@@@Z
	??$_Reallocate_grow_by@V<lambda_319d5e083f45f90dcdce5dce53cbb275>@@D@?$basic_string@DU?$char_traits@D@std@@V?$allocator@D@2@@std@@AEAAAEAV01@_KV<lambda_319d5e083f45f90dcdce5dce53cbb275>@@D@Z
	??$_Reallocate_grow_by@V<lambda_65e615be2a453ca0576c979606f46740>@@PEBD_K@?$basic_string@DU?$char_traits@D@std@@V?$allocator@D@2@@std@@AEAAAEAV01@_KV<lambda_65e615be2a453ca0576c979606f46740>@@PEBD_K@Z
	??$_Reallocate_grow_by@V<lambda_e1befb086ad3257e3f042a63030725f7>@@_KD@?$basic_string@DU?$char_traits@D@std@@V?$allocator@D@2@@std@@AEAAAEAV01@_KV<lambda_e1befb086ad3257e3f042a63030725f7>@@_KD@Z
	??$_Resize_reallocate@U_Value_init_tag@std@@@?$vector@PEAVAbstractParameter@karto@@V?$allocator@PEAVAbstractParameter@karto@@@std@@@std@@AEAAX_KAEBU_Value_init_tag@1@@Z
	??$_Resize_reallocate@U_Value_init_tag@std@@@?$vector@PEAVObject@karto@@V?$allocator@PEAVObject@karto@@@std@@@std@@AEAAX_KAEBU_Value_init_tag@1@@Z
	??$_Zero_range@PEAPEAVAbstractParameter@karto@@@std@@YAPEAPEAVAbstractParameter@karto@@QEAPEAV12@0@Z
	??$_Zero_range@PEAPEAVObject@karto@@@std@@YAPEAPEAVObject@karto@@QEAPEAV12@0@Z
	??$base_object@VAbstractParameter@karto@@V?$Parameter@V?$basic_string@DU?$char_traits@D@std@@V?$allocator@D@2@@std@@@2@@serialization@boost@@YAAEAVAbstractParameter@karto@@AEAV?$Parameter@V?$basic_string@DU?$char_traits@D@std@@V?$allocator@D@2@@std@@@3@@Z
	??$base_object@VNonCopyable@karto@@VObject@2@@serialization@boost@@YAAEAVNonCopyable@karto@@AEAVObject@3@@Z
	??$base_object@VNonCopyable@karto@@VParameterManager@2@@serialization@boost@@YAAEAVNonCopyable@karto@@AEAVParameterManager@3@@Z
	??$base_object@VObject@karto@@VDatasetInfo@2@@serialization@boost@@YAAEAVObject@karto@@AEAVDatasetInfo@3@@Z
	??$checked_delete@V?$clone_impl@Ubad_alloc_@exception_detail@boost@@@exception_detail@boost@@@boost@@YAXPEAV?$clone_impl@Ubad_alloc_@exception_detail@boost@@@exception_detail@0@@Z
	??$checked_delete@V?$clone_impl@Ubad_exception_@exception_detail@boost@@@exception_detail@boost@@@boost@@YAXPEAV?$clone_impl@Ubad_exception_@exception_detail@boost@@@exception_detail@0@@Z
	??$collection_load_impl@Vbinary_iarchive@archive@boost@@V?$vector@PEAVAbstractParameter@karto@@V?$allocator@PEAVAbstractParameter@karto@@@std@@@std@@@stl@serialization@boost@@YAXAEAVbinary_iarchive@archive@2@AEAV?$vector@PEAVAbstractParameter@karto@@V?$allocator@PEAVAbstractParameter@karto@@@std@@@std@@Vcollection_size_type@12@Vitem_version_type@12@@Z
	??$collection_load_impl@Vbinary_iarchive@archive@boost@@V?$vector@PEAVObject@karto@@V?$allocator@PEAVObject@karto@@@std@@@std@@@stl@serialization@boost@@YAXAEAVbinary_iarchive@archive@2@AEAV?$vector@PEAVObject@karto@@V?$allocator@PEAVObject@karto@@@std@@@std@@Vcollection_size_type@12@Vitem_version_type@12@@Z
	??$doTransform@U?$TransformStamped_@V?$allocator@X@std@@@msg@geometry_msgs@@@tf2@@YAXAEBU?$TransformStamped_@V?$allocator@X@std@@@msg@geometry_msgs@@AEAU123@0@Z
	??$factory@U?$pair@$$CBHPEAVObject@karto@@@std@@$00@serialization@boost@@YAPEAU?$pair@$$CBHPEAVObject@karto@@@std@@PEAD@Z
	??$factory@U?$pair@$$CBHPEAVObject@karto@@@std@@$01@serialization@boost@@YAPEAU?$pair@$$CBHPEAVObject@karto@@@std@@PEAD@Z
	??$factory@U?$pair@$$CBHPEAVObject@karto@@@std@@$02@serialization@boost@@YAPEAU?$pair@$$CBHPEAVObject@karto@@@std@@PEAD@Z
	??$factory@U?$pair@$$CBHPEAVObject@karto@@@std@@$03@serialization@boost@@YAPEAU?$pair@$$CBHPEAVObject@karto@@@std@@PEAD@Z
	??$factory@U?$pair@$$CBHPEAVObject@karto@@@std@@$0A@@serialization@boost@@YAPEAU?$pair@$$CBHPEAVObject@karto@@@std@@PEAD@Z
	??$factory@U?$pair@$$CBV?$basic_string@DU?$char_traits@D@std@@V?$allocator@D@2@@std@@PEAVAbstractParameter@karto@@@std@@$00@serialization@boost@@YAPEAU?$pair@$$CBV?$basic_string@DU?$char_traits@D@std@@V?$allocator@D@2@@std@@PEAVAbstractParameter@karto@@@std@@PEAD@Z
	??$factory@U?$pair@$$CBV?$basic_string@DU?$char_traits@D@std@@V?$allocator@D@2@@std@@PEAVAbstractParameter@karto@@@std@@$01@serialization@boost@@YAPEAU?$pair@$$CBV?$basic_string@DU?$char_traits@D@std@@V?$allocator@D@2@@std@@PEAVAbstractParameter@karto@@@std@@PEAD@Z
	??$factory@U?$pair@$$CBV?$basic_string@DU?$char_traits@D@std@@V?$allocator@D@2@@std@@PEAVAbstractParameter@karto@@@std@@$02@serialization@boost@@YAPEAU?$pair@$$CBV?$basic_string@DU?$char_traits@D@std@@V?$allocator@D@2@@std@@PEAVAbstractParameter@karto@@@std@@PEAD@Z
	??$factory@U?$pair@$$CBV?$basic_string@DU?$char_traits@D@std@@V?$allocator@D@2@@std@@PEAVAbstractParameter@karto@@@std@@$03@serialization@boost@@YAPEAU?$pair@$$CBV?$basic_string@DU?$char_traits@D@std@@V?$allocator@D@2@@std@@PEAVAbstractParameter@karto@@@std@@PEAD@Z
	??$factory@U?$pair@$$CBV?$basic_string@DU?$char_traits@D@std@@V?$allocator@D@2@@std@@PEAVAbstractParameter@karto@@@std@@$0A@@serialization@boost@@YAPEAU?$pair@$$CBV?$basic_string@DU?$char_traits@D@std@@V?$allocator@D@2@@std@@PEAVAbstractParameter@karto@@@std@@PEAD@Z
	??$factory@U?$pair@$$CBVName@karto@@PEAVSensor@2@@std@@$00@serialization@boost@@YAPEAU?$pair@$$CBVName@karto@@PEAVSensor@2@@std@@PEAD@Z
	??$factory@U?$pair@$$CBVName@karto@@PEAVSensor@2@@std@@$01@serialization@boost@@YAPEAU?$pair@$$CBVName@karto@@PEAVSensor@2@@std@@PEAD@Z
	??$factory@U?$pair@$$CBVName@karto@@PEAVSensor@2@@std@@$02@serialization@boost@@YAPEAU?$pair@$$CBVName@karto@@PEAVSensor@2@@std@@PEAD@Z
	??$factory@U?$pair@$$CBVName@karto@@PEAVSensor@2@@std@@$03@serialization@boost@@YAPEAU?$pair@$$CBVName@karto@@PEAVSensor@2@@std@@PEAD@Z
	??$factory@U?$pair@$$CBVName@karto@@PEAVSensor@2@@std@@$0A@@serialization@boost@@YAPEAU?$pair@$$CBVName@karto@@PEAVSensor@2@@std@@PEAD@Z
	??$factory@V?$Parameter@V?$basic_string@DU?$char_traits@D@std@@V?$allocator@D@2@@std@@@karto@@$00@serialization@boost@@YAPEAV?$Parameter@V?$basic_string@DU?$char_traits@D@std@@V?$allocator@D@2@@std@@@karto@@PEAD@Z
	??$factory@V?$Parameter@V?$basic_string@DU?$char_traits@D@std@@V?$allocator@D@2@@std@@@karto@@$01@serialization@boost@@YAPEAV?$Parameter@V?$basic_string@DU?$char_traits@D@std@@V?$allocator@D@2@@std@@@karto@@PEAD@Z
	??$factory@V?$Parameter@V?$basic_string@DU?$char_traits@D@std@@V?$allocator@D@2@@std@@@karto@@$02@serialization@boost@@YAPEAV?$Parameter@V?$basic_string@DU?$char_traits@D@std@@V?$allocator@D@2@@std@@@karto@@PEAD@Z
	??$factory@V?$Parameter@V?$basic_string@DU?$char_traits@D@std@@V?$allocator@D@2@@std@@@karto@@$03@serialization@boost@@YAPEAV?$Parameter@V?$basic_string@DU?$char_traits@D@std@@V?$allocator@D@2@@std@@@karto@@PEAD@Z
	??$factory@V?$Parameter@V?$basic_string@DU?$char_traits@D@std@@V?$allocator@D@2@@std@@@karto@@$0A@@serialization@boost@@YAPEAV?$Parameter@V?$basic_string@DU?$char_traits@D@std@@V?$allocator@D@2@@std@@@karto@@PEAD@Z
	??$factory@V?$map@HPEAVObject@karto@@U?$less@H@std@@V?$allocator@U?$pair@$$CBHPEAVObject@karto@@@std@@@4@@std@@$00@serialization@boost@@YAPEAV?$map@HPEAVObject@karto@@U?$less@H@std@@V?$allocator@U?$pair@$$CBHPEAVObject@karto@@@std@@@4@@std@@PEAD@Z
	??$factory@V?$map@HPEAVObject@karto@@U?$less@H@std@@V?$allocator@U?$pair@$$CBHPEAVObject@karto@@@std@@@4@@std@@$01@serialization@boost@@YAPEAV?$map@HPEAVObject@karto@@U?$less@H@std@@V?$allocator@U?$pair@$$CBHPEAVObject@karto@@@std@@@4@@std@@PEAD@Z
	??$factory@V?$map@HPEAVObject@karto@@U?$less@H@std@@V?$allocator@U?$pair@$$CBHPEAVObject@karto@@@std@@@4@@std@@$02@serialization@boost@@YAPEAV?$map@HPEAVObject@karto@@U?$less@H@std@@V?$allocator@U?$pair@$$CBHPEAVObject@karto@@@std@@@4@@std@@PEAD@Z
	??$factory@V?$map@HPEAVObject@karto@@U?$less@H@std@@V?$allocator@U?$pair@$$CBHPEAVObject@karto@@@std@@@4@@std@@$03@serialization@boost@@YAPEAV?$map@HPEAVObject@karto@@U?$less@H@std@@V?$allocator@U?$pair@$$CBHPEAVObject@karto@@@std@@@4@@std@@PEAD@Z
	??$factory@V?$map@HPEAVObject@karto@@U?$less@H@std@@V?$allocator@U?$pair@$$CBHPEAVObject@karto@@@std@@@4@@std@@$0A@@serialization@boost@@YAPEAV?$map@HPEAVObject@karto@@U?$less@H@std@@V?$allocator@U?$pair@$$CBHPEAVObject@karto@@@std@@@4@@std@@PEAD@Z
	??$factory@V?$map@V?$basic_string@DU?$char_traits@D@std@@V?$allocator@D@2@@std@@PEAVAbstractParameter@karto@@U?$less@V?$basic_string@DU?$char_traits@D@std@@V?$allocator@D@2@@std@@@2@V?$allocator@U?$pair@$$CBV?$basic_string@DU?$char_traits@D@std@@V?$allocator@D@2@@std@@PEAVAbstractParameter@karto@@@std@@@2@@std@@$00@serialization@boost@@YAPEAV?$map@V?$basic_string@DU?$char_traits@D@std@@V?$allocator@D@2@@std@@PEAVAbstractParameter@karto@@U?$less@V?$basic_string@DU?$char_traits@D@std@@V?$allocator@D@2@@std@@@2@V?$allocator@U?$pair@$$CBV?$basic_string@DU?$char_traits@D@std@@V?$allocator@D@2@@std@@PEAVAbstractParameter@karto@@@std@@@2@@std@@PEAD@Z
	??$factory@V?$map@V?$basic_string@DU?$char_traits@D@std@@V?$allocator@D@2@@std@@PEAVAbstractParameter@karto@@U?$less@V?$basic_string@DU?$char_traits@D@std@@V?$allocator@D@2@@std@@@2@V?$allocator@U?$pair@$$CBV?$basic_string@DU?$char_traits@D@std@@V?$allocator@D@2@@std@@PEAVAbstractParameter@karto@@@std@@@2@@std@@$01@serialization@boost@@YAPEAV?$map@V?$basic_string@DU?$char_traits@D@std@@V?$allocator@D@2@@std@@PEAVAbstractParameter@karto@@U?$less@V?$basic_string@DU?$char_traits@D@std@@V?$allocator@D@2@@std@@@2@V?$allocator@U?$pair@$$CBV?$basic_string@DU?$char_traits@D@std@@V?$allocator@D@2@@std@@PEAVAbstractParameter@karto@@@std@@@2@@std@@PEAD@Z
	??$factory@V?$map@V?$basic_string@DU?$char_traits@D@std@@V?$allocator@D@2@@std@@PEAVAbstractParameter@karto@@U?$less@V?$basic_string@DU?$char_traits@D@std@@V?$allocator@D@2@@std@@@2@V?$allocator@U?$pair@$$CBV?$basic_string@DU?$char_traits@D@std@@V?$allocator@D@2@@std@@PEAVAbstractParameter@karto@@@std@@@2@@std@@$02@serialization@boost@@YAPEAV?$map@V?$basic_string@DU?$char_traits@D@std@@V?$allocator@D@2@@std@@PEAVAbstractParameter@karto@@U?$less@V?$basic_string@DU?$char_traits@D@std@@V?$allocator@D@2@@std@@@2@V?$allocator@U?$pair@$$CBV?$basic_string@DU?$char_traits@D@std@@V?$allocator@D@2@@std@@PEAVAbstractParameter@karto@@@std@@@2@@std@@PEAD@Z
	??$factory@V?$map@V?$basic_string@DU?$char_traits@D@std@@V?$allocator@D@2@@std@@PEAVAbstractParameter@karto@@U?$less@V?$basic_string@DU?$char_traits@D@std@@V?$allocator@D@2@@std@@@2@V?$allocator@U?$pair@$$CBV?$basic_string@DU?$char_traits@D@std@@V?$allocator@D@2@@std@@PEAVAbstractParameter@karto@@@std@@@2@@std@@$03@serialization@boost@@YAPEAV?$map@V?$basic_string@DU?$char_traits@D@std@@V?$allocator@D@2@@std@@PEAVAbstractParameter@karto@@U?$less@V?$basic_string@DU?$char_traits@D@std@@V?$allocator@D@2@@std@@@2@V?$allocator@U?$pair@$$CBV?$basic_string@DU?$char_traits@D@std@@V?$allocator@D@2@@std@@PEAVAbstractParameter@karto@@@std@@@2@@std@@PEAD@Z
	??$factory@V?$map@V?$basic_string@DU?$char_traits@D@std@@V?$allocator@D@2@@std@@PEAVAbstractParameter@karto@@U?$less@V?$basic_string@DU?$char_traits@D@std@@V?$allocator@D@2@@std@@@2@V?$allocator@U?$pair@$$CBV?$basic_string@DU?$char_traits@D@std@@V?$allocator@D@2@@std@@PEAVAbstractParameter@karto@@@std@@@2@@std@@$0A@@serialization@boost@@YAPEAV?$map@V?$basic_string@DU?$char_traits@D@std@@V?$allocator@D@2@@std@@PEAVAbstractParameter@karto@@U?$less@V?$basic_string@DU?$char_traits@D@std@@V?$allocator@D@2@@std@@@2@V?$allocator@U?$pair@$$CBV?$basic_string@DU?$char_traits@D@std@@V?$allocator@D@2@@std@@PEAVAbstractParameter@karto@@@std@@@2@@std@@PEAD@Z
	??$factory@V?$map@VName@karto@@PEAVSensor@2@U?$less@VName@karto@@@std@@V?$allocator@U?$pair@$$CBVName@karto@@PEAVSensor@2@@std@@@5@@std@@$00@serialization@boost@@YAPEAV?$map@VName@karto@@PEAVSensor@2@U?$less@VName@karto@@@std@@V?$allocator@U?$pair@$$CBVName@karto@@PEAVSensor@2@@std@@@5@@std@@PEAD@Z
	??$factory@V?$map@VName@karto@@PEAVSensor@2@U?$less@VName@karto@@@std@@V?$allocator@U?$pair@$$CBVName@karto@@PEAVSensor@2@@std@@@5@@std@@$01@serialization@boost@@YAPEAV?$map@VName@karto@@PEAVSensor@2@U?$less@VName@karto@@@std@@V?$allocator@U?$pair@$$CBVName@karto@@PEAVSensor@2@@std@@@5@@std@@PEAD@Z
	??$factory@V?$map@VName@karto@@PEAVSensor@2@U?$less@VName@karto@@@std@@V?$allocator@U?$pair@$$CBVName@karto@@PEAVSensor@2@@std@@@5@@std@@$02@serialization@boost@@YAPEAV?$map@VName@karto@@PEAVSensor@2@U?$less@VName@karto@@@std@@V?$allocator@U?$pair@$$CBVName@karto@@PEAVSensor@2@@std@@@5@@std@@PEAD@Z
	??$factory@V?$map@VName@karto@@PEAVSensor@2@U?$less@VName@karto@@@std@@V?$allocator@U?$pair@$$CBVName@karto@@PEAVSensor@2@@std@@@5@@std@@$03@serialization@boost@@YAPEAV?$map@VName@karto@@PEAVSensor@2@U?$less@VName@karto@@@std@@V?$allocator@U?$pair@$$CBVName@karto@@PEAVSensor@2@@std@@@5@@std@@PEAD@Z
	??$factory@V?$map@VName@karto@@PEAVSensor@2@U?$less@VName@karto@@@std@@V?$allocator@U?$pair@$$CBVName@karto@@PEAVSensor@2@@std@@@5@@std@@$0A@@serialization@boost@@YAPEAV?$map@VName@karto@@PEAVSensor@2@U?$less@VName@karto@@@std@@V?$allocator@U?$pair@$$CBVName@karto@@PEAVSensor@2@@std@@@5@@std@@PEAD@Z
	??$factory@V?$vector@PEAVAbstractParameter@karto@@V?$allocator@PEAVAbstractParameter@karto@@@std@@@std@@$00@serialization@boost@@YAPEAV?$vector@PEAVAbstractParameter@karto@@V?$allocator@PEAVAbstractParameter@karto@@@std@@@std@@PEAD@Z
	??$factory@V?$vector@PEAVAbstractParameter@karto@@V?$allocator@PEAVAbstractParameter@karto@@@std@@@std@@$01@serialization@boost@@YAPEAV?$vector@PEAVAbstractParameter@karto@@V?$allocator@PEAVAbstractParameter@karto@@@std@@@std@@PEAD@Z
	??$factory@V?$vector@PEAVAbstractParameter@karto@@V?$allocator@PEAVAbstractParameter@karto@@@std@@@std@@$02@serialization@boost@@YAPEAV?$vector@PEAVAbstractParameter@karto@@V?$allocator@PEAVAbstractParameter@karto@@@std@@@std@@PEAD@Z
	??$factory@V?$vector@PEAVAbstractParameter@karto@@V?$allocator@PEAVAbstractParameter@karto@@@std@@@std@@$03@serialization@boost@@YAPEAV?$vector@PEAVAbstractParameter@karto@@V?$allocator@PEAVAbstractParameter@karto@@@std@@@std@@PEAD@Z
	??$factory@V?$vector@PEAVAbstractParameter@karto@@V?$allocator@PEAVAbstractParameter@karto@@@std@@@std@@$0A@@serialization@boost@@YAPEAV?$vector@PEAVAbstractParameter@karto@@V?$allocator@PEAVAbstractParameter@karto@@@std@@@std@@PEAD@Z
	??$factory@V?$vector@PEAVObject@karto@@V?$allocator@PEAVObject@karto@@@std@@@std@@$00@serialization@boost@@YAPEAV?$vector@PEAVObject@karto@@V?$allocator@PEAVObject@karto@@@std@@@std@@PEAD@Z
	??$factory@V?$vector@PEAVObject@karto@@V?$allocator@PEAVObject@karto@@@std@@@std@@$01@serialization@boost@@YAPEAV?$vector@PEAVObject@karto@@V?$allocator@PEAVObject@karto@@@std@@@std@@PEAD@Z
	??$factory@V?$vector@PEAVObject@karto@@V?$allocator@PEAVObject@karto@@@std@@@std@@$02@serialization@boost@@YAPEAV?$vector@PEAVObject@karto@@V?$allocator@PEAVObject@karto@@@std@@@std@@PEAD@Z
	??$factory@V?$vector@PEAVObject@karto@@V?$allocator@PEAVObject@karto@@@std@@@std@@$03@serialization@boost@@YAPEAV?$vector@PEAVObject@karto@@V?$allocator@PEAVObject@karto@@@std@@@std@@PEAD@Z
	??$factory@V?$vector@PEAVObject@karto@@V?$allocator@PEAVObject@karto@@@std@@@std@@$0A@@serialization@boost@@YAPEAV?$vector@PEAVObject@karto@@V?$allocator@PEAVObject@karto@@@std@@@std@@PEAD@Z
	??$factory@VAbstractParameter@karto@@$00@serialization@boost@@YAPEAVAbstractParameter@karto@@PEAD@Z
	??$factory@VAbstractParameter@karto@@$01@serialization@boost@@YAPEAVAbstractParameter@karto@@PEAD@Z
	??$factory@VAbstractParameter@karto@@$02@serialization@boost@@YAPEAVAbstractParameter@karto@@PEAD@Z
	??$factory@VAbstractParameter@karto@@$03@serialization@boost@@YAPEAVAbstractParameter@karto@@PEAD@Z
	??$factory@VAbstractParameter@karto@@$0A@@serialization@boost@@YAPEAVAbstractParameter@karto@@PEAD@Z
	??$factory@VDataset@karto@@$00@serialization@boost@@YAPEAVDataset@karto@@PEAD@Z
	??$factory@VDataset@karto@@$01@serialization@boost@@YAPEAVDataset@karto@@PEAD@Z
	??$factory@VDataset@karto@@$02@serialization@boost@@YAPEAVDataset@karto@@PEAD@Z
	??$factory@VDataset@karto@@$03@serialization@boost@@YAPEAVDataset@karto@@PEAD@Z
	??$factory@VDataset@karto@@$0A@@serialization@boost@@YAPEAVDataset@karto@@PEAD@Z
	??$factory@VDatasetInfo@karto@@$00@serialization@boost@@YAPEAVDatasetInfo@karto@@PEAD@Z
	??$factory@VDatasetInfo@karto@@$01@serialization@boost@@YAPEAVDatasetInfo@karto@@PEAD@Z
	??$factory@VDatasetInfo@karto@@$02@serialization@boost@@YAPEAVDatasetInfo@karto@@PEAD@Z
	??$factory@VDatasetInfo@karto@@$03@serialization@boost@@YAPEAVDatasetInfo@karto@@PEAD@Z
	??$factory@VDatasetInfo@karto@@$0A@@serialization@boost@@YAPEAVDatasetInfo@karto@@PEAD@Z
	??$factory@VName@karto@@$00@serialization@boost@@YAPEAVName@karto@@PEAD@Z
	??$factory@VName@karto@@$01@serialization@boost@@YAPEAVName@karto@@PEAD@Z
	??$factory@VName@karto@@$02@serialization@boost@@YAPEAVName@karto@@PEAD@Z
	??$factory@VName@karto@@$03@serialization@boost@@YAPEAVName@karto@@PEAD@Z
	??$factory@VName@karto@@$0A@@serialization@boost@@YAPEAVName@karto@@PEAD@Z
	??$factory@VNonCopyable@karto@@$00@serialization@boost@@YAPEAVNonCopyable@karto@@PEAD@Z
	??$factory@VNonCopyable@karto@@$01@serialization@boost@@YAPEAVNonCopyable@karto@@PEAD@Z
	??$factory@VNonCopyable@karto@@$02@serialization@boost@@YAPEAVNonCopyable@karto@@PEAD@Z
	??$factory@VNonCopyable@karto@@$03@serialization@boost@@YAPEAVNonCopyable@karto@@PEAD@Z
	??$factory@VNonCopyable@karto@@$0A@@serialization@boost@@YAPEAVNonCopyable@karto@@PEAD@Z
	??$factory@VObject@karto@@$00@serialization@boost@@YAPEAVObject@karto@@PEAD@Z
	??$factory@VObject@karto@@$01@serialization@boost@@YAPEAVObject@karto@@PEAD@Z
	??$factory@VObject@karto@@$02@serialization@boost@@YAPEAVObject@karto@@PEAD@Z
	??$factory@VObject@karto@@$03@serialization@boost@@YAPEAVObject@karto@@PEAD@Z
	??$factory@VObject@karto@@$0A@@serialization@boost@@YAPEAVObject@karto@@PEAD@Z
	??$factory@VParameterManager@karto@@$00@serialization@boost@@YAPEAVParameterManager@karto@@PEAD@Z
	??$factory@VParameterManager@karto@@$01@serialization@boost@@YAPEAVParameterManager@karto@@PEAD@Z
	??$factory@VParameterManager@karto@@$02@serialization@boost@@YAPEAVParameterManager@karto@@PEAD@Z
	??$factory@VParameterManager@karto@@$03@serialization@boost@@YAPEAVParameterManager@karto@@PEAD@Z
	??$factory@VParameterManager@karto@@$0A@@serialization@boost@@YAPEAVParameterManager@karto@@PEAD@Z
	??$factory@VSensor@karto@@$00@serialization@boost@@YAPEAVSensor@karto@@PEAD@Z
	??$factory@VSensor@karto@@$01@serialization@boost@@YAPEAVSensor@karto@@PEAD@Z
	??$factory@VSensor@karto@@$02@serialization@boost@@YAPEAVSensor@karto@@PEAD@Z
	??$factory@VSensor@karto@@$03@serialization@boost@@YAPEAVSensor@karto@@PEAD@Z
	??$factory@VSensor@karto@@$0A@@serialization@boost@@YAPEAVSensor@karto@@PEAD@Z
	??$getYaw@U?$Quaternion_@V?$allocator@X@std@@@msg@geometry_msgs@@@tf2@@YANAEBU?$Quaternion_@V?$allocator@X@std@@@msg@geometry_msgs@@@Z
	??$get_static_exception_object@Ubad_alloc_@exception_detail@boost@@@exception_detail@boost@@YA?AVexception_ptr@1@XZ
	??$get_static_exception_object@Ubad_exception_@exception_detail@boost@@@exception_detail@boost@@YA?AVexception_ptr@1@XZ
	??$load@Vbinary_iarchive@archive@boost@@H@serialization@boost@@YAXAEAVbinary_iarchive@archive@1@AEAV?$nvp@H@01@I@Z
	??$load@Vbinary_iarchive@archive@boost@@PEAVAbstractParameter@karto@@@serialization@boost@@YAXAEAVbinary_iarchive@archive@1@AEAV?$nvp@PEAVAbstractParameter@karto@@@01@I@Z
	??$load@Vbinary_iarchive@archive@boost@@PEAVDatasetInfo@karto@@@serialization@boost@@YAXAEAVbinary_iarchive@archive@1@AEAV?$nvp@PEAVDatasetInfo@karto@@@01@I@Z
	??$load@Vbinary_iarchive@archive@boost@@PEAVObject@karto@@@serialization@boost@@YAXAEAVbinary_iarchive@archive@1@AEAV?$nvp@PEAVObject@karto@@@01@I@Z
	??$load@Vbinary_iarchive@archive@boost@@PEAVParameterManager@karto@@@serialization@boost@@YAXAEAVbinary_iarchive@archive@1@AEAV?$nvp@PEAVParameterManager@karto@@@01@I@Z
	??$load@Vbinary_iarchive@archive@boost@@PEAVSensor@karto@@@serialization@boost@@YAXAEAVbinary_iarchive@archive@1@AEAV?$nvp@PEAVSensor@karto@@@01@I@Z
	??$load@Vbinary_iarchive@archive@boost@@U?$pair@$$CBHPEAVObject@karto@@@std@@@serialization@boost@@YAXAEAVbinary_iarchive@archive@1@AEAV?$nvp@U?$pair@$$CBHPEAVObject@karto@@@std@@@01@I@Z
	??$load@Vbinary_iarchive@archive@boost@@U?$pair@$$CBV?$basic_string@DU?$char_traits@D@std@@V?$allocator@D@2@@std@@PEAVAbstractParameter@karto@@@std@@@serialization@boost@@YAXAEAVbinary_iarchive@archive@1@AEAV?$nvp@U?$pair@$$CBV?$basic_string@DU?$char_traits@D@std@@V?$allocator@D@2@@std@@PEAVAbstractParameter@karto@@@std@@@01@I@Z
	??$load@Vbinary_iarchive@archive@boost@@U?$pair@$$CBVName@karto@@PEAVSensor@2@@std@@@serialization@boost@@YAXAEAVbinary_iarchive@archive@1@AEAV?$nvp@U?$pair@$$CBVName@karto@@PEAVSensor@2@@std@@@01@I@Z
	??$load@Vbinary_iarchive@archive@boost@@V?$Parameter@V?$basic_string@DU?$char_traits@D@std@@V?$allocator@D@2@@std@@@karto@@@serialization@boost@@YAXAEAVbinary_iarchive@archive@1@AEAV?$nvp@V?$Parameter@V?$basic_string@DU?$char_traits@D@std@@V?$allocator@D@2@@std@@@karto@@@01@I@Z
	??$load@Vbinary_iarchive@archive@boost@@V?$basic_string@DU?$char_traits@D@std@@V?$allocator@D@2@@std@@@serialization@boost@@YAXAEAVbinary_iarchive@archive@1@AEAV?$nvp@V?$basic_string@DU?$char_traits@D@std@@V?$allocator@D@2@@std@@@01@I@Z
	??$load@Vbinary_iarchive@archive@boost@@V?$map@HPEAVObject@karto@@U?$less@H@std@@V?$allocator@U?$pair@$$CBHPEAVObject@karto@@@std@@@4@@std@@@serialization@boost@@YAXAEAVbinary_iarchive@archive@1@AEAV?$nvp@V?$map@HPEAVObject@karto@@U?$less@H@std@@V?$allocator@U?$pair@$$CBHPEAVObject@karto@@@std@@@4@@std@@@01@I@Z
	??$load@Vbinary_iarchive@archive@boost@@V?$map@V?$basic_string@DU?$char_traits@D@std@@V?$allocator@D@2@@std@@PEAVAbstractParameter@karto@@U?$less@V?$basic_string@DU?$char_traits@D@std@@V?$allocator@D@2@@std@@@2@V?$allocator@U?$pair@$$CBV?$basic_string@DU?$char_traits@D@std@@V?$allocator@D@2@@std@@PEAVAbstractParameter@karto@@@std@@@2@@std@@@serialization@boost@@YAXAEAVbinary_iarchive@archive@1@AEAV?$nvp@V?$map@V?$basic_string@DU?$char_traits@D@std@@V?$allocator@D@2@@std@@PEAVAbstractParameter@karto@@U?$less@V?$basic_string@DU?$char_traits@D@std@@V?$allocator@D@2@@std@@@2@V?$allocator@U?$pair@$$CBV?$basic_string@DU?$char_traits@D@std@@V?$allocator@D@2@@std@@PEAVAbstractParameter@karto@@@std@@@2@@std@@@01@I@Z
	??$load@Vbinary_iarchive@archive@boost@@V?$map@VName@karto@@PEAVSensor@2@U?$less@VName@karto@@@std@@V?$allocator@U?$pair@$$CBVName@karto@@PEAVSensor@2@@std@@@5@@std@@@serialization@boost@@YAXAEAVbinary_iarchive@archive@1@AEAV?$nvp@V?$map@VName@karto@@PEAVSensor@2@U?$less@VName@karto@@@std@@V?$allocator@U?$pair@$$CBVName@karto@@PEAVSensor@2@@std@@@5@@std@@@01@I@Z
	??$load@Vbinary_iarchive@archive@boost@@V?$vector@PEAVAbstractParameter@karto@@V?$allocator@PEAVAbstractParameter@karto@@@std@@@std@@@serialization@boost@@YAXAEAVbinary_iarchive@archive@1@AEAV?$nvp@V?$vector@PEAVAbstractParameter@karto@@V?$allocator@PEAVAbstractParameter@karto@@@std@@@std@@@01@I@Z
	??$load@Vbinary_iarchive@archive@boost@@V?$vector@PEAVObject@karto@@V?$allocator@PEAVObject@karto@@@std@@@std@@@serialization@boost@@YAXAEAVbinary_iarchive@archive@1@AEAV?$nvp@V?$vector@PEAVObject@karto@@V?$allocator@PEAVObject@karto@@@std@@@std@@@01@I@Z
	??$load@Vbinary_iarchive@archive@boost@@VAbstractParameter@karto@@@serialization@boost@@YAXAEAVbinary_iarchive@archive@1@AEAV?$nvp@VAbstractParameter@karto@@@01@I@Z
	??$load@Vbinary_iarchive@archive@boost@@VDatasetInfo@karto@@@serialization@boost@@YAXAEAVbinary_iarchive@archive@1@AEAV?$nvp@VDatasetInfo@karto@@@01@I@Z
	??$load@Vbinary_iarchive@archive@boost@@VName@karto@@@serialization@boost@@YAXAEAVbinary_iarchive@archive@1@AEAV?$nvp@VName@karto@@@01@I@Z
	??$load@Vbinary_iarchive@archive@boost@@VNonCopyable@karto@@@serialization@boost@@YAXAEAVbinary_iarchive@archive@1@AEAV?$nvp@VNonCopyable@karto@@@01@I@Z
	??$load@Vbinary_iarchive@archive@boost@@VObject@karto@@@serialization@boost@@YAXAEAVbinary_iarchive@archive@1@AEAV?$nvp@VObject@karto@@@01@I@Z
	??$load@Vbinary_iarchive@archive@boost@@VParameterManager@karto@@@serialization@boost@@YAXAEAVbinary_iarchive@archive@1@AEAV?$nvp@VParameterManager@karto@@@01@I@Z
	??$load@Vbinary_iarchive@archive@boost@@Vcollection_size_type@serialization@3@@serialization@boost@@YAXAEAVbinary_iarchive@archive@1@AEAV?$nvp@Vcollection_size_type@serialization@boost@@@01@I@Z
	??$load@Vbinary_iarchive@archive@boost@@Vitem_version_type@serialization@3@@serialization@boost@@YAXAEAVbinary_iarchive@archive@1@AEAV?$nvp@Vitem_version_type@serialization@boost@@@01@I@Z
	??$load_map_collection@Vbinary_iarchive@archive@boost@@V?$map@HPEAVObject@karto@@U?$less@H@std@@V?$allocator@U?$pair@$$CBHPEAVObject@karto@@@std@@@4@@std@@@serialization@boost@@YAXAEAVbinary_iarchive@archive@1@AEAV?$map@HPEAVObject@karto@@U?$less@H@std@@V?$allocator@U?$pair@$$CBHPEAVObject@karto@@@std@@@4@@std@@@Z
	??$load_map_collection@Vbinary_iarchive@archive@boost@@V?$map@V?$basic_string@DU?$char_traits@D@std@@V?$allocator@D@2@@std@@PEAVAbstractParameter@karto@@U?$less@V?$basic_string@DU?$char_traits@D@std@@V?$allocator@D@2@@std@@@2@V?$allocator@U?$pair@$$CBV?$basic_string@DU?$char_traits@D@std@@V?$allocator@D@2@@std@@PEAVAbstractParameter@karto@@@std@@@2@@std@@@serialization@boost@@YAXAEAVbinary_iarchive@archive@1@AEAV?$map@V?$basic_string@DU?$char_traits@D@std@@V?$allocator@D@2@@std@@PEAVAbstractParameter@karto@@U?$less@V?$basic_string@DU?$char_traits@D@std@@V?$allocator@D@2@@std@@@2@V?$allocator@U?$pair@$$CBV?$basic_string@DU?$char_traits@D@std@@V?$allocator@D@2@@std@@PEAVAbstractParameter@karto@@@std@@@2@@std@@@Z
	??$load_map_collection@Vbinary_iarchive@archive@boost@@V?$map@VName@karto@@PEAVSensor@2@U?$less@VName@karto@@@std@@V?$allocator@U?$pair@$$CBVName@karto@@PEAVSensor@2@@std@@@5@@std@@@serialization@boost@@YAXAEAVbinary_iarchive@archive@1@AEAV?$map@VName@karto@@PEAVSensor@2@U?$less@VName@karto@@@std@@V?$allocator@U?$pair@$$CBVName@karto@@PEAVSensor@2@@std@@@5@@std@@@Z
	??$save@Vbinary_oarchive@archive@boost@@$$CBU?$pair@$$CBHPEAVObject@karto@@@std@@@serialization@boost@@YAXAEAVbinary_oarchive@archive@1@AEBV?$nvp@$$CBU?$pair@$$CBHPEAVObject@karto@@@std@@@01@I@Z
	??$save@Vbinary_oarchive@archive@boost@@$$CBU?$pair@$$CBV?$basic_string@DU?$char_traits@D@std@@V?$allocator@D@2@@std@@PEAVAbstractParameter@karto@@@std@@@serialization@boost@@YAXAEAVbinary_oarchive@archive@1@AEBV?$nvp@$$CBU?$pair@$$CBV?$basic_string@DU?$char_traits@D@std@@V?$allocator@D@2@@std@@PEAVAbstractParameter@karto@@@std@@@01@I@Z
	??$save@Vbinary_oarchive@archive@boost@@$$CBU?$pair@$$CBVName@karto@@PEAVSensor@2@@std@@@serialization@boost@@YAXAEAVbinary_oarchive@archive@1@AEBV?$nvp@$$CBU?$pair@$$CBVName@karto@@PEAVSensor@2@@std@@@01@I@Z
	??$save@Vbinary_oarchive@archive@boost@@$$CBVitem_version_type@serialization@3@@serialization@boost@@YAXAEAVbinary_oarchive@archive@1@AEBV?$nvp@$$CBVitem_version_type@serialization@boost@@@01@I@Z
	??$save@Vbinary_oarchive@archive@boost@@H@serialization@boost@@YAXAEAVbinary_oarchive@archive@1@AEBV?$nvp@H@01@I@Z
	??$save@Vbinary_oarchive@archive@boost@@PEAVAbstractParameter@karto@@@serialization@boost@@YAXAEAVbinary_oarchive@archive@1@AEBV?$nvp@PEAVAbstractParameter@karto@@@01@I@Z
	??$save@Vbinary_oarchive@archive@boost@@PEAVDatasetInfo@karto@@@serialization@boost@@YAXAEAVbinary_oarchive@archive@1@AEBV?$nvp@PEAVDatasetInfo@karto@@@01@I@Z
	??$save@Vbinary_oarchive@archive@boost@@PEAVObject@karto@@@serialization@boost@@YAXAEAVbinary_oarchive@archive@1@AEBV?$nvp@PEAVObject@karto@@@01@I@Z
	??$save@Vbinary_oarchive@archive@boost@@PEAVParameterManager@karto@@@serialization@boost@@YAXAEAVbinary_oarchive@archive@1@AEBV?$nvp@PEAVParameterManager@karto@@@01@I@Z
	??$save@Vbinary_oarchive@archive@boost@@PEAVSensor@karto@@@serialization@boost@@YAXAEAVbinary_oarchive@archive@1@AEBV?$nvp@PEAVSensor@karto@@@01@I@Z
	??$save@Vbinary_oarchive@archive@boost@@QEAVAbstractParameter@karto@@@serialization@boost@@YAXAEAVbinary_oarchive@archive@1@AEBV?$nvp@QEAVAbstractParameter@karto@@@01@I@Z
	??$save@Vbinary_oarchive@archive@boost@@QEAVDatasetInfo@karto@@@archive@boost@@YAXAEAVbinary_oarchive@01@AEBQEAVDatasetInfo@karto@@@Z
	??$save@Vbinary_oarchive@archive@boost@@QEAVObject@karto@@@serialization@boost@@YAXAEAVbinary_oarchive@archive@1@AEBV?$nvp@QEAVObject@karto@@@01@I@Z
	??$save@Vbinary_oarchive@archive@boost@@QEAVParameterManager@karto@@@archive@boost@@YAXAEAVbinary_oarchive@01@AEBQEAVParameterManager@karto@@@Z
	??$save@Vbinary_oarchive@archive@boost@@V?$Parameter@V?$basic_string@DU?$char_traits@D@std@@V?$allocator@D@2@@std@@@karto@@@serialization@boost@@YAXAEAVbinary_oarchive@archive@1@AEBV?$nvp@V?$Parameter@V?$basic_string@DU?$char_traits@D@std@@V?$allocator@D@2@@std@@@karto@@@01@I@Z
	??$save@Vbinary_oarchive@archive@boost@@V?$basic_string@DU?$char_traits@D@std@@V?$allocator@D@2@@std@@@serialization@boost@@YAXAEAVbinary_oarchive@archive@1@AEBV?$nvp@V?$basic_string@DU?$char_traits@D@std@@V?$allocator@D@2@@std@@@01@I@Z
	??$save@Vbinary_oarchive@archive@boost@@V?$map@HPEAVObject@karto@@U?$less@H@std@@V?$allocator@U?$pair@$$CBHPEAVObject@karto@@@std@@@4@@std@@@serialization@boost@@YAXAEAVbinary_oarchive@archive@1@AEBV?$nvp@V?$map@HPEAVObject@karto@@U?$less@H@std@@V?$allocator@U?$pair@$$CBHPEAVObject@karto@@@std@@@4@@std@@@01@I@Z
	??$save@Vbinary_oarchive@archive@boost@@V?$map@V?$basic_string@DU?$char_traits@D@std@@V?$allocator@D@2@@std@@PEAVAbstractParameter@karto@@U?$less@V?$basic_string@DU?$char_traits@D@std@@V?$allocator@D@2@@std@@@2@V?$allocator@U?$pair@$$CBV?$basic_string@DU?$char_traits@D@std@@V?$allocator@D@2@@std@@PEAVAbstractParameter@karto@@@std@@@2@@std@@@serialization@boost@@YAXAEAVbinary_oarchive@archive@1@AEBV?$nvp@V?$map@V?$basic_string@DU?$char_traits@D@std@@V?$allocator@D@2@@std@@PEAVAbstractParameter@karto@@U?$less@V?$basic_string@DU?$char_traits@D@std@@V?$allocator@D@2@@std@@@2@V?$allocator@U?$pair@$$CBV?$basic_string@DU?$char_traits@D@std@@V?$allocator@D@2@@std@@PEAVAbstractParameter@karto@@@std@@@2@@std@@@01@I@Z
	??$save@Vbinary_oarchive@archive@boost@@V?$map@VName@karto@@PEAVSensor@2@U?$less@VName@karto@@@std@@V?$allocator@U?$pair@$$CBVName@karto@@PEAVSensor@2@@std@@@5@@std@@@serialization@boost@@YAXAEAVbinary_oarchive@archive@1@AEBV?$nvp@V?$map@VName@karto@@PEAVSensor@2@U?$less@VName@karto@@@std@@V?$allocator@U?$pair@$$CBVName@karto@@PEAVSensor@2@@std@@@5@@std@@@01@I@Z
	??$save@Vbinary_oarchive@archive@boost@@V?$vector@PEAVAbstractParameter@karto@@V?$allocator@PEAVAbstractParameter@karto@@@std@@@std@@@serialization@boost@@YAXAEAVbinary_oarchive@archive@1@AEBV?$nvp@V?$vector@PEAVAbstractParameter@karto@@V?$allocator@PEAVAbstractParameter@karto@@@std@@@std@@@01@I@Z
	??$save@Vbinary_oarchive@archive@boost@@V?$vector@PEAVObject@karto@@V?$allocator@PEAVObject@karto@@@std@@@std@@@serialization@boost@@YAXAEAVbinary_oarchive@archive@1@AEBV?$nvp@V?$vector@PEAVObject@karto@@V?$allocator@PEAVObject@karto@@@std@@@std@@@01@I@Z
	??$save@Vbinary_oarchive@archive@boost@@VAbstractParameter@karto@@@serialization@boost@@YAXAEAVbinary_oarchive@archive@1@AEBV?$nvp@VAbstractParameter@karto@@@01@I@Z
	??$save@Vbinary_oarchive@archive@boost@@VDatasetInfo@karto@@@serialization@boost@@YAXAEAVbinary_oarchive@archive@1@AEBV?$nvp@VDatasetInfo@karto@@@01@I@Z
	??$save@Vbinary_oarchive@archive@boost@@VName@karto@@@serialization@boost@@YAXAEAVbinary_oarchive@archive@1@AEBV?$nvp@VName@karto@@@01@I@Z
	??$save@Vbinary_oarchive@archive@boost@@VNonCopyable@karto@@@serialization@boost@@YAXAEAVbinary_oarchive@archive@1@AEBV?$nvp@VNonCopyable@karto@@@01@I@Z
	??$save@Vbinary_oarchive@archive@boost@@VObject@karto@@@serialization@boost@@YAXAEAVbinary_oarchive@archive@1@AEBV?$nvp@VObject@karto@@@01@I@Z
	??$save@Vbinary_oarchive@archive@boost@@VParameterManager@karto@@@serialization@boost@@YAXAEAVbinary_oarchive@archive@1@AEBV?$nvp@VParameterManager@karto@@@01@I@Z
	??$save@Vbinary_oarchive@archive@boost@@Vcollection_size_type@serialization@3@@serialization@boost@@YAXAEAVbinary_oarchive@archive@1@AEBV?$nvp@Vcollection_size_type@serialization@boost@@@01@I@Z
	??$save_override@QEAVAbstractParameter@karto@@@?$common_oarchive@Vbinary_oarchive@archive@boost@@@detail@archive@boost@@IEAAXAEBQEAVAbstractParameter@karto@@@Z
	??$save_override@QEAVObject@karto@@@?$common_oarchive@Vbinary_oarchive@archive@boost@@@detail@archive@boost@@IEAAXAEBQEAVObject@karto@@@Z
	??$save_override@QEAVSensor@karto@@@?$common_oarchive@Vbinary_oarchive@archive@boost@@@detail@archive@boost@@IEAAXAEBQEAVSensor@karto@@@Z
	??$serialize@Vbinary_iarchive@archive@boost@@@Dataset@karto@@AEAAXAEAVbinary_iarchive@archive@boost@@I@Z
	??$serialize@Vbinary_iarchive@archive@boost@@@Object@karto@@AEAAXAEAVbinary_iarchive@archive@boost@@I@Z
	??$smart_cast@PEBV?$Parameter@V?$basic_string@DU?$char_traits@D@std@@V?$allocator@D@2@@std@@@karto@@PEBVAbstractParameter@2@@serialization@boost@@YAPEBV?$Parameter@V?$basic_string@DU?$char_traits@D@std@@V?$allocator@D@2@@std@@@karto@@PEBVAbstractParameter@3@@Z
	??$smart_cast@PEBVAbstractParameter@karto@@PEBV?$Parameter@V?$basic_string@DU?$char_traits@D@std@@V?$allocator@D@2@@std@@@2@@serialization@boost@@YAPEBVAbstractParameter@karto@@PEBV?$Parameter@V?$basic_string@DU?$char_traits@D@std@@V?$allocator@D@2@@std@@@3@@Z
	??$smart_cast@PEBVDatasetInfo@karto@@PEBVObject@2@@serialization@boost@@YAPEBVDatasetInfo@karto@@PEBVObject@3@@Z
	??$smart_cast@PEBVNonCopyable@karto@@PEBVObject@2@@serialization@boost@@YAPEBVNonCopyable@karto@@PEBVObject@3@@Z
	??$smart_cast@PEBVNonCopyable@karto@@PEBVParameterManager@2@@serialization@boost@@YAPEBVNonCopyable@karto@@PEBVParameterManager@3@@Z
	??$smart_cast@PEBVObject@karto@@PEBVDatasetInfo@2@@serialization@boost@@YAPEBVObject@karto@@PEBVDatasetInfo@3@@Z
	??$smart_cast@PEBVObject@karto@@PEBVNonCopyable@2@@serialization@boost@@YAPEBVObject@karto@@PEBVNonCopyable@3@@Z
	??$smart_cast@PEBVParameterManager@karto@@PEBVNonCopyable@2@@serialization@boost@@YAPEBVParameterManager@karto@@PEBVNonCopyable@3@@Z
	??$smart_cast_reference@AEAVbasic_oarchive@detail@archive@boost@@Vbinary_oarchive@34@@serialization@boost@@YAAEAVbasic_oarchive@detail@archive@1@AEAVbinary_oarchive@41@@Z
	??$smart_cast_reference@AEAVbinary_iarchive@archive@boost@@Vbasic_iarchive@detail@23@@serialization@boost@@YAAEAVbinary_iarchive@archive@1@AEAVbasic_iarchive@detail@31@@Z
	??$smart_cast_reference@AEAVbinary_oarchive@archive@boost@@Vbasic_oarchive@detail@23@@serialization@boost@@YAAEAVbinary_oarchive@archive@1@AEAVbasic_oarchive@detail@31@@Z
	??$throw_exception@Varchive_exception@archive@boost@@@serialization@boost@@YAXAEBVarchive_exception@archive@1@@Z
	??$throw_exception@Vthread_resource_error@boost@@@boost@@YAXAEBVthread_resource_error@0@@Z
	??$transform@U?$TransformStamped_@V?$allocator@X@std@@@msg@geometry_msgs@@@BufferInterface@tf2_ros@@QEBA?AU?$TransformStamped_@V?$allocator@X@std@@@msg@geometry_msgs@@AEBU234@AEBV?$basic_string@DU?$char_traits@D@std@@V?$allocator@D@2@@std@@V?$duration@_JU?$ratio@$00$0DLJKMKAA@@std@@@chrono@6@@Z
	??$use_facet@V?$ctype@D@std@@@std@@YAAEBV?$ctype@D@0@AEBVlocale@0@@Z
	??$void_cast_register@V?$Parameter@V?$basic_string@DU?$char_traits@D@std@@V?$allocator@D@2@@std@@@karto@@VAbstractParameter@2@@serialization@boost@@YAAEBVvoid_caster@void_cast_detail@01@PEBV?$Parameter@V?$basic_string@DU?$char_traits@D@std@@V?$allocator@D@2@@std@@@karto@@PEBVAbstractParameter@5@@Z
	??$void_cast_register@VDatasetInfo@karto@@VObject@2@@serialization@boost@@YAAEBVvoid_caster@void_cast_detail@01@PEBVDatasetInfo@karto@@PEBVObject@5@@Z
	??$void_cast_register@VObject@karto@@VNonCopyable@2@@serialization@boost@@YAAEBVvoid_caster@void_cast_detail@01@PEBVObject@karto@@PEBVNonCopyable@5@@Z
	??$void_cast_register@VParameterManager@karto@@VNonCopyable@2@@serialization@boost@@YAAEBVvoid_caster@void_cast_detail@01@PEBVParameterManager@karto@@PEBVNonCopyable@5@@Z
	??0?$Parameter@V?$basic_string@DU?$char_traits@D@std@@V?$allocator@D@2@@std@@@karto@@QEAA@AEBV?$basic_string@DU?$char_traits@D@std@@V?$allocator@D@2@@std@@V23@PEAVParameterManager@1@@Z
	??0?$basic_string@DU?$char_traits@D@std@@V?$allocator@D@2@@std@@QEAA@AEBV01@@Z
	??0?$clone_impl@Ubad_alloc_@exception_detail@boost@@@exception_detail@boost@@QEAA@AEBV012@@Z
	??0?$clone_impl@Ubad_exception_@exception_detail@boost@@@exception_detail@boost@@QEAA@AEBV012@@Z
	??0?$oserializer@Vbinary_oarchive@archive@boost@@U?$pair@$$CBHPEAVObject@karto@@@std@@@detail@archive@boost@@QEAA@XZ
	??0?$oserializer@Vbinary_oarchive@archive@boost@@U?$pair@$$CBV?$basic_string@DU?$char_traits@D@std@@V?$allocator@D@2@@std@@PEAVAbstractParameter@karto@@@std@@@detail@archive@boost@@QEAA@XZ
	??0?$oserializer@Vbinary_oarchive@archive@boost@@U?$pair@$$CBVName@karto@@PEAVSensor@2@@std@@@detail@archive@boost@@QEAA@XZ
	??0?$oserializer@Vbinary_oarchive@archive@boost@@V?$Parameter@V?$basic_string@DU?$char_traits@D@std@@V?$allocator@D@2@@std@@@karto@@@detail@archive@boost@@QEAA@XZ
	??0?$oserializer@Vbinary_oarchive@archive@boost@@V?$map@HPEAVObject@karto@@U?$less@H@std@@V?$allocator@U?$pair@$$CBHPEAVObject@karto@@@std@@@4@@std@@@detail@archive@boost@@QEAA@XZ
	??0?$oserializer@Vbinary_oarchive@archive@boost@@V?$map@V?$basic_string@DU?$char_traits@D@std@@V?$allocator@D@2@@std@@PEAVAbstractParameter@karto@@U?$less@V?$basic_string@DU?$char_traits@D@std@@V?$allocator@D@2@@std@@@2@V?$allocator@U?$pair@$$CBV?$basic_string@DU?$char_traits@D@std@@V?$allocator@D@2@@std@@PEAVAbstractParameter@karto@@@std@@@2@@std@@@detail@archive@boost@@QEAA@XZ
	??0?$oserializer@Vbinary_oarchive@archive@boost@@V?$map@VName@karto@@PEAVSensor@2@U?$less@VName@karto@@@std@@V?$allocator@U?$pair@$$CBVName@karto@@PEAVSensor@2@@std@@@5@@std@@@detail@archive@boost@@QEAA@XZ
	??0?$oserializer@Vbinary_oarchive@archive@boost@@V?$vector@PEAVAbstractParameter@karto@@V?$allocator@PEAVAbstractParameter@karto@@@std@@@std@@@detail@archive@boost@@QEAA@XZ
	??0?$oserializer@Vbinary_oarchive@archive@boost@@V?$vector@PEAVObject@karto@@V?$allocator@PEAVObject@karto@@@std@@@std@@@detail@archive@boost@@QEAA@XZ
	??0?$oserializer@Vbinary_oarchive@archive@boost@@VAbstractParameter@karto@@@detail@archive@boost@@QEAA@XZ
	??0?$oserializer@Vbinary_oarchive@archive@boost@@VDataset@karto@@@detail@archive@boost@@QEAA@XZ
	??0?$oserializer@Vbinary_oarchive@archive@boost@@VDatasetInfo@karto@@@detail@archive@boost@@QEAA@XZ
	??0?$oserializer@Vbinary_oarchive@archive@boost@@VName@karto@@@detail@archive@boost@@QEAA@XZ
	??0?$oserializer@Vbinary_oarchive@archive@boost@@VNonCopyable@karto@@@detail@archive@boost@@QEAA@XZ
	??0?$oserializer@Vbinary_oarchive@archive@boost@@VObject@karto@@@detail@archive@boost@@QEAA@XZ
	??0?$oserializer@Vbinary_oarchive@archive@boost@@VParameterManager@karto@@@detail@archive@boost@@QEAA@XZ
	??0?$pointer_iserializer@Vbinary_iarchive@archive@boost@@VDatasetInfo@karto@@@detail@archive@boost@@QEAA@XZ
	??0?$pointer_iserializer@Vbinary_iarchive@archive@boost@@VParameterManager@karto@@@detail@archive@boost@@QEAA@XZ
	??0?$pointer_oserializer@Vbinary_oarchive@archive@boost@@VDatasetInfo@karto@@@detail@archive@boost@@QEAA@XZ
	??0?$pointer_oserializer@Vbinary_oarchive@archive@boost@@VParameterManager@karto@@@detail@archive@boost@@QEAA@XZ
	??0?$singleton@V?$extended_type_info_typeid@U?$pair@$$CBHPEAVObject@karto@@@std@@@serialization@boost@@@serialization@boost@@IEAA@XZ
	??0?$singleton@V?$extended_type_info_typeid@U?$pair@$$CBV?$basic_string@DU?$char_traits@D@std@@V?$allocator@D@2@@std@@PEAVAbstractParameter@karto@@@std@@@serialization@boost@@@serialization@boost@@IEAA@XZ
	??0?$singleton@V?$extended_type_info_typeid@U?$pair@$$CBVName@karto@@PEAVSensor@2@@std@@@serialization@boost@@@serialization@boost@@IEAA@XZ
	??0?$singleton@V?$extended_type_info_typeid@V?$Parameter@V?$basic_string@DU?$char_traits@D@std@@V?$allocator@D@2@@std@@@karto@@@serialization@boost@@@serialization@boost@@IEAA@XZ
	??0?$singleton@V?$extended_type_info_typeid@V?$map@HPEAVObject@karto@@U?$less@H@std@@V?$allocator@U?$pair@$$CBHPEAVObject@karto@@@std@@@4@@std@@@serialization@boost@@@serialization@boost@@IEAA@XZ
	??0?$singleton@V?$extended_type_info_typeid@V?$map@V?$basic_string@DU?$char_traits@D@std@@V?$allocator@D@2@@std@@PEAVAbstractParameter@karto@@U?$less@V?$basic_string@DU?$char_traits@D@std@@V?$allocator@D@2@@std@@@2@V?$allocator@U?$pair@$$CBV?$basic_string@DU?$char_traits@D@std@@V?$allocator@D@2@@std@@PEAVAbstractParameter@karto@@@std@@@2@@std@@@serialization@boost@@@serialization@boost@@IEAA@XZ
	??0?$singleton@V?$extended_type_info_typeid@V?$map@VName@karto@@PEAVSensor@2@U?$less@VName@karto@@@std@@V?$allocator@U?$pair@$$CBVName@karto@@PEAVSensor@2@@std@@@5@@std@@@serialization@boost@@@serialization@boost@@IEAA@XZ
	??0?$singleton@V?$extended_type_info_typeid@V?$vector@PEAVAbstractParameter@karto@@V?$allocator@PEAVAbstractParameter@karto@@@std@@@std@@@serialization@boost@@@serialization@boost@@IEAA@XZ
	??0?$singleton@V?$extended_type_info_typeid@V?$vector@PEAVObject@karto@@V?$allocator@PEAVObject@karto@@@std@@@std@@@serialization@boost@@@serialization@boost@@IEAA@XZ
	??0?$singleton@V?$extended_type_info_typeid@VAbstractParameter@karto@@@serialization@boost@@@serialization@boost@@IEAA@XZ
	??0?$singleton@V?$extended_type_info_typeid@VDataset@karto@@@serialization@boost@@@serialization@boost@@IEAA@XZ
	??0?$singleton@V?$extended_type_info_typeid@VDatasetInfo@karto@@@serialization@boost@@@serialization@boost@@IEAA@XZ
	??0?$singleton@V?$extended_type_info_typeid@VName@karto@@@serialization@boost@@@serialization@boost@@IEAA@XZ
	??0?$singleton@V?$extended_type_info_typeid@VNonCopyable@karto@@@serialization@boost@@@serialization@boost@@IEAA@XZ
	??0?$singleton@V?$extended_type_info_typeid@VObject@karto@@@serialization@boost@@@serialization@boost@@IEAA@XZ
	??0?$singleton@V?$extended_type_info_typeid@VParameterManager@karto@@@serialization@boost@@@serialization@boost@@IEAA@XZ
	??0?$singleton@V?$extended_type_info_typeid@VSensor@karto@@@serialization@boost@@@serialization@boost@@IEAA@XZ
	??0?$void_caster_primitive@V?$Parameter@V?$basic_string@DU?$char_traits@D@std@@V?$allocator@D@2@@std@@@karto@@VAbstractParameter@2@@void_cast_detail@serialization@boost@@QEAA@XZ
	??0?$void_caster_primitive@VDatasetInfo@karto@@VObject@2@@void_cast_detail@serialization@boost@@QEAA@XZ
	??0?$void_caster_primitive@VObject@karto@@VNonCopyable@2@@void_cast_detail@serialization@boost@@QEAA@XZ
	??0?$void_caster_primitive@VParameterManager@karto@@VNonCopyable@2@@void_cast_detail@serialization@boost@@QEAA@XZ
	??0?$wrapexcept@Vthread_resource_error@boost@@@boost@@QEAA@AEBU01@@Z
	??0?$wrapexcept@Vthread_resource_error@boost@@@boost@@QEAA@AEBVthread_resource_error@1@@Z
	??0AsynchronousSlamToolbox@slam_toolbox@@QEAA@VNodeOptions@rclcpp@@@Z
	??0DatasetInfo@karto@@QEAA@XZ
	??0bad_alloc@std@@QEAA@AEBV01@@Z
	??0bad_alloc_@exception_detail@boost@@QEAA@AEBU012@@Z
	??0bad_array_new_length@std@@QEAA@AEBV01@@Z
	??0bad_array_new_length@std@@QEAA@XZ
	??0bad_cast@std@@QEAA@AEBV01@@Z
	??0bad_cast@std@@QEAA@XZ
	??0bad_exception@std@@QEAA@AEBV01@@Z
	??0bad_exception_@exception_detail@boost@@QEAA@AEBU012@@Z
	??0clone_base@exception_detail@boost@@QEAA@AEBV012@@Z
	??0exception@boost@@QEAA@AEBV01@@Z
	??0exception@std@@QEAA@AEBV01@@Z
	??0runtime_error@std@@QEAA@AEBV01@@Z
	??0system_error@system@boost@@QEAA@AEBV012@@Z
	??0thread_exception@boost@@QEAA@AEBV01@@Z
	??0thread_resource_error@boost@@QEAA@AEBV01@@Z
	??0thread_resource_error@boost@@QEAA@XZ
	??1?$Header_@V?$allocator@X@std@@@msg@std_msgs@@QEAA@XZ
	??1?$Parameter@V?$basic_string@DU?$char_traits@D@std@@V?$allocator@D@2@@std@@@karto@@UEAA@XZ
	??1?$TransformStamped_@V?$allocator@X@std@@@msg@geometry_msgs@@QEAA@XZ
	??1?$_Alloc_construct_ptr@V?$allocator@U?$_Tree_node@U?$pair@$$CBHPEAVObject@karto@@@std@@PEAX@std@@@std@@@std@@QEAA@XZ
	??1?$_Alloc_construct_ptr@V?$allocator@U?$_Tree_node@U?$pair@$$CBV?$basic_string@DU?$char_traits@D@std@@V?$allocator@D@2@@std@@PEAVAbstractParameter@karto@@@std@@PEAX@std@@@std@@@std@@QEAA@XZ
	??1?$_Alloc_construct_ptr@V?$allocator@U?$_Tree_node@U?$pair@$$CBVName@karto@@PEAVSensor@2@@std@@PEAX@std@@@std@@@std@@QEAA@XZ
	??1?$_Tree_temp_node_alloc@V?$allocator@U?$_Tree_node@U?$pair@$$CBV?$basic_string@DU?$char_traits@D@std@@V?$allocator@D@2@@std@@PEAVAbstractParameter@karto@@@std@@PEAX@std@@@std@@@std@@QEAA@XZ
	??1?$_Tree_temp_node_alloc@V?$allocator@U?$_Tree_node@U?$pair@$$CBVName@karto@@PEAVSensor@2@@std@@PEAX@std@@@std@@@std@@QEAA@XZ
	??1?$basic_string@DU?$char_traits@D@std@@V?$allocator@D@2@@std@@QEAA@XZ
	??1?$basic_stringbuf@DU?$char_traits@D@std@@V?$allocator@D@2@@std@@UEAA@XZ
	??1?$basic_stringstream@DU?$char_traits@D@std@@V?$allocator@D@2@@std@@UEAA@XZ
	??1?$iserializer@Vbinary_iarchive@archive@boost@@U?$pair@$$CBHPEAVObject@karto@@@std@@@detail@archive@boost@@UEAA@XZ
	??1?$iserializer@Vbinary_iarchive@archive@boost@@U?$pair@$$CBV?$basic_string@DU?$char_traits@D@std@@V?$allocator@D@2@@std@@PEAVAbstractParameter@karto@@@std@@@detail@archive@boost@@UEAA@XZ
	??1?$iserializer@Vbinary_iarchive@archive@boost@@U?$pair@$$CBVName@karto@@PEAVSensor@2@@std@@@detail@archive@boost@@UEAA@XZ
	??1?$iserializer@Vbinary_iarchive@archive@boost@@V?$Parameter@V?$basic_string@DU?$char_traits@D@std@@V?$allocator@D@2@@std@@@karto@@@detail@archive@boost@@UEAA@XZ
	??1?$iserializer@Vbinary_iarchive@archive@boost@@V?$map@HPEAVObject@karto@@U?$less@H@std@@V?$allocator@U?$pair@$$CBHPEAVObject@karto@@@std@@@4@@std@@@detail@archive@boost@@UEAA@XZ
	??1?$iserializer@Vbinary_iarchive@archive@boost@@V?$map@V?$basic_string@DU?$char_traits@D@std@@V?$allocator@D@2@@std@@PEAVAbstractParameter@karto@@U?$less@V?$basic_string@DU?$char_traits@D@std@@V?$allocator@D@2@@std@@@2@V?$allocator@U?$pair@$$CBV?$basic_string@DU?$char_traits@D@std@@V?$allocator@D@2@@std@@PEAVAbstractParameter@karto@@@std@@@2@@std@@@detail@archive@boost@@UEAA@XZ
	??1?$iserializer@Vbinary_iarchive@archive@boost@@V?$map@VName@karto@@PEAVSensor@2@U?$less@VName@karto@@@std@@V?$allocator@U?$pair@$$CBVName@karto@@PEAVSensor@2@@std@@@5@@std@@@detail@archive@boost@@UEAA@XZ
	??1?$iserializer@Vbinary_iarchive@archive@boost@@V?$vector@PEAVAbstractParameter@karto@@V?$allocator@PEAVAbstractParameter@karto@@@std@@@std@@@detail@archive@boost@@UEAA@XZ
	??1?$iserializer@Vbinary_iarchive@archive@boost@@V?$vector@PEAVObject@karto@@V?$allocator@PEAVObject@karto@@@std@@@std@@@detail@archive@boost@@UEAA@XZ
	??1?$iserializer@Vbinary_iarchive@archive@boost@@VAbstractParameter@karto@@@detail@archive@boost@@UEAA@XZ
	??1?$iserializer@Vbinary_iarchive@archive@boost@@VDataset@karto@@@detail@archive@boost@@UEAA@XZ
	??1?$iserializer@Vbinary_iarchive@archive@boost@@VDatasetInfo@karto@@@detail@archive@boost@@UEAA@XZ
	??1?$iserializer@Vbinary_iarchive@archive@boost@@VName@karto@@@detail@archive@boost@@UEAA@XZ
	??1?$iserializer@Vbinary_iarchive@archive@boost@@VNonCopyable@karto@@@detail@archive@boost@@UEAA@XZ
	??1?$iserializer@Vbinary_iarchive@archive@boost@@VObject@karto@@@detail@archive@boost@@UEAA@XZ
	??1?$iserializer@Vbinary_iarchive@archive@boost@@VParameterManager@karto@@@detail@archive@boost@@UEAA@XZ
	??1?$oserializer@Vbinary_oarchive@archive@boost@@U?$pair@$$CBHPEAVObject@karto@@@std@@@detail@archive@boost@@UEAA@XZ
	??1?$oserializer@Vbinary_oarchive@archive@boost@@U?$pair@$$CBV?$basic_string@DU?$char_traits@D@std@@V?$allocator@D@2@@std@@PEAVAbstractParameter@karto@@@std@@@detail@archive@boost@@UEAA@XZ
	??1?$oserializer@Vbinary_oarchive@archive@boost@@U?$pair@$$CBVName@karto@@PEAVSensor@2@@std@@@detail@archive@boost@@UEAA@XZ
	??1?$oserializer@Vbinary_oarchive@archive@boost@@V?$Parameter@V?$basic_string@DU?$char_traits@D@std@@V?$allocator@D@2@@std@@@karto@@@detail@archive@boost@@UEAA@XZ
	??1?$oserializer@Vbinary_oarchive@archive@boost@@V?$map@HPEAVObject@karto@@U?$less@H@std@@V?$allocator@U?$pair@$$CBHPEAVObject@karto@@@std@@@4@@std@@@detail@archive@boost@@UEAA@XZ
	??1?$oserializer@Vbinary_oarchive@archive@boost@@V?$map@V?$basic_string@DU?$char_traits@D@std@@V?$allocator@D@2@@std@@PEAVAbstractParameter@karto@@U?$less@V?$basic_string@DU?$char_traits@D@std@@V?$allocator@D@2@@std@@@2@V?$allocator@U?$pair@$$CBV?$basic_string@DU?$char_traits@D@std@@V?$allocator@D@2@@std@@PEAVAbstractParameter@karto@@@std@@@2@@std@@@detail@archive@boost@@UEAA@XZ
	??1?$oserializer@Vbinary_oarchive@archive@boost@@V?$map@VName@karto@@PEAVSensor@2@U?$less@VName@karto@@@std@@V?$allocator@U?$pair@$$CBVName@karto@@PEAVSensor@2@@std@@@5@@std@@@detail@archive@boost@@UEAA@XZ
	??1?$oserializer@Vbinary_oarchive@archive@boost@@V?$vector@PEAVAbstractParameter@karto@@V?$allocator@PEAVAbstractParameter@karto@@@std@@@std@@@detail@archive@boost@@UEAA@XZ
	??1?$oserializer@Vbinary_oarchive@archive@boost@@V?$vector@PEAVObject@karto@@V?$allocator@PEAVObject@karto@@@std@@@std@@@detail@archive@boost@@UEAA@XZ
	??1?$oserializer@Vbinary_oarchive@archive@boost@@VAbstractParameter@karto@@@detail@archive@boost@@UEAA@XZ
	??1?$oserializer@Vbinary_oarchive@archive@boost@@VDataset@karto@@@detail@archive@boost@@UEAA@XZ
	??1?$oserializer@Vbinary_oarchive@archive@boost@@VDatasetInfo@karto@@@detail@archive@boost@@UEAA@XZ
	??1?$oserializer@Vbinary_oarchive@archive@boost@@VName@karto@@@detail@archive@boost@@UEAA@XZ
	??1?$oserializer@Vbinary_oarchive@archive@boost@@VNonCopyable@karto@@@detail@archive@boost@@UEAA@XZ
	??1?$oserializer@Vbinary_oarchive@archive@boost@@VObject@karto@@@detail@archive@boost@@UEAA@XZ
	??1?$oserializer@Vbinary_oarchive@archive@boost@@VParameterManager@karto@@@detail@archive@boost@@UEAA@XZ
	??1?$pointer_iserializer@Vbinary_iarchive@archive@boost@@VDatasetInfo@karto@@@detail@archive@boost@@UEAA@XZ
	??1?$pointer_iserializer@Vbinary_iarchive@archive@boost@@VParameterManager@karto@@@detail@archive@boost@@UEAA@XZ
	??1?$pointer_oserializer@Vbinary_oarchive@archive@boost@@VDatasetInfo@karto@@@detail@archive@boost@@UEAA@XZ
	??1?$pointer_oserializer@Vbinary_oarchive@archive@boost@@VParameterManager@karto@@@detail@archive@boost@@UEAA@XZ
	??1?$refcount_ptr@Uerror_info_container@exception_detail@boost@@@exception_detail@boost@@QEAA@XZ
	??1?$shared_ptr@$$CBU?$LaserScan_@V?$allocator@X@std@@@msg@sensor_msgs@@@std@@QEAA@XZ
	??1?$shared_ptr@U?$DeserializePoseGraph_Request_@V?$allocator@X@std@@@srv@slam_toolbox@@@std@@QEAA@XZ
	??1?$shared_ptr@U?$DeserializePoseGraph_Response_@V?$allocator@X@std@@@srv@slam_toolbox@@@std@@QEAA@XZ
	??1?$shared_ptr@Urmw_request_id_t@@@std@@QEAA@XZ
	??1?$stack_construct@Vbinary_iarchive@archive@boost@@U?$pair@$$CBV?$basic_string@DU?$char_traits@D@std@@V?$allocator@D@2@@std@@PEAVAbstractParameter@karto@@@std@@@detail@serialization@boost@@QEAA@XZ
	??1?$stack_construct@Vbinary_iarchive@archive@boost@@U?$pair@$$CBVName@karto@@PEAVSensor@2@@std@@@detail@serialization@boost@@QEAA@XZ
	??1?$unique_lock@Vmutex@boost@@@boost@@QEAA@XZ
	??1?$unique_ptr@V_Facet_base@std@@U?$default_delete@V_Facet_base@std@@@2@@std@@QEAA@XZ
	??1?$void_caster_primitive@V?$Parameter@V?$basic_string@DU?$char_traits@D@std@@V?$allocator@D@2@@std@@@karto@@VAbstractParameter@2@@void_cast_detail@serialization@boost@@UEAA@XZ
	??1?$void_caster_primitive@VDatasetInfo@karto@@VObject@2@@void_cast_detail@serialization@boost@@UEAA@XZ
	??1?$void_caster_primitive@VObject@karto@@VNonCopyable@2@@void_cast_detail@serialization@boost@@UEAA@XZ
	??1?$void_caster_primitive@VParameterManager@karto@@VNonCopyable@2@@void_cast_detail@serialization@boost@@UEAA@XZ
	??1?$wrapexcept@Vthread_resource_error@boost@@@boost@@UEAA@XZ
	??1AbstractParameter@karto@@UEAA@XZ
	??1DatasetInfo@karto@@UEAA@XZ
	??1Logger@rclcpp@@QEAA@XZ
	??1Name@karto@@UEAA@XZ
	??1_Sentry_base@?$basic_istream@DU?$char_traits@D@std@@@std@@QEAA@XZ
	??1_Sentry_base@?$basic_ostream@DU?$char_traits@D@std@@@std@@QEAA@XZ
	??1bad_alloc@std@@UEAA@XZ
	??1bad_alloc_@exception_detail@boost@@UEAA@XZ
	??1bad_array_new_length@std@@UEAA@XZ
	??1bad_cast@std@@UEAA@XZ
	??1bad_exception_@exception_detail@boost@@UEAA@XZ
	??1clone_base@exception_detail@boost@@UEAA@XZ
	??1deleter@?$wrapexcept@Vthread_resource_error@boost@@@boost@@QEAA@XZ
	??1exception@boost@@MEAA@XZ
	??1exception@std@@UEAA@XZ
	??1local_free@detail@system@boost@@QEAA@XZ
	??1locale@std@@QEAA@XZ
	??1runtime_error@std@@UEAA@XZ
	??1sentry@?$basic_istream@DU?$char_traits@D@std@@@std@@QEAA@XZ
	??1sentry@?$basic_ostream@DU?$char_traits@D@std@@@std@@QEAA@XZ
	??1shared_count@detail@boost@@QEAA@XZ
	??1sp_counted_base@detail@boost@@UEAA@XZ
	??1system_error@system@boost@@UEAA@XZ
	??1thread_resource_error@boost@@UEAA@XZ
	??1void_caster@void_cast_detail@serialization@boost@@UEAA@XZ
	??E?$_Tree_unchecked_const_iterator@V?$_Tree_val@U?$_Tree_simple_types@U?$pair@$$CBHPEAVObject@karto@@@std@@@std@@@std@@U_Iterator_base0@2@@std@@QEAAAEAV01@XZ
	??E?$_Tree_unchecked_const_iterator@V?$_Tree_val@U?$_Tree_simple_types@U?$pair@$$CBV?$basic_string@DU?$char_traits@D@std@@V?$allocator@D@2@@std@@PEAVAbstractParameter@karto@@@std@@@std@@@std@@U_Iterator_base0@2@@std@@QEAAAEAV01@XZ
	??E?$_Tree_unchecked_const_iterator@V?$_Tree_val@U?$_Tree_simple_types@U?$pair@$$CBVName@karto@@PEAVSensor@2@@std@@@std@@@std@@U_Iterator_base0@2@@std@@QEAAAEAV01@XZ
	??R?$less@VName@karto@@@std@@QEBA_NAEBVName@karto@@0@Z
	??_D?$basic_stringstream@DU?$char_traits@D@std@@V?$allocator@D@2@@std@@QEAAXXZ
	??_D?$clone_impl@Ubad_alloc_@exception_detail@boost@@@exception_detail@boost@@QEAAXXZ
	??_D?$clone_impl@Ubad_exception_@exception_detail@boost@@@exception_detail@boost@@QEAAXXZ
	??_Darchive_exception@archive@boost@@QEAAXXZ
	??_H@YAXPEAX_K1P6APEAX0@Z@Z
	??__Ft@?1??get_instance@?$singleton@V?$archive_serializer_map@Vbinary_oarchive@archive@boost@@@detail@archive@boost@@@serialization@boost@@CAAEAV?$archive_serializer_map@Vbinary_oarchive@archive@boost@@@detail@archive@3@XZ@YAXXZ
	??__Ft@?1??get_instance@?$singleton@V?$extended_type_info_typeid@U?$pair@$$CBHPEAVObject@karto@@@std@@@serialization@boost@@@serialization@boost@@CAAEAV?$extended_type_info_typeid@U?$pair@$$CBHPEAVObject@karto@@@std@@@23@XZ@YAXXZ
	??__Ft@?1??get_instance@?$singleton@V?$extended_type_info_typeid@U?$pair@$$CBV?$basic_string@DU?$char_traits@D@std@@V?$allocator@D@2@@std@@PEAVAbstractParameter@karto@@@std@@@serialization@boost@@@serialization@boost@@CAAEAV?$extended_type_info_typeid@U?$pair@$$CBV?$basic_string@DU?$char_traits@D@std@@V?$allocator@D@2@@std@@PEAVAbstractParameter@karto@@@std@@@23@XZ@YAXXZ
	??__Ft@?1??get_instance@?$singleton@V?$extended_type_info_typeid@U?$pair@$$CBVName@karto@@PEAVSensor@2@@std@@@serialization@boost@@@serialization@boost@@CAAEAV?$extended_type_info_typeid@U?$pair@$$CBVName@karto@@PEAVSensor@2@@std@@@23@XZ@YAXXZ
	??__Ft@?1??get_instance@?$singleton@V?$extended_type_info_typeid@V?$Parameter@V?$basic_string@DU?$char_traits@D@std@@V?$allocator@D@2@@std@@@karto@@@serialization@boost@@@serialization@boost@@CAAEAV?$extended_type_info_typeid@V?$Parameter@V?$basic_string@DU?$char_traits@D@std@@V?$allocator@D@2@@std@@@karto@@@23@XZ@YAXXZ
	??__Ft@?1??get_instance@?$singleton@V?$extended_type_info_typeid@V?$map@HPEAVObject@karto@@U?$less@H@std@@V?$allocator@U?$pair@$$CBHPEAVObject@karto@@@std@@@4@@std@@@serialization@boost@@@serialization@boost@@CAAEAV?$extended_type_info_typeid@V?$map@HPEAVObject@karto@@U?$less@H@std@@V?$allocator@U?$pair@$$CBHPEAVObject@karto@@@std@@@4@@std@@@23@XZ@YAXXZ
	??__Ft@?1??get_instance@?$singleton@V?$extended_type_info_typeid@V?$map@V?$basic_string@DU?$char_traits@D@std@@V?$allocator@D@2@@std@@PEAVAbstractParameter@karto@@U?$less@V?$basic_string@DU?$char_traits@D@std@@V?$allocator@D@2@@std@@@2@V?$allocator@U?$pair@$$CBV?$basic_string@DU?$char_traits@D@std@@V?$allocator@D@2@@std@@PEAVAbstractParameter@karto@@@std@@@2@@std@@@serialization@boost@@@serialization@boost@@CAAEAV?$extended_type_info_typeid@V?$map@V?$basic_string@DU?$char_traits@D@std@@V?$allocator@D@2@@std@@PEAVAbstractParameter@karto@@U?$less@V?$basic_string@DU?$char_traits@D@std@@V?$allocator@D@2@@std@@@2@V?$allocator@U?$pair@$$CBV?$basic_string@DU?$char_traits@D@std@@V?$allocator@D@2@@std@@PEAVAbstractParameter@karto@@@std@@@2@@std@@@23@XZ@YAXXZ
	??__Ft@?1??get_instance@?$singleton@V?$extended_type_info_typeid@V?$map@VName@karto@@PEAVSensor@2@U?$less@VName@karto@@@std@@V?$allocator@U?$pair@$$CBVName@karto@@PEAVSensor@2@@std@@@5@@std@@@serialization@boost@@@serialization@boost@@CAAEAV?$extended_type_info_typeid@V?$map@VName@karto@@PEAVSensor@2@U?$less@VName@karto@@@std@@V?$allocator@U?$pair@$$CBVName@karto@@PEAVSensor@2@@std@@@5@@std@@@23@XZ@YAXXZ
	??__Ft@?1??get_instance@?$singleton@V?$extended_type_info_typeid@V?$vector@PEAVAbstractParameter@karto@@V?$allocator@PEAVAbstractParameter@karto@@@std@@@std@@@serialization@boost@@@serialization@boost@@CAAEAV?$extended_type_info_typeid@V?$vector@PEAVAbstractParameter@karto@@V?$allocator@PEAVAbstractParameter@karto@@@std@@@std@@@23@XZ@YAXXZ
	??__Ft@?1??get_instance@?$singleton@V?$extended_type_info_typeid@V?$vector@PEAVObject@karto@@V?$allocator@PEAVObject@karto@@@std@@@std@@@serialization@boost@@@serialization@boost@@CAAEAV?$extended_type_info_typeid@V?$vector@PEAVObject@karto@@V?$allocator@PEAVObject@karto@@@std@@@std@@@23@XZ@YAXXZ
	??__Ft@?1??get_instance@?$singleton@V?$extended_type_info_typeid@VAbstractParameter@karto@@@serialization@boost@@@serialization@boost@@CAAEAV?$extended_type_info_typeid@VAbstractParameter@karto@@@23@XZ@YAXXZ
	??__Ft@?1??get_instance@?$singleton@V?$extended_type_info_typeid@VDataset@karto@@@serialization@boost@@@serialization@boost@@CAAEAV?$extended_type_info_typeid@VDataset@karto@@@23@XZ@YAXXZ
	??__Ft@?1??get_instance@?$singleton@V?$extended_type_info_typeid@VDatasetInfo@karto@@@serialization@boost@@@serialization@boost@@CAAEAV?$extended_type_info_typeid@VDatasetInfo@karto@@@23@XZ@YAXXZ
	??__Ft@?1??get_instance@?$singleton@V?$extended_type_info_typeid@VName@karto@@@serialization@boost@@@serialization@boost@@CAAEAV?$extended_type_info_typeid@VName@karto@@@23@XZ@YAXXZ
	??__Ft@?1??get_instance@?$singleton@V?$extended_type_info_typeid@VNonCopyable@karto@@@serialization@boost@@@serialization@boost@@CAAEAV?$extended_type_info_typeid@VNonCopyable@karto@@@23@XZ@YAXXZ
	??__Ft@?1??get_instance@?$singleton@V?$extended_type_info_typeid@VObject@karto@@@serialization@boost@@@serialization@boost@@CAAEAV?$extended_type_info_typeid@VObject@karto@@@23@XZ@YAXXZ
	??__Ft@?1??get_instance@?$singleton@V?$extended_type_info_typeid@VParameterManager@karto@@@serialization@boost@@@serialization@boost@@CAAEAV?$extended_type_info_typeid@VParameterManager@karto@@@23@XZ@YAXXZ
	??__Ft@?1??get_instance@?$singleton@V?$extended_type_info_typeid@VSensor@karto@@@serialization@boost@@@serialization@boost@@CAAEAV?$extended_type_info_typeid@VSensor@karto@@@23@XZ@YAXXZ
	??__Ft@?1??get_instance@?$singleton@V?$iserializer@Vbinary_iarchive@archive@boost@@U?$pair@$$CBHPEAVObject@karto@@@std@@@detail@archive@boost@@@serialization@boost@@CAAEAV?$iserializer@Vbinary_iarchive@archive@boost@@U?$pair@$$CBHPEAVObject@karto@@@std@@@detail@archive@3@XZ@YAXXZ
	??__Ft@?1??get_instance@?$singleton@V?$iserializer@Vbinary_iarchive@archive@boost@@U?$pair@$$CBV?$basic_string@DU?$char_traits@D@std@@V?$allocator@D@2@@std@@PEAVAbstractParameter@karto@@@std@@@detail@archive@boost@@@serialization@boost@@CAAEAV?$iserializer@Vbinary_iarchive@archive@boost@@U?$pair@$$CBV?$basic_string@DU?$char_traits@D@std@@V?$allocator@D@2@@std@@PEAVAbstractParameter@karto@@@std@@@detail@archive@3@XZ@YAXXZ
	??__Ft@?1??get_instance@?$singleton@V?$iserializer@Vbinary_iarchive@archive@boost@@U?$pair@$$CBVName@karto@@PEAVSensor@2@@std@@@detail@archive@boost@@@serialization@boost@@CAAEAV?$iserializer@Vbinary_iarchive@archive@boost@@U?$pair@$$CBVName@karto@@PEAVSensor@2@@std@@@detail@archive@3@XZ@YAXXZ
	??__Ft@?1??get_instance@?$singleton@V?$iserializer@Vbinary_iarchive@archive@boost@@V?$Parameter@V?$basic_string@DU?$char_traits@D@std@@V?$allocator@D@2@@std@@@karto@@@detail@archive@boost@@@serialization@boost@@CAAEAV?$iserializer@Vbinary_iarchive@archive@boost@@V?$Parameter@V?$basic_string@DU?$char_traits@D@std@@V?$allocator@D@2@@std@@@karto@@@detail@archive@3@XZ@YAXXZ
	??__Ft@?1??get_instance@?$singleton@V?$iserializer@Vbinary_iarchive@archive@boost@@V?$map@HPEAVObject@karto@@U?$less@H@std@@V?$allocator@U?$pair@$$CBHPEAVObject@karto@@@std@@@4@@std@@@detail@archive@boost@@@serialization@boost@@CAAEAV?$iserializer@Vbinary_iarchive@archive@boost@@V?$map@HPEAVObject@karto@@U?$less@H@std@@V?$allocator@U?$pair@$$CBHPEAVObject@karto@@@std@@@4@@std@@@detail@archive@3@XZ@YAXXZ
	??__Ft@?1??get_instance@?$singleton@V?$iserializer@Vbinary_iarchive@archive@boost@@V?$map@V?$basic_string@DU?$char_traits@D@std@@V?$allocator@D@2@@std@@PEAVAbstractParameter@karto@@U?$less@V?$basic_string@DU?$char_traits@D@std@@V?$allocator@D@2@@std@@@2@V?$allocator@U?$pair@$$CBV?$basic_string@DU?$char_traits@D@std@@V?$allocator@D@2@@std@@PEAVAbstractParameter@karto@@@std@@@2@@std@@@detail@archive@boost@@@serialization@boost@@CAAEAV?$iserializer@Vbinary_iarchive@archive@boost@@V?$map@V?$basic_string@DU?$char_traits@D@std@@V?$allocator@D@2@@std@@PEAVAbstractParameter@karto@@U?$less@V?$basic_string@DU?$char_traits@D@std@@V?$allocator@D@2@@std@@@2@V?$allocator@U?$pair@$$CBV?$basic_string@DU?$char_traits@D@std@@V?$allocator@D@2@@std@@PEAVAbstractParameter@karto@@@std@@@2@@std@@@detail@archive@3@XZ@YAXXZ
	??__Ft@?1??get_instance@?$singleton@V?$iserializer@Vbinary_iarchive@archive@boost@@V?$map@VName@karto@@PEAVSensor@2@U?$less@VName@karto@@@std@@V?$allocator@U?$pair@$$CBVName@karto@@PEAVSensor@2@@std@@@5@@std@@@detail@archive@boost@@@serialization@boost@@CAAEAV?$iserializer@Vbinary_iarchive@archive@boost@@V?$map@VName@karto@@PEAVSensor@2@U?$less@VName@karto@@@std@@V?$allocator@U?$pair@$$CBVName@karto@@PEAVSensor@2@@std@@@5@@std@@@detail@archive@3@XZ@YAXXZ
	??__Ft@?1??get_instance@?$singleton@V?$iserializer@Vbinary_iarchive@archive@boost@@V?$vector@PEAVAbstractParameter@karto@@V?$allocator@PEAVAbstractParameter@karto@@@std@@@std@@@detail@archive@boost@@@serialization@boost@@CAAEAV?$iserializer@Vbinary_iarchive@archive@boost@@V?$vector@PEAVAbstractParameter@karto@@V?$allocator@PEAVAbstractParameter@karto@@@std@@@std@@@detail@archive@3@XZ@YAXXZ
	??__Ft@?1??get_instance@?$singleton@V?$iserializer@Vbinary_iarchive@archive@boost@@V?$vector@PEAVObject@karto@@V?$allocator@PEAVObject@karto@@@std@@@std@@@detail@archive@boost@@@serialization@boost@@CAAEAV?$iserializer@Vbinary_iarchive@archive@boost@@V?$vector@PEAVObject@karto@@V?$allocator@PEAVObject@karto@@@std@@@std@@@detail@archive@3@XZ@YAXXZ
	??__Ft@?1??get_instance@?$singleton@V?$iserializer@Vbinary_iarchive@archive@boost@@VAbstractParameter@karto@@@detail@archive@boost@@@serialization@boost@@CAAEAV?$iserializer@Vbinary_iarchive@archive@boost@@VAbstractParameter@karto@@@detail@archive@3@XZ@YAXXZ
	??__Ft@?1??get_instance@?$singleton@V?$iserializer@Vbinary_iarchive@archive@boost@@VDataset@karto@@@detail@archive@boost@@@serialization@boost@@CAAEAV?$iserializer@Vbinary_iarchive@archive@boost@@VDataset@karto@@@detail@archive@3@XZ@YAXXZ
	??__Ft@?1??get_instance@?$singleton@V?$iserializer@Vbinary_iarchive@archive@boost@@VDatasetInfo@karto@@@detail@archive@boost@@@serialization@boost@@CAAEAV?$iserializer@Vbinary_iarchive@archive@boost@@VDatasetInfo@karto@@@detail@archive@3@XZ@YAXXZ
	??__Ft@?1??get_instance@?$singleton@V?$iserializer@Vbinary_iarchive@archive@boost@@VName@karto@@@detail@archive@boost@@@serialization@boost@@CAAEAV?$iserializer@Vbinary_iarchive@archive@boost@@VName@karto@@@detail@archive@3@XZ@YAXXZ
	??__Ft@?1??get_instance@?$singleton@V?$iserializer@Vbinary_iarchive@archive@boost@@VNonCopyable@karto@@@detail@archive@boost@@@serialization@boost@@CAAEAV?$iserializer@Vbinary_iarchive@archive@boost@@VNonCopyable@karto@@@detail@archive@3@XZ@YAXXZ
	??__Ft@?1??get_instance@?$singleton@V?$iserializer@Vbinary_iarchive@archive@boost@@VObject@karto@@@detail@archive@boost@@@serialization@boost@@CAAEAV?$iserializer@Vbinary_iarchive@archive@boost@@VObject@karto@@@detail@archive@3@XZ@YAXXZ
	??__Ft@?1??get_instance@?$singleton@V?$iserializer@Vbinary_iarchive@archive@boost@@VParameterManager@karto@@@detail@archive@boost@@@serialization@boost@@CAAEAV?$iserializer@Vbinary_iarchive@archive@boost@@VParameterManager@karto@@@detail@archive@3@XZ@YAXXZ
	??__Ft@?1??get_instance@?$singleton@V?$oserializer@Vbinary_oarchive@archive@boost@@U?$pair@$$CBHPEAVObject@karto@@@std@@@detail@archive@boost@@@serialization@boost@@CAAEAV?$oserializer@Vbinary_oarchive@archive@boost@@U?$pair@$$CBHPEAVObject@karto@@@std@@@detail@archive@3@XZ@YAXXZ
	??__Ft@?1??get_instance@?$singleton@V?$oserializer@Vbinary_oarchive@archive@boost@@U?$pair@$$CBV?$basic_string@DU?$char_traits@D@std@@V?$allocator@D@2@@std@@PEAVAbstractParameter@karto@@@std@@@detail@archive@boost@@@serialization@boost@@CAAEAV?$oserializer@Vbinary_oarchive@archive@boost@@U?$pair@$$CBV?$basic_string@DU?$char_traits@D@std@@V?$allocator@D@2@@std@@PEAVAbstractParameter@karto@@@std@@@detail@archive@3@XZ@YAXXZ
	??__Ft@?1??get_instance@?$singleton@V?$oserializer@Vbinary_oarchive@archive@boost@@U?$pair@$$CBVName@karto@@PEAVSensor@2@@std@@@detail@archive@boost@@@serialization@boost@@CAAEAV?$oserializer@Vbinary_oarchive@archive@boost@@U?$pair@$$CBVName@karto@@PEAVSensor@2@@std@@@detail@archive@3@XZ@YAXXZ
	??__Ft@?1??get_instance@?$singleton@V?$oserializer@Vbinary_oarchive@archive@boost@@V?$Parameter@V?$basic_string@DU?$char_traits@D@std@@V?$allocator@D@2@@std@@@karto@@@detail@archive@boost@@@serialization@boost@@CAAEAV?$oserializer@Vbinary_oarchive@archive@boost@@V?$Parameter@V?$basic_string@DU?$char_traits@D@std@@V?$allocator@D@2@@std@@@karto@@@detail@archive@3@XZ@YAXXZ
	??__Ft@?1??get_instance@?$singleton@V?$oserializer@Vbinary_oarchive@archive@boost@@V?$map@HPEAVObject@karto@@U?$less@H@std@@V?$allocator@U?$pair@$$CBHPEAVObject@karto@@@std@@@4@@std@@@detail@archive@boost@@@serialization@boost@@CAAEAV?$oserializer@Vbinary_oarchive@archive@boost@@V?$map@HPEAVObject@karto@@U?$less@H@std@@V?$allocator@U?$pair@$$CBHPEAVObject@karto@@@std@@@4@@std@@@detail@archive@3@XZ@YAXXZ
	??__Ft@?1??get_instance@?$singleton@V?$oserializer@Vbinary_oarchive@archive@boost@@V?$map@V?$basic_string@DU?$char_traits@D@std@@V?$allocator@D@2@@std@@PEAVAbstractParameter@karto@@U?$less@V?$basic_string@DU?$char_traits@D@std@@V?$allocator@D@2@@std@@@2@V?$allocator@U?$pair@$$CBV?$basic_string@DU?$char_traits@D@std@@V?$allocator@D@2@@std@@PEAVAbstractParameter@karto@@@std@@@2@@std@@@detail@archive@boost@@@serialization@boost@@CAAEAV?$oserializer@Vbinary_oarchive@archive@boost@@V?$map@V?$basic_string@DU?$char_traits@D@std@@V?$allocator@D@2@@std@@PEAVAbstractParameter@karto@@U?$less@V?$basic_string@DU?$char_traits@D@std@@V?$allocator@D@2@@std@@@2@V?$allocator@U?$pair@$$CBV?$basic_string@DU?$char_traits@D@std@@V?$allocator@D@2@@std@@PEAVAbstractParameter@karto@@@std@@@2@@std@@@detail@archive@3@XZ@YAXXZ
	??__Ft@?1??get_instance@?$singleton@V?$oserializer@Vbinary_oarchive@archive@boost@@V?$map@VName@karto@@PEAVSensor@2@U?$less@VName@karto@@@std@@V?$allocator@U?$pair@$$CBVName@karto@@PEAVSensor@2@@std@@@5@@std@@@detail@archive@boost@@@serialization@boost@@CAAEAV?$oserializer@Vbinary_oarchive@archive@boost@@V?$map@VName@karto@@PEAVSensor@2@U?$less@VName@karto@@@std@@V?$allocator@U?$pair@$$CBVName@karto@@PEAVSensor@2@@std@@@5@@std@@@detail@archive@3@XZ@YAXXZ
	??__Ft@?1??get_instance@?$singleton@V?$oserializer@Vbinary_oarchive@archive@boost@@V?$vector@PEAVAbstractParameter@karto@@V?$allocator@PEAVAbstractParameter@karto@@@std@@@std@@@detail@archive@boost@@@serialization@boost@@CAAEAV?$oserializer@Vbinary_oarchive@archive@boost@@V?$vector@PEAVAbstractParameter@karto@@V?$allocator@PEAVAbstractParameter@karto@@@std@@@std@@@detail@archive@3@XZ@YAXXZ
	??__Ft@?1??get_instance@?$singleton@V?$oserializer@Vbinary_oarchive@archive@boost@@V?$vector@PEAVObject@karto@@V?$allocator@PEAVObject@karto@@@std@@@std@@@detail@archive@boost@@@serialization@boost@@CAAEAV?$oserializer@Vbinary_oarchive@archive@boost@@V?$vector@PEAVObject@karto@@V?$allocator@PEAVObject@karto@@@std@@@std@@@detail@archive@3@XZ@YAXXZ
	??__Ft@?1??get_instance@?$singleton@V?$oserializer@Vbinary_oarchive@archive@boost@@VAbstractParameter@karto@@@detail@archive@boost@@@serialization@boost@@CAAEAV?$oserializer@Vbinary_oarchive@archive@boost@@VAbstractParameter@karto@@@detail@archive@3@XZ@YAXXZ
	??__Ft@?1??get_instance@?$singleton@V?$oserializer@Vbinary_oarchive@archive@boost@@VDataset@karto@@@detail@archive@boost@@@serialization@boost@@CAAEAV?$oserializer@Vbinary_oarchive@archive@boost@@VDataset@karto@@@detail@archive@3@XZ@YAXXZ
	??__Ft@?1??get_instance@?$singleton@V?$oserializer@Vbinary_oarchive@archive@boost@@VDatasetInfo@karto@@@detail@archive@boost@@@serialization@boost@@CAAEAV?$oserializer@Vbinary_oarchive@archive@boost@@VDatasetInfo@karto@@@detail@archive@3@XZ@YAXXZ
	??__Ft@?1??get_instance@?$singleton@V?$oserializer@Vbinary_oarchive@archive@boost@@VName@karto@@@detail@archive@boost@@@serialization@boost@@CAAEAV?$oserializer@Vbinary_oarchive@archive@boost@@VName@karto@@@detail@archive@3@XZ@YAXXZ
	??__Ft@?1??get_instance@?$singleton@V?$oserializer@Vbinary_oarchive@archive@boost@@VNonCopyable@karto@@@detail@archive@boost@@@serialization@boost@@CAAEAV?$oserializer@Vbinary_oarchive@archive@boost@@VNonCopyable@karto@@@detail@archive@3@XZ@YAXXZ
	??__Ft@?1??get_instance@?$singleton@V?$oserializer@Vbinary_oarchive@archive@boost@@VObject@karto@@@detail@archive@boost@@@serialization@boost@@CAAEAV?$oserializer@Vbinary_oarchive@archive@boost@@VObject@karto@@@detail@archive@3@XZ@YAXXZ
	??__Ft@?1??get_instance@?$singleton@V?$oserializer@Vbinary_oarchive@archive@boost@@VParameterManager@karto@@@detail@archive@boost@@@serialization@boost@@CAAEAV?$oserializer@Vbinary_oarchive@archive@boost@@VParameterManager@karto@@@detail@archive@3@XZ@YAXXZ
	??__Ft@?1??get_instance@?$singleton@V?$pointer_iserializer@Vbinary_iarchive@archive@boost@@VDatasetInfo@karto@@@detail@archive@boost@@@serialization@boost@@CAAEAV?$pointer_iserializer@Vbinary_iarchive@archive@boost@@VDatasetInfo@karto@@@detail@archive@3@XZ@YAXXZ
	??__Ft@?1??get_instance@?$singleton@V?$pointer_iserializer@Vbinary_iarchive@archive@boost@@VParameterManager@karto@@@detail@archive@boost@@@serialization@boost@@CAAEAV?$pointer_iserializer@Vbinary_iarchive@archive@boost@@VParameterManager@karto@@@detail@archive@3@XZ@YAXXZ
	??__Ft@?1??get_instance@?$singleton@V?$pointer_oserializer@Vbinary_oarchive@archive@boost@@VDatasetInfo@karto@@@detail@archive@boost@@@serialization@boost@@CAAEAV?$pointer_oserializer@Vbinary_oarchive@archive@boost@@VDatasetInfo@karto@@@detail@archive@3@XZ@YAXXZ
	??__Ft@?1??get_instance@?$singleton@V?$pointer_oserializer@Vbinary_oarchive@archive@boost@@VParameterManager@karto@@@detail@archive@boost@@@serialization@boost@@CAAEAV?$pointer_oserializer@Vbinary_oarchive@archive@boost@@VParameterManager@karto@@@detail@archive@3@XZ@YAXXZ
	??__Ft@?1??get_instance@?$singleton@V?$void_caster_primitive@V?$Parameter@V?$basic_string@DU?$char_traits@D@std@@V?$allocator@D@2@@std@@@karto@@VAbstractParameter@2@@void_cast_detail@serialization@boost@@@serialization@boost@@CAAEAV?$void_caster_primitive@V?$Parameter@V?$basic_string@DU?$char_traits@D@std@@V?$allocator@D@2@@std@@@karto@@VAbstractParameter@2@@void_cast_detail@23@XZ@YAXXZ
	??__Ft@?1??get_instance@?$singleton@V?$void_caster_primitive@VDatasetInfo@karto@@VObject@2@@void_cast_detail@serialization@boost@@@serialization@boost@@CAAEAV?$void_caster_primitive@VDatasetInfo@karto@@VObject@2@@void_cast_detail@23@XZ@YAXXZ
	??__Ft@?1??get_instance@?$singleton@V?$void_caster_primitive@VObject@karto@@VNonCopyable@2@@void_cast_detail@serialization@boost@@@serialization@boost@@CAAEAV?$void_caster_primitive@VObject@karto@@VNonCopyable@2@@void_cast_detail@23@XZ@YAXXZ
	??__Ft@?1??get_instance@?$singleton@V?$void_caster_primitive@VParameterManager@karto@@VNonCopyable@2@@void_cast_detail@serialization@boost@@@serialization@boost@@CAAEAV?$void_caster_primitive@VParameterManager@karto@@VNonCopyable@2@@void_cast_detail@23@XZ@YAXXZ
	?Clone@?$Parameter@V?$basic_string@DU?$char_traits@D@std@@V?$allocator@D@2@@std@@@karto@@UEAAPEAV12@XZ
	?GetClassName@DatasetInfo@karto@@UEBAPEBDXZ
	?GetObjectType@DatasetInfo@karto@@UEBAIXZ
	?GetValueAsString@?$Parameter@V?$basic_string@DU?$char_traits@D@std@@V?$allocator@D@2@@std@@@karto@@UEBA?BV?$basic_string@DU?$char_traits@D@std@@V?$allocator@D@2@@std@@XZ
	?SetValueFromString@?$Parameter@V?$basic_string@DU?$char_traits@D@std@@V?$allocator@D@2@@std@@@karto@@UEAAXAEBV?$basic_string@DU?$char_traits@D@std@@V?$allocator@D@2@@std@@@Z
	?ToString@Name@karto@@QEBA?AV?$basic_string@DU?$char_traits@D@std@@V?$allocator@D@2@@std@@XZ
	?_Change_array@?$vector@PEAVAbstractParameter@karto@@V?$allocator@PEAVAbstractParameter@karto@@@std@@@std@@AEAAXQEAPEAVAbstractParameter@karto@@_K1@Z
	?_Change_array@?$vector@PEAVObject@karto@@V?$allocator@PEAVObject@karto@@@std@@@std@@AEAAXQEAPEAVObject@karto@@_K1@Z
	?_Getal@?$vector@PEAVAbstractParameter@karto@@V?$allocator@PEAVAbstractParameter@karto@@@std@@@std@@AEAAAEAV?$allocator@PEAVAbstractParameter@karto@@@2@XZ
	?_Getal@?$vector@PEAVObject@karto@@V?$allocator@PEAVObject@karto@@@std@@@std@@AEAAAEAV?$allocator@PEAVObject@karto@@@2@XZ
	?_Init@?$basic_stringbuf@DU?$char_traits@D@std@@V?$allocator@D@2@@std@@IEAAXPEBD_KH@Z
	?_Insert_node@?$_Tree_val@U?$_Tree_simple_types@U?$pair@$$CBHPEAVObject@karto@@@std@@@std@@@std@@QEAAPEAU?$_Tree_node@U?$pair@$$CBHPEAVObject@karto@@@std@@PEAX@2@U?$_Tree_id@PEAU?$_Tree_node@U?$pair@$$CBHPEAVObject@karto@@@std@@PEAX@std@@@2@QEAU32@@Z
	?_Insert_node@?$_Tree_val@U?$_Tree_simple_types@U?$pair@$$CBV?$basic_string@DU?$char_traits@D@std@@V?$allocator@D@2@@std@@PEAVAbstractParameter@karto@@@std@@@std@@@std@@QEAAPEAU?$_Tree_node@U?$pair@$$CBV?$basic_string@DU?$char_traits@D@std@@V?$allocator@D@2@@std@@PEAVAbstractParameter@karto@@@std@@PEAX@2@U?$_Tree_id@PEAU?$_Tree_node@U?$pair@$$CBV?$basic_string@DU?$char_traits@D@std@@V?$allocator@D@2@@std@@PEAVAbstractParameter@karto@@@std@@PEAX@std@@@2@QEAU32@@Z
	?_Insert_node@?$_Tree_val@U?$_Tree_simple_types@U?$pair@$$CBVName@karto@@PEAVSensor@2@@std@@@std@@@std@@QEAAPEAU?$_Tree_node@U?$pair@$$CBVName@karto@@PEAVSensor@2@@std@@PEAX@2@U?$_Tree_id@PEAU?$_Tree_node@U?$pair@$$CBVName@karto@@PEAVSensor@2@@std@@PEAX@std@@@2@QEAU32@@Z
	?_Maklocwcs@std@@YAPEA_WPEB_W@Z
	?_Reallocate_exactly@?$vector@PEAVAbstractParameter@karto@@V?$allocator@PEAVAbstractParameter@karto@@@std@@@std@@AEAAX_K@Z
	?_Reallocate_exactly@?$vector@PEAVObject@karto@@V?$allocator@PEAVObject@karto@@@std@@@std@@AEAAX_K@Z
	?_Throw_bad_array_new_length@std@@YAXXZ
	?_Throw_bad_cast@std@@YAXXZ
	?_Throw_tree_length_error@std@@YAXXZ
	?_Tidy@?$basic_stringbuf@DU?$char_traits@D@std@@V?$allocator@D@2@@std@@IEAAXXZ
	?_Xlen_string@std@@YAXXZ
	?_Xlength@?$vector@PEAVAbstractParameter@karto@@V?$allocator@PEAVAbstractParameter@karto@@@std@@@std@@CAXXZ
	?_Xlength@?$vector@PEAVObject@karto@@V?$allocator@PEAVObject@karto@@@std@@@std@@CAXXZ
	?__empty_global_delete@@YAXPEAX@Z
	?__empty_global_delete@@YAXPEAX_K@Z
	?allocate@?$allocator@D@std@@QEAAPEAD_K@Z
	?allocate@?$allocator@PEAVAbstractParameter@karto@@@std@@QEAAPEAPEAVAbstractParameter@karto@@_K@Z
	?allocate@?$allocator@PEAVObject@karto@@@std@@QEAAPEAPEAVObject@karto@@_K@Z
	?append@?$basic_string@DU?$char_traits@D@std@@V?$allocator@D@2@@std@@QEAAAEAV12@QEBD_K@Z
	?assign@?$basic_string@DU?$char_traits@D@std@@V?$allocator@D@2@@std@@QEAAAEAV12@QEBD_K@Z
	?assign@?$basic_string@DU?$char_traits@D@std@@V?$allocator@D@2@@std@@QEAAAEAV12@_KD@Z
	?class_info@?$iserializer@Vbinary_iarchive@archive@boost@@U?$pair@$$CBHPEAVObject@karto@@@std@@@detail@archive@boost@@UEBA_NXZ
	?class_info@?$iserializer@Vbinary_iarchive@archive@boost@@U?$pair@$$CBV?$basic_string@DU?$char_traits@D@std@@V?$allocator@D@2@@std@@PEAVAbstractParameter@karto@@@std@@@detail@archive@boost@@UEBA_NXZ
	?class_info@?$iserializer@Vbinary_iarchive@archive@boost@@U?$pair@$$CBVName@karto@@PEAVSensor@2@@std@@@detail@archive@boost@@UEBA_NXZ
	?class_info@?$iserializer@Vbinary_iarchive@archive@boost@@V?$Parameter@V?$basic_string@DU?$char_traits@D@std@@V?$allocator@D@2@@std@@@karto@@@detail@archive@boost@@UEBA_NXZ
	?class_info@?$iserializer@Vbinary_iarchive@archive@boost@@V?$map@HPEAVObject@karto@@U?$less@H@std@@V?$allocator@U?$pair@$$CBHPEAVObject@karto@@@std@@@4@@std@@@detail@archive@boost@@UEBA_NXZ
	?class_info@?$iserializer@Vbinary_iarchive@archive@boost@@V?$map@V?$basic_string@DU?$char_traits@D@std@@V?$allocator@D@2@@std@@PEAVAbstractParameter@karto@@U?$less@V?$basic_string@DU?$char_traits@D@std@@V?$allocator@D@2@@std@@@2@V?$allocator@U?$pair@$$CBV?$basic_string@DU?$char_traits@D@std@@V?$allocator@D@2@@std@@PEAVAbstractParameter@karto@@@std@@@2@@std@@@detail@archive@boost@@UEBA_NXZ
	?class_info@?$iserializer@Vbinary_iarchive@archive@boost@@V?$map@VName@karto@@PEAVSensor@2@U?$less@VName@karto@@@std@@V?$allocator@U?$pair@$$CBVName@karto@@PEAVSensor@2@@std@@@5@@std@@@detail@archive@boost@@UEBA_NXZ
	?class_info@?$iserializer@Vbinary_iarchive@archive@boost@@V?$vector@PEAVAbstractParameter@karto@@V?$allocator@PEAVAbstractParameter@karto@@@std@@@std@@@detail@archive@boost@@UEBA_NXZ
	?class_info@?$iserializer@Vbinary_iarchive@archive@boost@@V?$vector@PEAVObject@karto@@V?$allocator@PEAVObject@karto@@@std@@@std@@@detail@archive@boost@@UEBA_NXZ
	?class_info@?$iserializer@Vbinary_iarchive@archive@boost@@VAbstractParameter@karto@@@detail@archive@boost@@UEBA_NXZ
	?class_info@?$iserializer@Vbinary_iarchive@archive@boost@@VDataset@karto@@@detail@archive@boost@@UEBA_NXZ
	?class_info@?$iserializer@Vbinary_iarchive@archive@boost@@VDatasetInfo@karto@@@detail@archive@boost@@UEBA_NXZ
	?class_info@?$iserializer@Vbinary_iarchive@archive@boost@@VName@karto@@@detail@archive@boost@@UEBA_NXZ
	?class_info@?$iserializer@Vbinary_iarchive@archive@boost@@VNonCopyable@karto@@@detail@archive@boost@@UEBA_NXZ
	?class_info@?$iserializer@Vbinary_iarchive@archive@boost@@VObject@karto@@@detail@archive@boost@@UEBA_NXZ
	?class_info@?$iserializer@Vbinary_iarchive@archive@boost@@VParameterManager@karto@@@detail@archive@boost@@UEBA_NXZ
	?class_info@?$oserializer@Vbinary_oarchive@archive@boost@@U?$pair@$$CBHPEAVObject@karto@@@std@@@detail@archive@boost@@UEBA_NXZ
	?class_info@?$oserializer@Vbinary_oarchive@archive@boost@@U?$pair@$$CBV?$basic_string@DU?$char_traits@D@std@@V?$allocator@D@2@@std@@PEAVAbstractParameter@karto@@@std@@@detail@archive@boost@@UEBA_NXZ
	?class_info@?$oserializer@Vbinary_oarchive@archive@boost@@U?$pair@$$CBVName@karto@@PEAVSensor@2@@std@@@detail@archive@boost@@UEBA_NXZ
	?class_info@?$oserializer@Vbinary_oarchive@archive@boost@@V?$Parameter@V?$basic_string@DU?$char_traits@D@std@@V?$allocator@D@2@@std@@@karto@@@detail@archive@boost@@UEBA_NXZ
	?class_info@?$oserializer@Vbinary_oarchive@archive@boost@@V?$map@HPEAVObject@karto@@U?$less@H@std@@V?$allocator@U?$pair@$$CBHPEAVObject@karto@@@std@@@4@@std@@@detail@archive@boost@@UEBA_NXZ
	?class_info@?$oserializer@Vbinary_oarchive@archive@boost@@V?$map@V?$basic_string@DU?$char_traits@D@std@@V?$allocator@D@2@@std@@PEAVAbstractParameter@karto@@U?$less@V?$basic_string@DU?$char_traits@D@std@@V?$allocator@D@2@@std@@@2@V?$allocator@U?$pair@$$CBV?$basic_string@DU?$char_traits@D@std@@V?$allocator@D@2@@std@@PEAVAbstractParameter@karto@@@std@@@2@@std@@@detail@archive@boost@@UEBA_NXZ
	?class_info@?$oserializer@Vbinary_oarchive@archive@boost@@V?$map@VName@karto@@PEAVSensor@2@U?$less@VName@karto@@@std@@V?$allocator@U?$pair@$$CBVName@karto@@PEAVSensor@2@@std@@@5@@std@@@detail@archive@boost@@UEBA_NXZ
	?class_info@?$oserializer@Vbinary_oarchive@archive@boost@@V?$vector@PEAVAbstractParameter@karto@@V?$allocator@PEAVAbstractParameter@karto@@@std@@@std@@@detail@archive@boost@@UEBA_NXZ
	?class_info@?$oserializer@Vbinary_oarchive@archive@boost@@V?$vector@PEAVObject@karto@@V?$allocator@PEAVObject@karto@@@std@@@std@@@detail@archive@boost@@UEBA_NXZ
	?class_info@?$oserializer@Vbinary_oarchive@archive@boost@@VAbstractParameter@karto@@@detail@archive@boost@@UEBA_NXZ
	?class_info@?$oserializer@Vbinary_oarchive@archive@boost@@VDataset@karto@@@detail@archive@boost@@UEBA_NXZ
	?class_info@?$oserializer@Vbinary_oarchive@archive@boost@@VDatasetInfo@karto@@@detail@archive@boost@@UEBA_NXZ
	?class_info@?$oserializer@Vbinary_oarchive@archive@boost@@VName@karto@@@detail@archive@boost@@UEBA_NXZ
	?class_info@?$oserializer@Vbinary_oarchive@archive@boost@@VNonCopyable@karto@@@detail@archive@boost@@UEBA_NXZ
	?class_info@?$oserializer@Vbinary_oarchive@archive@boost@@VObject@karto@@@detail@archive@boost@@UEBA_NXZ
	?class_info@?$oserializer@Vbinary_oarchive@archive@boost@@VParameterManager@karto@@@detail@archive@boost@@UEBA_NXZ
	?clear@?$_Tree@V?$_Tmap_traits@HPEAVObject@karto@@U?$less@H@std@@V?$allocator@U?$pair@$$CBHPEAVObject@karto@@@std@@@4@$0A@@std@@@std@@QEAAXXZ
	?clone@?$clone_impl@Ubad_alloc_@exception_detail@boost@@@exception_detail@boost@@$0PPPPPPPM@A@EBAPEBVclone_base@23@XZ
	?clone@?$clone_impl@Ubad_alloc_@exception_detail@boost@@@exception_detail@boost@@EEBAPEBVclone_base@23@XZ
	?clone@?$clone_impl@Ubad_exception_@exception_detail@boost@@@exception_detail@boost@@$0PPPPPPPM@A@EBAPEBVclone_base@23@XZ
	?clone@?$clone_impl@Ubad_exception_@exception_detail@boost@@@exception_detail@boost@@EEBAPEBVclone_base@23@XZ
	?clone@?$wrapexcept@Vthread_resource_error@boost@@@boost@@UEBAPEBVclone_base@exception_detail@2@XZ
	?compare@?$basic_string@DU?$char_traits@D@std@@V?$allocator@D@2@@std@@QEBAHAEBV12@@Z
	?construct@?$extended_type_info_typeid@U?$pair@$$CBHPEAVObject@karto@@@std@@@serialization@boost@@UEBAPEAXIZZ
	?construct@?$extended_type_info_typeid@U?$pair@$$CBV?$basic_string@DU?$char_traits@D@std@@V?$allocator@D@2@@std@@PEAVAbstractParameter@karto@@@std@@@serialization@boost@@UEBAPEAXIZZ
	?construct@?$extended_type_info_typeid@U?$pair@$$CBVName@karto@@PEAVSensor@2@@std@@@serialization@boost@@UEBAPEAXIZZ
	?construct@?$extended_type_info_typeid@V?$Parameter@V?$basic_string@DU?$char_traits@D@std@@V?$allocator@D@2@@std@@@karto@@@serialization@boost@@UEBAPEAXIZZ
	?construct@?$extended_type_info_typeid@V?$map@HPEAVObject@karto@@U?$less@H@std@@V?$allocator@U?$pair@$$CBHPEAVObject@karto@@@std@@@4@@std@@@serialization@boost@@UEBAPEAXIZZ
	?construct@?$extended_type_info_typeid@V?$map@V?$basic_string@DU?$char_traits@D@std@@V?$allocator@D@2@@std@@PEAVAbstractParameter@karto@@U?$less@V?$basic_string@DU?$char_traits@D@std@@V?$allocator@D@2@@std@@@2@V?$allocator@U?$pair@$$CBV?$basic_string@DU?$char_traits@D@std@@V?$allocator@D@2@@std@@PEAVAbstractParameter@karto@@@std@@@2@@std@@@serialization@boost@@UEBAPEAXIZZ
	?construct@?$extended_type_info_typeid@V?$map@VName@karto@@PEAVSensor@2@U?$less@VName@karto@@@std@@V?$allocator@U?$pair@$$CBVName@karto@@PEAVSensor@2@@std@@@5@@std@@@serialization@boost@@UEBAPEAXIZZ
	?construct@?$extended_type_info_typeid@V?$vector@PEAVAbstractParameter@karto@@V?$allocator@PEAVAbstractParameter@karto@@@std@@@std@@@serialization@boost@@UEBAPEAXIZZ
	?construct@?$extended_type_info_typeid@V?$vector@PEAVObject@karto@@V?$allocator@PEAVObject@karto@@@std@@@std@@@serialization@boost@@UEBAPEAXIZZ
	?construct@?$extended_type_info_typeid@VAbstractParameter@karto@@@serialization@boost@@UEBAPEAXIZZ
	?construct@?$extended_type_info_typeid@VDataset@karto@@@serialization@boost@@UEBAPEAXIZZ
	?construct@?$extended_type_info_typeid@VDatasetInfo@karto@@@serialization@boost@@UEBAPEAXIZZ
	?construct@?$extended_type_info_typeid@VName@karto@@@serialization@boost@@UEBAPEAXIZZ
	?construct@?$extended_type_info_typeid@VNonCopyable@karto@@@serialization@boost@@UEBAPEAXIZZ
	?construct@?$extended_type_info_typeid@VObject@karto@@@serialization@boost@@UEBAPEAXIZZ
	?construct@?$extended_type_info_typeid@VParameterManager@karto@@@serialization@boost@@UEBAPEAXIZZ
	?construct@?$extended_type_info_typeid@VSensor@karto@@@serialization@boost@@UEBAPEAXIZZ
	?copy_boost_exception@exception_detail@boost@@YAXPEAVexception@2@PEBV32@@Z
	?deallocate@?$allocator@D@std@@QEAAXQEAD_K@Z
	?deallocate@?$allocator@PEAVAbstractParameter@karto@@@std@@QEAAXQEAPEAVAbstractParameter@karto@@_K@Z
	?deallocate@?$allocator@PEAVObject@karto@@@std@@QEAAXQEAPEAVObject@karto@@_K@Z
	?default_error_condition@error_category@system@boost@@UEBA?AVerror_condition@23@H@Z
	?default_error_condition@system_error_category@detail@system@boost@@UEBA?AVerror_condition@34@H@Z
	?deserializePoseGraphCallback@AsynchronousSlamToolbox@slam_toolbox@@MEAA_NV?$shared_ptr@Urmw_request_id_t@@@std@@V?$shared_ptr@U?$DeserializePoseGraph_Request_@V?$allocator@X@std@@@srv@slam_toolbox@@@4@V?$shared_ptr@U?$DeserializePoseGraph_Response_@V?$allocator@X@std@@@srv@slam_toolbox@@@4@@Z
	?destroy@?$extended_type_info_typeid@U?$pair@$$CBHPEAVObject@karto@@@std@@@serialization@boost@@UEBAXQEBX@Z
	?destroy@?$extended_type_info_typeid@U?$pair@$$CBV?$basic_string@DU?$char_traits@D@std@@V?$allocator@D@2@@std@@PEAVAbstractParameter@karto@@@std@@@serialization@boost@@UEBAXQEBX@Z
	?destroy@?$extended_type_info_typeid@U?$pair@$$CBVName@karto@@PEAVSensor@2@@std@@@serialization@boost@@UEBAXQEBX@Z
	?destroy@?$extended_type_info_typeid@V?$Parameter@V?$basic_string@DU?$char_traits@D@std@@V?$allocator@D@2@@std@@@karto@@@serialization@boost@@UEBAXQEBX@Z
	?destroy@?$extended_type_info_typeid@V?$map@HPEAVObject@karto@@U?$less@H@std@@V?$allocator@U?$pair@$$CBHPEAVObject@karto@@@std@@@4@@std@@@serialization@boost@@UEBAXQEBX@Z
	?destroy@?$extended_type_info_typeid@V?$map@V?$basic_string@DU?$char_traits@D@std@@V?$allocator@D@2@@std@@PEAVAbstractParameter@karto@@U?$less@V?$basic_string@DU?$char_traits@D@std@@V?$allocator@D@2@@std@@@2@V?$allocator@U?$pair@$$CBV?$basic_string@DU?$char_traits@D@std@@V?$allocator@D@2@@std@@PEAVAbstractParameter@karto@@@std@@@2@@std@@@serialization@boost@@UEBAXQEBX@Z
	?destroy@?$extended_type_info_typeid@V?$map@VName@karto@@PEAVSensor@2@U?$less@VName@karto@@@std@@V?$allocator@U?$pair@$$CBVName@karto@@PEAVSensor@2@@std@@@5@@std@@@serialization@boost@@UEBAXQEBX@Z
	?destroy@?$extended_type_info_typeid@V?$vector@PEAVAbstractParameter@karto@@V?$allocator@PEAVAbstractParameter@karto@@@std@@@std@@@serialization@boost@@UEBAXQEBX@Z
	?destroy@?$extended_type_info_typeid@V?$vector@PEAVObject@karto@@V?$allocator@PEAVObject@karto@@@std@@@std@@@serialization@boost@@UEBAXQEBX@Z
	?destroy@?$extended_type_info_typeid@VAbstractParameter@karto@@@serialization@boost@@UEBAXQEBX@Z
	?destroy@?$extended_type_info_typeid@VDataset@karto@@@serialization@boost@@UEBAXQEBX@Z
	?destroy@?$extended_type_info_typeid@VDatasetInfo@karto@@@serialization@boost@@UEBAXQEBX@Z
	?destroy@?$extended_type_info_typeid@VName@karto@@@serialization@boost@@UEBAXQEBX@Z
	?destroy@?$extended_type_info_typeid@VNonCopyable@karto@@@serialization@boost@@UEBAXQEBX@Z
	?destroy@?$extended_type_info_typeid@VObject@karto@@@serialization@boost@@UEBAXQEBX@Z
	?destroy@?$extended_type_info_typeid@VParameterManager@karto@@@serialization@boost@@UEBAXQEBX@Z
	?destroy@?$extended_type_info_typeid@VSensor@karto@@@serialization@boost@@UEBAXQEBX@Z
	?destroy@?$iserializer@Vbinary_iarchive@archive@boost@@U?$pair@$$CBHPEAVObject@karto@@@std@@@detail@archive@boost@@EEBAXPEAX@Z
	?destroy@?$iserializer@Vbinary_iarchive@archive@boost@@U?$pair@$$CBV?$basic_string@DU?$char_traits@D@std@@V?$allocator@D@2@@std@@PEAVAbstractParameter@karto@@@std@@@detail@archive@boost@@EEBAXPEAX@Z
	?destroy@?$iserializer@Vbinary_iarchive@archive@boost@@U?$pair@$$CBVName@karto@@PEAVSensor@2@@std@@@detail@archive@boost@@EEBAXPEAX@Z
	?destroy@?$iserializer@Vbinary_iarchive@archive@boost@@V?$Parameter@V?$basic_string@DU?$char_traits@D@std@@V?$allocator@D@2@@std@@@karto@@@detail@archive@boost@@EEBAXPEAX@Z
	?destroy@?$iserializer@Vbinary_iarchive@archive@boost@@V?$map@HPEAVObject@karto@@U?$less@H@std@@V?$allocator@U?$pair@$$CBHPEAVObject@karto@@@std@@@4@@std@@@detail@archive@boost@@EEBAXPEAX@Z
	?destroy@?$iserializer@Vbinary_iarchive@archive@boost@@V?$map@V?$basic_string@DU?$char_traits@D@std@@V?$allocator@D@2@@std@@PEAVAbstractParameter@karto@@U?$less@V?$basic_string@DU?$char_traits@D@std@@V?$allocator@D@2@@std@@@2@V?$allocator@U?$pair@$$CBV?$basic_string@DU?$char_traits@D@std@@V?$allocator@D@2@@std@@PEAVAbstractParameter@karto@@@std@@@2@@std@@@detail@archive@boost@@EEBAXPEAX@Z
	?destroy@?$iserializer@Vbinary_iarchive@archive@boost@@V?$map@VName@karto@@PEAVSensor@2@U?$less@VName@karto@@@std@@V?$allocator@U?$pair@$$CBVName@karto@@PEAVSensor@2@@std@@@5@@std@@@detail@archive@boost@@EEBAXPEAX@Z
	?destroy@?$iserializer@Vbinary_iarchive@archive@boost@@V?$vector@PEAVAbstractParameter@karto@@V?$allocator@PEAVAbstractParameter@karto@@@std@@@std@@@detail@archive@boost@@EEBAXPEAX@Z
	?destroy@?$iserializer@Vbinary_iarchive@archive@boost@@V?$vector@PEAVObject@karto@@V?$allocator@PEAVObject@karto@@@std@@@std@@@detail@archive@boost@@EEBAXPEAX@Z
	?destroy@?$iserializer@Vbinary_iarchive@archive@boost@@VAbstractParameter@karto@@@detail@archive@boost@@EEBAXPEAX@Z
	?destroy@?$iserializer@Vbinary_iarchive@archive@boost@@VDataset@karto@@@detail@archive@boost@@EEBAXPEAX@Z
	?destroy@?$iserializer@Vbinary_iarchive@archive@boost@@VDatasetInfo@karto@@@detail@archive@boost@@EEBAXPEAX@Z
	?destroy@?$iserializer@Vbinary_iarchive@archive@boost@@VName@karto@@@detail@archive@boost@@EEBAXPEAX@Z
	?destroy@?$iserializer@Vbinary_iarchive@archive@boost@@VNonCopyable@karto@@@detail@archive@boost@@EEBAXPEAX@Z
	?destroy@?$iserializer@Vbinary_iarchive@archive@boost@@VObject@karto@@@detail@archive@boost@@EEBAXPEAX@Z
	?destroy@?$iserializer@Vbinary_iarchive@archive@boost@@VParameterManager@karto@@@detail@archive@boost@@EEBAXPEAX@Z
	?destroy@sp_counted_base@detail@boost@@UEAAXXZ
	?dispose@?$sp_counted_impl_p@V?$clone_impl@Ubad_alloc_@exception_detail@boost@@@exception_detail@boost@@@detail@boost@@UEAAXXZ
	?dispose@?$sp_counted_impl_p@V?$clone_impl@Ubad_exception_@exception_detail@boost@@@exception_detail@boost@@@detail@boost@@UEAAXXZ
	?downcast@?$void_caster_primitive@V?$Parameter@V?$basic_string@DU?$char_traits@D@std@@V?$allocator@D@2@@std@@@karto@@VAbstractParameter@2@@void_cast_detail@serialization@boost@@EEBAPEBXQEBX@Z
	?downcast@?$void_caster_primitive@VDatasetInfo@karto@@VObject@2@@void_cast_detail@serialization@boost@@EEBAPEBXQEBX@Z
	?downcast@?$void_caster_primitive@VObject@karto@@VNonCopyable@2@@void_cast_detail@serialization@boost@@EEBAPEBXQEBX@Z
	?downcast@?$void_caster_primitive@VParameterManager@karto@@VNonCopyable@2@@void_cast_detail@serialization@boost@@EEBAPEBXQEBX@Z
	?equivalent@error_category@system@boost@@UEBA_NAEBVerror_code@23@H@Z
	?equivalent@error_category@system@boost@@UEBA_NHAEBVerror_condition@23@@Z
	?failed@error_category@system@boost@@UEBA_NH@Z
	?find@?$load_pointer_type@Vbinary_iarchive@archive@boost@@@detail@archive@boost@@SAPEBVbasic_pointer_iserializer@234@AEBVextended_type_info@serialization@4@@Z
	?getOdomPose@GetPoseHelper@pose_utils@@QEAA_NAEAVPose2@karto@@AEBVTime@rclcpp@@@Z
	?get_basic_serializer@?$pointer_iserializer@Vbinary_iarchive@archive@boost@@VDatasetInfo@karto@@@detail@archive@boost@@EEBAAEBVbasic_iserializer@234@XZ
	?get_basic_serializer@?$pointer_iserializer@Vbinary_iarchive@archive@boost@@VParameterManager@karto@@@detail@archive@boost@@EEBAAEBVbasic_iserializer@234@XZ
	?get_basic_serializer@?$pointer_oserializer@Vbinary_oarchive@archive@boost@@VDatasetInfo@karto@@@detail@archive@boost@@EEBAAEBVbasic_oserializer@234@XZ
	?get_basic_serializer@?$pointer_oserializer@Vbinary_oarchive@archive@boost@@VParameterManager@karto@@@detail@archive@boost@@EEBAAEBVbasic_oserializer@234@XZ
	?get_const_instance@?$singleton@V?$archive_serializer_map@Vbinary_oarchive@archive@boost@@@detail@archive@boost@@@serialization@boost@@SAAEBV?$archive_serializer_map@Vbinary_oarchive@archive@boost@@@detail@archive@3@XZ
	?get_const_instance@?$singleton@V?$extended_type_info_typeid@U?$pair@$$CBHPEAVObject@karto@@@std@@@serialization@boost@@@serialization@boost@@SAAEBV?$extended_type_info_typeid@U?$pair@$$CBHPEAVObject@karto@@@std@@@23@XZ
	?get_const_instance@?$singleton@V?$extended_type_info_typeid@U?$pair@$$CBV?$basic_string@DU?$char_traits@D@std@@V?$allocator@D@2@@std@@PEAVAbstractParameter@karto@@@std@@@serialization@boost@@@serialization@boost@@SAAEBV?$extended_type_info_typeid@U?$pair@$$CBV?$basic_string@DU?$char_traits@D@std@@V?$allocator@D@2@@std@@PEAVAbstractParameter@karto@@@std@@@23@XZ
	?get_const_instance@?$singleton@V?$extended_type_info_typeid@U?$pair@$$CBVName@karto@@PEAVSensor@2@@std@@@serialization@boost@@@serialization@boost@@SAAEBV?$extended_type_info_typeid@U?$pair@$$CBVName@karto@@PEAVSensor@2@@std@@@23@XZ
	?get_const_instance@?$singleton@V?$extended_type_info_typeid@V?$Parameter@V?$basic_string@DU?$char_traits@D@std@@V?$allocator@D@2@@std@@@karto@@@serialization@boost@@@serialization@boost@@SAAEBV?$extended_type_info_typeid@V?$Parameter@V?$basic_string@DU?$char_traits@D@std@@V?$allocator@D@2@@std@@@karto@@@23@XZ
	?get_const_instance@?$singleton@V?$extended_type_info_typeid@V?$map@HPEAVObject@karto@@U?$less@H@std@@V?$allocator@U?$pair@$$CBHPEAVObject@karto@@@std@@@4@@std@@@serialization@boost@@@serialization@boost@@SAAEBV?$extended_type_info_typeid@V?$map@HPEAVObject@karto@@U?$less@H@std@@V?$allocator@U?$pair@$$CBHPEAVObject@karto@@@std@@@4@@std@@@23@XZ
	?get_const_instance@?$singleton@V?$extended_type_info_typeid@V?$map@V?$basic_string@DU?$char_traits@D@std@@V?$allocator@D@2@@std@@PEAVAbstractParameter@karto@@U?$less@V?$basic_string@DU?$char_traits@D@std@@V?$allocator@D@2@@std@@@2@V?$allocator@U?$pair@$$CBV?$basic_string@DU?$char_traits@D@std@@V?$allocator@D@2@@std@@PEAVAbstractParameter@karto@@@std@@@2@@std@@@serialization@boost@@@serialization@boost@@SAAEBV?$extended_type_info_typeid@V?$map@V?$basic_string@DU?$char_traits@D@std@@V?$allocator@D@2@@std@@PEAVAbstractParameter@karto@@U?$less@V?$basic_string@DU?$char_traits@D@std@@V?$allocator@D@2@@std@@@2@V?$allocator@U?$pair@$$CBV?$basic_string@DU?$char_traits@D@std@@V?$allocator@D@2@@std@@PEAVAbstractParameter@karto@@@std@@@2@@std@@@23@XZ
	?get_const_instance@?$singleton@V?$extended_type_info_typeid@V?$map@VName@karto@@PEAVSensor@2@U?$less@VName@karto@@@std@@V?$allocator@U?$pair@$$CBVName@karto@@PEAVSensor@2@@std@@@5@@std@@@serialization@boost@@@serialization@boost@@SAAEBV?$extended_type_info_typeid@V?$map@VName@karto@@PEAVSensor@2@U?$less@VName@karto@@@std@@V?$allocator@U?$pair@$$CBVName@karto@@PEAVSensor@2@@std@@@5@@std@@@23@XZ
	?get_const_instance@?$singleton@V?$extended_type_info_typeid@V?$vector@PEAVAbstractParameter@karto@@V?$allocator@PEAVAbstractParameter@karto@@@std@@@std@@@serialization@boost@@@serialization@boost@@SAAEBV?$extended_type_info_typeid@V?$vector@PEAVAbstractParameter@karto@@V?$allocator@PEAVAbstractParameter@karto@@@std@@@std@@@23@XZ
	?get_const_instance@?$singleton@V?$extended_type_info_typeid@V?$vector@PEAVObject@karto@@V?$allocator@PEAVObject@karto@@@std@@@std@@@serialization@boost@@@serialization@boost@@SAAEBV?$extended_type_info_typeid@V?$vector@PEAVObject@karto@@V?$allocator@PEAVObject@karto@@@std@@@std@@@23@XZ
	?get_const_instance@?$singleton@V?$extended_type_info_typeid@VAbstractParameter@karto@@@serialization@boost@@@serialization@boost@@SAAEBV?$extended_type_info_typeid@VAbstractParameter@karto@@@23@XZ
	?get_const_instance@?$singleton@V?$extended_type_info_typeid@VDataset@karto@@@serialization@boost@@@serialization@boost@@SAAEBV?$extended_type_info_typeid@VDataset@karto@@@23@XZ
	?get_const_instance@?$singleton@V?$extended_type_info_typeid@VDatasetInfo@karto@@@serialization@boost@@@serialization@boost@@SAAEBV?$extended_type_info_typeid@VDatasetInfo@karto@@@23@XZ
	?get_const_instance@?$singleton@V?$extended_type_info_typeid@VName@karto@@@serialization@boost@@@serialization@boost@@SAAEBV?$extended_type_info_typeid@VName@karto@@@23@XZ
	?get_const_instance@?$singleton@V?$extended_type_info_typeid@VNonCopyable@karto@@@serialization@boost@@@serialization@boost@@SAAEBV?$extended_type_info_typeid@VNonCopyable@karto@@@23@XZ
	?get_const_instance@?$singleton@V?$extended_type_info_typeid@VObject@karto@@@serialization@boost@@@serialization@boost@@SAAEBV?$extended_type_info_typeid@VObject@karto@@@23@XZ
	?get_const_instance@?$singleton@V?$extended_type_info_typeid@VParameterManager@karto@@@serialization@boost@@@serialization@boost@@SAAEBV?$extended_type_info_typeid@VParameterManager@karto@@@23@XZ
	?get_const_instance@?$singleton@V?$extended_type_info_typeid@VSensor@karto@@@serialization@boost@@@serialization@boost@@SAAEBV?$extended_type_info_typeid@VSensor@karto@@@23@XZ
	?get_const_instance@?$singleton@V?$iserializer@Vbinary_iarchive@archive@boost@@U?$pair@$$CBHPEAVObject@karto@@@std@@@detail@archive@boost@@@serialization@boost@@SAAEBV?$iserializer@Vbinary_iarchive@archive@boost@@U?$pair@$$CBHPEAVObject@karto@@@std@@@detail@archive@3@XZ
	?get_const_instance@?$singleton@V?$iserializer@Vbinary_iarchive@archive@boost@@U?$pair@$$CBV?$basic_string@DU?$char_traits@D@std@@V?$allocator@D@2@@std@@PEAVAbstractParameter@karto@@@std@@@detail@archive@boost@@@serialization@boost@@SAAEBV?$iserializer@Vbinary_iarchive@archive@boost@@U?$pair@$$CBV?$basic_string@DU?$char_traits@D@std@@V?$allocator@D@2@@std@@PEAVAbstractParameter@karto@@@std@@@detail@archive@3@XZ
	?get_const_instance@?$singleton@V?$iserializer@Vbinary_iarchive@archive@boost@@U?$pair@$$CBVName@karto@@PEAVSensor@2@@std@@@detail@archive@boost@@@serialization@boost@@SAAEBV?$iserializer@Vbinary_iarchive@archive@boost@@U?$pair@$$CBVName@karto@@PEAVSensor@2@@std@@@detail@archive@3@XZ
	?get_const_instance@?$singleton@V?$iserializer@Vbinary_iarchive@archive@boost@@V?$Parameter@V?$basic_string@DU?$char_traits@D@std@@V?$allocator@D@2@@std@@@karto@@@detail@archive@boost@@@serialization@boost@@SAAEBV?$iserializer@Vbinary_iarchive@archive@boost@@V?$Parameter@V?$basic_string@DU?$char_traits@D@std@@V?$allocator@D@2@@std@@@karto@@@detail@archive@3@XZ
	?get_const_instance@?$singleton@V?$iserializer@Vbinary_iarchive@archive@boost@@V?$map@HPEAVObject@karto@@U?$less@H@std@@V?$allocator@U?$pair@$$CBHPEAVObject@karto@@@std@@@4@@std@@@detail@archive@boost@@@serialization@boost@@SAAEBV?$iserializer@Vbinary_iarchive@archive@boost@@V?$map@HPEAVObject@karto@@U?$less@H@std@@V?$allocator@U?$pair@$$CBHPEAVObject@karto@@@std@@@4@@std@@@detail@archive@3@XZ
	?get_const_instance@?$singleton@V?$iserializer@Vbinary_iarchive@archive@boost@@V?$map@V?$basic_string@DU?$char_traits@D@std@@V?$allocator@D@2@@std@@PEAVAbstractParameter@karto@@U?$less@V?$basic_string@DU?$char_traits@D@std@@V?$allocator@D@2@@std@@@2@V?$allocator@U?$pair@$$CBV?$basic_string@DU?$char_traits@D@std@@V?$allocator@D@2@@std@@PEAVAbstractParameter@karto@@@std@@@2@@std@@@detail@archive@boost@@@serialization@boost@@SAAEBV?$iserializer@Vbinary_iarchive@archive@boost@@V?$map@V?$basic_string@DU?$char_traits@D@std@@V?$allocator@D@2@@std@@PEAVAbstractParameter@karto@@U?$less@V?$basic_string@DU?$char_traits@D@std@@V?$allocator@D@2@@std@@@2@V?$allocator@U?$pair@$$CBV?$basic_string@DU?$char_traits@D@std@@V?$allocator@D@2@@std@@PEAVAbstractParameter@karto@@@std@@@2@@std@@@detail@archive@3@XZ
	?get_const_instance@?$singleton@V?$iserializer@Vbinary_iarchive@archive@boost@@V?$map@VName@karto@@PEAVSensor@2@U?$less@VName@karto@@@std@@V?$allocator@U?$pair@$$CBVName@karto@@PEAVSensor@2@@std@@@5@@std@@@detail@archive@boost@@@serialization@boost@@SAAEBV?$iserializer@Vbinary_iarchive@archive@boost@@V?$map@VName@karto@@PEAVSensor@2@U?$less@VName@karto@@@std@@V?$allocator@U?$pair@$$CBVName@karto@@PEAVSensor@2@@std@@@5@@std@@@detail@archive@3@XZ
	?get_const_instance@?$singleton@V?$iserializer@Vbinary_iarchive@archive@boost@@V?$vector@PEAVAbstractParameter@karto@@V?$allocator@PEAVAbstractParameter@karto@@@std@@@std@@@detail@archive@boost@@@serialization@boost@@SAAEBV?$iserializer@Vbinary_iarchive@archive@boost@@V?$vector@PEAVAbstractParameter@karto@@V?$allocator@PEAVAbstractParameter@karto@@@std@@@std@@@detail@archive@3@XZ
	?get_const_instance@?$singleton@V?$iserializer@Vbinary_iarchive@archive@boost@@V?$vector@PEAVObject@karto@@V?$allocator@PEAVObject@karto@@@std@@@std@@@detail@archive@boost@@@serialization@boost@@SAAEBV?$iserializer@Vbinary_iarchive@archive@boost@@V?$vector@PEAVObject@karto@@V?$allocator@PEAVObject@karto@@@std@@@std@@@detail@archive@3@XZ
	?get_const_instance@?$singleton@V?$iserializer@Vbinary_iarchive@archive@boost@@VAbstractParameter@karto@@@detail@archive@boost@@@serialization@boost@@SAAEBV?$iserializer@Vbinary_iarchive@archive@boost@@VAbstractParameter@karto@@@detail@archive@3@XZ
	?get_const_instance@?$singleton@V?$iserializer@Vbinary_iarchive@archive@boost@@VDataset@karto@@@detail@archive@boost@@@serialization@boost@@SAAEBV?$iserializer@Vbinary_iarchive@archive@boost@@VDataset@karto@@@detail@archive@3@XZ
	?get_const_instance@?$singleton@V?$iserializer@Vbinary_iarchive@archive@boost@@VDatasetInfo@karto@@@detail@archive@boost@@@serialization@boost@@SAAEBV?$iserializer@Vbinary_iarchive@archive@boost@@VDatasetInfo@karto@@@detail@archive@3@XZ
	?get_const_instance@?$singleton@V?$iserializer@Vbinary_iarchive@archive@boost@@VName@karto@@@detail@archive@boost@@@serialization@boost@@SAAEBV?$iserializer@Vbinary_iarchive@archive@boost@@VName@karto@@@detail@archive@3@XZ
	?get_const_instance@?$singleton@V?$iserializer@Vbinary_iarchive@archive@boost@@VNonCopyable@karto@@@detail@archive@boost@@@serialization@boost@@SAAEBV?$iserializer@Vbinary_iarchive@archive@boost@@VNonCopyable@karto@@@detail@archive@3@XZ
	?get_const_instance@?$singleton@V?$iserializer@Vbinary_iarchive@archive@boost@@VObject@karto@@@detail@archive@boost@@@serialization@boost@@SAAEBV?$iserializer@Vbinary_iarchive@archive@boost@@VObject@karto@@@detail@archive@3@XZ
	?get_const_instance@?$singleton@V?$iserializer@Vbinary_iarchive@archive@boost@@VParameterManager@karto@@@detail@archive@boost@@@serialization@boost@@SAAEBV?$iserializer@Vbinary_iarchive@archive@boost@@VParameterManager@karto@@@detail@archive@3@XZ
	?get_const_instance@?$singleton@V?$oserializer@Vbinary_oarchive@archive@boost@@U?$pair@$$CBHPEAVObject@karto@@@std@@@detail@archive@boost@@@serialization@boost@@SAAEBV?$oserializer@Vbinary_oarchive@archive@boost@@U?$pair@$$CBHPEAVObject@karto@@@std@@@detail@archive@3@XZ
	?get_const_instance@?$singleton@V?$oserializer@Vbinary_oarchive@archive@boost@@U?$pair@$$CBV?$basic_string@DU?$char_traits@D@std@@V?$allocator@D@2@@std@@PEAVAbstractParameter@karto@@@std@@@detail@archive@boost@@@serialization@boost@@SAAEBV?$oserializer@Vbinary_oarchive@archive@boost@@U?$pair@$$CBV?$basic_string@DU?$char_traits@D@std@@V?$allocator@D@2@@std@@PEAVAbstractParameter@karto@@@std@@@detail@archive@3@XZ
	?get_const_instance@?$singleton@V?$oserializer@Vbinary_oarchive@archive@boost@@U?$pair@$$CBVName@karto@@PEAVSensor@2@@std@@@detail@archive@boost@@@serialization@boost@@SAAEBV?$oserializer@Vbinary_oarchive@archive@boost@@U?$pair@$$CBVName@karto@@PEAVSensor@2@@std@@@detail@archive@3@XZ
	?get_const_instance@?$singleton@V?$oserializer@Vbinary_oarchive@archive@boost@@V?$Parameter@V?$basic_string@DU?$char_traits@D@std@@V?$allocator@D@2@@std@@@karto@@@detail@archive@boost@@@serialization@boost@@SAAEBV?$oserializer@Vbinary_oarchive@archive@boost@@V?$Parameter@V?$basic_string@DU?$char_traits@D@std@@V?$allocator@D@2@@std@@@karto@@@detail@archive@3@XZ
	?get_const_instance@?$singleton@V?$oserializer@Vbinary_oarchive@archive@boost@@V?$map@HPEAVObject@karto@@U?$less@H@std@@V?$allocator@U?$pair@$$CBHPEAVObject@karto@@@std@@@4@@std@@@detail@archive@boost@@@serialization@boost@@SAAEBV?$oserializer@Vbinary_oarchive@archive@boost@@V?$map@HPEAVObject@karto@@U?$less@H@std@@V?$allocator@U?$pair@$$CBHPEAVObject@karto@@@std@@@4@@std@@@detail@archive@3@XZ
	?get_const_instance@?$singleton@V?$oserializer@Vbinary_oarchive@archive@boost@@V?$map@V?$basic_string@DU?$char_traits@D@std@@V?$allocator@D@2@@std@@PEAVAbstractParameter@karto@@U?$less@V?$basic_string@DU?$char_traits@D@std@@V?$allocator@D@2@@std@@@2@V?$allocator@U?$pair@$$CBV?$basic_string@DU?$char_traits@D@std@@V?$allocator@D@2@@std@@PEAVAbstractParameter@karto@@@std@@@2@@std@@@detail@archive@boost@@@serialization@boost@@SAAEBV?$oserializer@Vbinary_oarchive@archive@boost@@V?$map@V?$basic_string@DU?$char_traits@D@std@@V?$allocator@D@2@@std@@PEAVAbstractParameter@karto@@U?$less@V?$basic_string@DU?$char_traits@D@std@@V?$allocator@D@2@@std@@@2@V?$allocator@U?$pair@$$CBV?$basic_string@DU?$char_traits@D@std@@V?$allocator@D@2@@std@@PEAVAbstractParameter@karto@@@std@@@2@@std@@@detail@archive@3@XZ
	?get_const_instance@?$singleton@V?$oserializer@Vbinary_oarchive@archive@boost@@V?$map@VName@karto@@PEAVSensor@2@U?$less@VName@karto@@@std@@V?$allocator@U?$pair@$$CBVName@karto@@PEAVSensor@2@@std@@@5@@std@@@detail@archive@boost@@@serialization@boost@@SAAEBV?$oserializer@Vbinary_oarchive@archive@boost@@V?$map@VName@karto@@PEAVSensor@2@U?$less@VName@karto@@@std@@V?$allocator@U?$pair@$$CBVName@karto@@PEAVSensor@2@@std@@@5@@std@@@detail@archive@3@XZ
	?get_const_instance@?$singleton@V?$oserializer@Vbinary_oarchive@archive@boost@@V?$vector@PEAVAbstractParameter@karto@@V?$allocator@PEAVAbstractParameter@karto@@@std@@@std@@@detail@archive@boost@@@serialization@boost@@SAAEBV?$oserializer@Vbinary_oarchive@archive@boost@@V?$vector@PEAVAbstractParameter@karto@@V?$allocator@PEAVAbstractParameter@karto@@@std@@@std@@@detail@archive@3@XZ
	?get_const_instance@?$singleton@V?$oserializer@Vbinary_oarchive@archive@boost@@V?$vector@PEAVObject@karto@@V?$allocator@PEAVObject@karto@@@std@@@std@@@detail@archive@boost@@@serialization@boost@@SAAEBV?$oserializer@Vbinary_oarchive@archive@boost@@V?$vector@PEAVObject@karto@@V?$allocator@PEAVObject@karto@@@std@@@std@@@detail@archive@3@XZ
	?get_const_instance@?$singleton@V?$oserializer@Vbinary_oarchive@archive@boost@@VAbstractParameter@karto@@@detail@archive@boost@@@serialization@boost@@SAAEBV?$oserializer@Vbinary_oarchive@archive@boost@@VAbstractParameter@karto@@@detail@archive@3@XZ
	?get_const_instance@?$singleton@V?$oserializer@Vbinary_oarchive@archive@boost@@VDataset@karto@@@detail@archive@boost@@@serialization@boost@@SAAEBV?$oserializer@Vbinary_oarchive@archive@boost@@VDataset@karto@@@detail@archive@3@XZ
	?get_const_instance@?$singleton@V?$oserializer@Vbinary_oarchive@archive@boost@@VDatasetInfo@karto@@@detail@archive@boost@@@serialization@boost@@SAAEBV?$oserializer@Vbinary_oarchive@archive@boost@@VDatasetInfo@karto@@@detail@archive@3@XZ
	?get_const_instance@?$singleton@V?$oserializer@Vbinary_oarchive@archive@boost@@VName@karto@@@detail@archive@boost@@@serialization@boost@@SAAEBV?$oserializer@Vbinary_oarchive@archive@boost@@VName@karto@@@detail@archive@3@XZ
	?get_const_instance@?$singleton@V?$oserializer@Vbinary_oarchive@archive@boost@@VNonCopyable@karto@@@detail@archive@boost@@@serialization@boost@@SAAEBV?$oserializer@Vbinary_oarchive@archive@boost@@VNonCopyable@karto@@@detail@archive@3@XZ
	?get_const_instance@?$singleton@V?$oserializer@Vbinary_oarchive@archive@boost@@VObject@karto@@@detail@archive@boost@@@serialization@boost@@SAAEBV?$oserializer@Vbinary_oarchive@archive@boost@@VObject@karto@@@detail@archive@3@XZ
	?get_const_instance@?$singleton@V?$oserializer@Vbinary_oarchive@archive@boost@@VParameterManager@karto@@@detail@archive@boost@@@serialization@boost@@SAAEBV?$oserializer@Vbinary_oarchive@archive@boost@@VParameterManager@karto@@@detail@archive@3@XZ
	?get_const_instance@?$singleton@V?$pointer_iserializer@Vbinary_iarchive@archive@boost@@VDatasetInfo@karto@@@detail@archive@boost@@@serialization@boost@@SAAEBV?$pointer_iserializer@Vbinary_iarchive@archive@boost@@VDatasetInfo@karto@@@detail@archive@3@XZ
	?get_const_instance@?$singleton@V?$pointer_iserializer@Vbinary_iarchive@archive@boost@@VParameterManager@karto@@@detail@archive@boost@@@serialization@boost@@SAAEBV?$pointer_iserializer@Vbinary_iarchive@archive@boost@@VParameterManager@karto@@@detail@archive@3@XZ
	?get_const_instance@?$singleton@V?$pointer_oserializer@Vbinary_oarchive@archive@boost@@VDatasetInfo@karto@@@detail@archive@boost@@@serialization@boost@@SAAEBV?$pointer_oserializer@Vbinary_oarchive@archive@boost@@VDatasetInfo@karto@@@detail@archive@3@XZ
	?get_const_instance@?$singleton@V?$pointer_oserializer@Vbinary_oarchive@archive@boost@@VParameterManager@karto@@@detail@archive@boost@@@serialization@boost@@SAAEBV?$pointer_oserializer@Vbinary_oarchive@archive@boost@@VParameterManager@karto@@@detail@archive@3@XZ
	?get_const_instance@?$singleton@V?$void_caster_primitive@V?$Parameter@V?$basic_string@DU?$char_traits@D@std@@V?$allocator@D@2@@std@@@karto@@VAbstractParameter@2@@void_cast_detail@serialization@boost@@@serialization@boost@@SAAEBV?$void_caster_primitive@V?$Parameter@V?$basic_string@DU?$char_traits@D@std@@V?$allocator@D@2@@std@@@karto@@VAbstractParameter@2@@void_cast_detail@23@XZ
	?get_const_instance@?$singleton@V?$void_caster_primitive@VDatasetInfo@karto@@VObject@2@@void_cast_detail@serialization@boost@@@serialization@boost@@SAAEBV?$void_caster_primitive@VDatasetInfo@karto@@VObject@2@@void_cast_detail@23@XZ
	?get_const_instance@?$singleton@V?$void_caster_primitive@VObject@karto@@VNonCopyable@2@@void_cast_detail@serialization@boost@@@serialization@boost@@SAAEBV?$void_caster_primitive@VObject@karto@@VNonCopyable@2@@void_cast_detail@23@XZ
	?get_const_instance@?$singleton@V?$void_caster_primitive@VParameterManager@karto@@VNonCopyable@2@@void_cast_detail@serialization@boost@@@serialization@boost@@SAAEBV?$void_caster_primitive@VParameterManager@karto@@VNonCopyable@2@@void_cast_detail@23@XZ
	?get_debug_info@extended_type_info_typeid_0@typeid_system@serialization@boost@@EEBAPEBDXZ
	?get_deleter@?$sp_counted_impl_p@V?$clone_impl@Ubad_alloc_@exception_detail@boost@@@exception_detail@boost@@@detail@boost@@UEAAPEAXAEBVtype_info@@@Z
	?get_deleter@?$sp_counted_impl_p@V?$clone_impl@Ubad_exception_@exception_detail@boost@@@exception_detail@boost@@@detail@boost@@UEAAPEAXAEBVtype_info@@@Z
	?get_event@basic_timed_mutex@detail@boost@@AEAAPEAXXZ
	?get_instance@?$singleton@V?$archive_serializer_map@Vbinary_oarchive@archive@boost@@@detail@archive@boost@@@serialization@boost@@CAAEAV?$archive_serializer_map@Vbinary_oarchive@archive@boost@@@detail@archive@3@XZ
	?get_instance@?$singleton@V?$extended_type_info_typeid@U?$pair@$$CBHPEAVObject@karto@@@std@@@serialization@boost@@@serialization@boost@@CAAEAV?$extended_type_info_typeid@U?$pair@$$CBHPEAVObject@karto@@@std@@@23@XZ
	?get_instance@?$singleton@V?$extended_type_info_typeid@U?$pair@$$CBV?$basic_string@DU?$char_traits@D@std@@V?$allocator@D@2@@std@@PEAVAbstractParameter@karto@@@std@@@serialization@boost@@@serialization@boost@@CAAEAV?$extended_type_info_typeid@U?$pair@$$CBV?$basic_string@DU?$char_traits@D@std@@V?$allocator@D@2@@std@@PEAVAbstractParameter@karto@@@std@@@23@XZ
	?get_instance@?$singleton@V?$extended_type_info_typeid@U?$pair@$$CBVName@karto@@PEAVSensor@2@@std@@@serialization@boost@@@serialization@boost@@CAAEAV?$extended_type_info_typeid@U?$pair@$$CBVName@karto@@PEAVSensor@2@@std@@@23@XZ
	?get_instance@?$singleton@V?$extended_type_info_typeid@V?$Parameter@V?$basic_string@DU?$char_traits@D@std@@V?$allocator@D@2@@std@@@karto@@@serialization@boost@@@serialization@boost@@CAAEAV?$extended_type_info_typeid@V?$Parameter@V?$basic_string@DU?$char_traits@D@std@@V?$allocator@D@2@@std@@@karto@@@23@XZ
	?get_instance@?$singleton@V?$extended_type_info_typeid@V?$map@HPEAVObject@karto@@U?$less@H@std@@V?$allocator@U?$pair@$$CBHPEAVObject@karto@@@std@@@4@@std@@@serialization@boost@@@serialization@boost@@CAAEAV?$extended_type_info_typeid@V?$map@HPEAVObject@karto@@U?$less@H@std@@V?$allocator@U?$pair@$$CBHPEAVObject@karto@@@std@@@4@@std@@@23@XZ
	?get_instance@?$singleton@V?$extended_type_info_typeid@V?$map@V?$basic_string@DU?$char_traits@D@std@@V?$allocator@D@2@@std@@PEAVAbstractParameter@karto@@U?$less@V?$basic_string@DU?$char_traits@D@std@@V?$allocator@D@2@@std@@@2@V?$allocator@U?$pair@$$CBV?$basic_string@DU?$char_traits@D@std@@V?$allocator@D@2@@std@@PEAVAbstractParameter@karto@@@std@@@2@@std@@@serialization@boost@@@serialization@boost@@CAAEAV?$extended_type_info_typeid@V?$map@V?$basic_string@DU?$char_traits@D@std@@V?$allocator@D@2@@std@@PEAVAbstractParameter@karto@@U?$less@V?$basic_string@DU?$char_traits@D@std@@V?$allocator@D@2@@std@@@2@V?$allocator@U?$pair@$$CBV?$basic_string@DU?$char_traits@D@std@@V?$allocator@D@2@@std@@PEAVAbstractParameter@karto@@@std@@@2@@std@@@23@XZ
	?get_instance@?$singleton@V?$extended_type_info_typeid@V?$map@VName@karto@@PEAVSensor@2@U?$less@VName@karto@@@std@@V?$allocator@U?$pair@$$CBVName@karto@@PEAVSensor@2@@std@@@5@@std@@@serialization@boost@@@serialization@boost@@CAAEAV?$extended_type_info_typeid@V?$map@VName@karto@@PEAVSensor@2@U?$less@VName@karto@@@std@@V?$allocator@U?$pair@$$CBVName@karto@@PEAVSensor@2@@std@@@5@@std@@@23@XZ
	?get_instance@?$singleton@V?$extended_type_info_typeid@V?$vector@PEAVAbstractParameter@karto@@V?$allocator@PEAVAbstractParameter@karto@@@std@@@std@@@serialization@boost@@@serialization@boost@@CAAEAV?$extended_type_info_typeid@V?$vector@PEAVAbstractParameter@karto@@V?$allocator@PEAVAbstractParameter@karto@@@std@@@std@@@23@XZ
	?get_instance@?$singleton@V?$extended_type_info_typeid@V?$vector@PEAVObject@karto@@V?$allocator@PEAVObject@karto@@@std@@@std@@@serialization@boost@@@serialization@boost@@CAAEAV?$extended_type_info_typeid@V?$vector@PEAVObject@karto@@V?$allocator@PEAVObject@karto@@@std@@@std@@@23@XZ
	?get_instance@?$singleton@V?$extended_type_info_typeid@VAbstractParameter@karto@@@serialization@boost@@@serialization@boost@@CAAEAV?$extended_type_info_typeid@VAbstractParameter@karto@@@23@XZ
	?get_instance@?$singleton@V?$extended_type_info_typeid@VDataset@karto@@@serialization@boost@@@serialization@boost@@CAAEAV?$extended_type_info_typeid@VDataset@karto@@@23@XZ
	?get_instance@?$singleton@V?$extended_type_info_typeid@VDatasetInfo@karto@@@serialization@boost@@@serialization@boost@@CAAEAV?$extended_type_info_typeid@VDatasetInfo@karto@@@23@XZ
	?get_instance@?$singleton@V?$extended_type_info_typeid@VName@karto@@@serialization@boost@@@serialization@boost@@CAAEAV?$extended_type_info_typeid@VName@karto@@@23@XZ
	?get_instance@?$singleton@V?$extended_type_info_typeid@VNonCopyable@karto@@@serialization@boost@@@serialization@boost@@CAAEAV?$extended_type_info_typeid@VNonCopyable@karto@@@23@XZ
	?get_instance@?$singleton@V?$extended_type_info_typeid@VObject@karto@@@serialization@boost@@@serialization@boost@@CAAEAV?$extended_type_info_typeid@VObject@karto@@@23@XZ
	?get_instance@?$singleton@V?$extended_type_info_typeid@VParameterManager@karto@@@serialization@boost@@@serialization@boost@@CAAEAV?$extended_type_info_typeid@VParameterManager@karto@@@23@XZ
	?get_instance@?$singleton@V?$extended_type_info_typeid@VSensor@karto@@@serialization@boost@@@serialization@boost@@CAAEAV?$extended_type_info_typeid@VSensor@karto@@@23@XZ
	?get_instance@?$singleton@V?$iserializer@Vbinary_iarchive@archive@boost@@U?$pair@$$CBHPEAVObject@karto@@@std@@@detail@archive@boost@@@serialization@boost@@CAAEAV?$iserializer@Vbinary_iarchive@archive@boost@@U?$pair@$$CBHPEAVObject@karto@@@std@@@detail@archive@3@XZ
	?get_instance@?$singleton@V?$iserializer@Vbinary_iarchive@archive@boost@@U?$pair@$$CBV?$basic_string@DU?$char_traits@D@std@@V?$allocator@D@2@@std@@PEAVAbstractParameter@karto@@@std@@@detail@archive@boost@@@serialization@boost@@CAAEAV?$iserializer@Vbinary_iarchive@archive@boost@@U?$pair@$$CBV?$basic_string@DU?$char_traits@D@std@@V?$allocator@D@2@@std@@PEAVAbstractParameter@karto@@@std@@@detail@archive@3@XZ
	?get_instance@?$singleton@V?$iserializer@Vbinary_iarchive@archive@boost@@U?$pair@$$CBVName@karto@@PEAVSensor@2@@std@@@detail@archive@boost@@@serialization@boost@@CAAEAV?$iserializer@Vbinary_iarchive@archive@boost@@U?$pair@$$CBVName@karto@@PEAVSensor@2@@std@@@detail@archive@3@XZ
	?get_instance@?$singleton@V?$iserializer@Vbinary_iarchive@archive@boost@@V?$Parameter@V?$basic_string@DU?$char_traits@D@std@@V?$allocator@D@2@@std@@@karto@@@detail@archive@boost@@@serialization@boost@@CAAEAV?$iserializer@Vbinary_iarchive@archive@boost@@V?$Parameter@V?$basic_string@DU?$char_traits@D@std@@V?$allocator@D@2@@std@@@karto@@@detail@archive@3@XZ
	?get_instance@?$singleton@V?$iserializer@Vbinary_iarchive@archive@boost@@V?$map@HPEAVObject@karto@@U?$less@H@std@@V?$allocator@U?$pair@$$CBHPEAVObject@karto@@@std@@@4@@std@@@detail@archive@boost@@@serialization@boost@@CAAEAV?$iserializer@Vbinary_iarchive@archive@boost@@V?$map@HPEAVObject@karto@@U?$less@H@std@@V?$allocator@U?$pair@$$CBHPEAVObject@karto@@@std@@@4@@std@@@detail@archive@3@XZ
	?get_instance@?$singleton@V?$iserializer@Vbinary_iarchive@archive@boost@@V?$map@V?$basic_string@DU?$char_traits@D@std@@V?$allocator@D@2@@std@@PEAVAbstractParameter@karto@@U?$less@V?$basic_string@DU?$char_traits@D@std@@V?$allocator@D@2@@std@@@2@V?$allocator@U?$pair@$$CBV?$basic_string@DU?$char_traits@D@std@@V?$allocator@D@2@@std@@PEAVAbstractParameter@karto@@@std@@@2@@std@@@detail@archive@boost@@@serialization@boost@@CAAEAV?$iserializer@Vbinary_iarchive@archive@boost@@V?$map@V?$basic_string@DU?$char_traits@D@std@@V?$allocator@D@2@@std@@PEAVAbstractParameter@karto@@U?$less@V?$basic_string@DU?$char_traits@D@std@@V?$allocator@D@2@@std@@@2@V?$allocator@U?$pair@$$CBV?$basic_string@DU?$char_traits@D@std@@V?$allocator@D@2@@std@@PEAVAbstractParameter@karto@@@std@@@2@@std@@@detail@archive@3@XZ
	?get_instance@?$singleton@V?$iserializer@Vbinary_iarchive@archive@boost@@V?$map@VName@karto@@PEAVSensor@2@U?$less@VName@karto@@@std@@V?$allocator@U?$pair@$$CBVName@karto@@PEAVSensor@2@@std@@@5@@std@@@detail@archive@boost@@@serialization@boost@@CAAEAV?$iserializer@Vbinary_iarchive@archive@boost@@V?$map@VName@karto@@PEAVSensor@2@U?$less@VName@karto@@@std@@V?$allocator@U?$pair@$$CBVName@karto@@PEAVSensor@2@@std@@@5@@std@@@detail@archive@3@XZ
	?get_instance@?$singleton@V?$iserializer@Vbinary_iarchive@archive@boost@@V?$vector@PEAVAbstractParameter@karto@@V?$allocator@PEAVAbstractParameter@karto@@@std@@@std@@@detail@archive@boost@@@serialization@boost@@CAAEAV?$iserializer@Vbinary_iarchive@archive@boost@@V?$vector@PEAVAbstractParameter@karto@@V?$allocator@PEAVAbstractParameter@karto@@@std@@@std@@@detail@archive@3@XZ
	?get_instance@?$singleton@V?$iserializer@Vbinary_iarchive@archive@boost@@V?$vector@PEAVObject@karto@@V?$allocator@PEAVObject@karto@@@std@@@std@@@detail@archive@boost@@@serialization@boost@@CAAEAV?$iserializer@Vbinary_iarchive@archive@boost@@V?$vector@PEAVObject@karto@@V?$allocator@PEAVObject@karto@@@std@@@std@@@detail@archive@3@XZ
	?get_instance@?$singleton@V?$iserializer@Vbinary_iarchive@archive@boost@@VAbstractParameter@karto@@@detail@archive@boost@@@serialization@boost@@CAAEAV?$iserializer@Vbinary_iarchive@archive@boost@@VAbstractParameter@karto@@@detail@archive@3@XZ
	?get_instance@?$singleton@V?$iserializer@Vbinary_iarchive@archive@boost@@VDataset@karto@@@detail@archive@boost@@@serialization@boost@@CAAEAV?$iserializer@Vbinary_iarchive@archive@boost@@VDataset@karto@@@detail@archive@3@XZ
	?get_instance@?$singleton@V?$iserializer@Vbinary_iarchive@archive@boost@@VDatasetInfo@karto@@@detail@archive@boost@@@serialization@boost@@CAAEAV?$iserializer@Vbinary_iarchive@archive@boost@@VDatasetInfo@karto@@@detail@archive@3@XZ
	?get_instance@?$singleton@V?$iserializer@Vbinary_iarchive@archive@boost@@VName@karto@@@detail@archive@boost@@@serialization@boost@@CAAEAV?$iserializer@Vbinary_iarchive@archive@boost@@VName@karto@@@detail@archive@3@XZ
	?get_instance@?$singleton@V?$iserializer@Vbinary_iarchive@archive@boost@@VNonCopyable@karto@@@detail@archive@boost@@@serialization@boost@@CAAEAV?$iserializer@Vbinary_iarchive@archive@boost@@VNonCopyable@karto@@@detail@archive@3@XZ
	?get_instance@?$singleton@V?$iserializer@Vbinary_iarchive@archive@boost@@VObject@karto@@@detail@archive@boost@@@serialization@boost@@CAAEAV?$iserializer@Vbinary_iarchive@archive@boost@@VObject@karto@@@detail@archive@3@XZ
	?get_instance@?$singleton@V?$iserializer@Vbinary_iarchive@archive@boost@@VParameterManager@karto@@@detail@archive@boost@@@serialization@boost@@CAAEAV?$iserializer@Vbinary_iarchive@archive@boost@@VParameterManager@karto@@@detail@archive@3@XZ
	?get_instance@?$singleton@V?$oserializer@Vbinary_oarchive@archive@boost@@U?$pair@$$CBHPEAVObject@karto@@@std@@@detail@archive@boost@@@serialization@boost@@CAAEAV?$oserializer@Vbinary_oarchive@archive@boost@@U?$pair@$$CBHPEAVObject@karto@@@std@@@detail@archive@3@XZ
	?get_instance@?$singleton@V?$oserializer@Vbinary_oarchive@archive@boost@@U?$pair@$$CBV?$basic_string@DU?$char_traits@D@std@@V?$allocator@D@2@@std@@PEAVAbstractParameter@karto@@@std@@@detail@archive@boost@@@serialization@boost@@CAAEAV?$oserializer@Vbinary_oarchive@archive@boost@@U?$pair@$$CBV?$basic_string@DU?$char_traits@D@std@@V?$allocator@D@2@@std@@PEAVAbstractParameter@karto@@@std@@@detail@archive@3@XZ
	?get_instance@?$singleton@V?$oserializer@Vbinary_oarchive@archive@boost@@U?$pair@$$CBVName@karto@@PEAVSensor@2@@std@@@detail@archive@boost@@@serialization@boost@@CAAEAV?$oserializer@Vbinary_oarchive@archive@boost@@U?$pair@$$CBVName@karto@@PEAVSensor@2@@std@@@detail@archive@3@XZ
	?get_instance@?$singleton@V?$oserializer@Vbinary_oarchive@archive@boost@@V?$Parameter@V?$basic_string@DU?$char_traits@D@std@@V?$allocator@D@2@@std@@@karto@@@detail@archive@boost@@@serialization@boost@@CAAEAV?$oserializer@Vbinary_oarchive@archive@boost@@V?$Parameter@V?$basic_string@DU?$char_traits@D@std@@V?$allocator@D@2@@std@@@karto@@@detail@archive@3@XZ
	?get_instance@?$singleton@V?$oserializer@Vbinary_oarchive@archive@boost@@V?$map@HPEAVObject@karto@@U?$less@H@std@@V?$allocator@U?$pair@$$CBHPEAVObject@karto@@@std@@@4@@std@@@detail@archive@boost@@@serialization@boost@@CAAEAV?$oserializer@Vbinary_oarchive@archive@boost@@V?$map@HPEAVObject@karto@@U?$less@H@std@@V?$allocator@U?$pair@$$CBHPEAVObject@karto@@@std@@@4@@std@@@detail@archive@3@XZ
	?get_instance@?$singleton@V?$oserializer@Vbinary_oarchive@archive@boost@@V?$map@V?$basic_string@DU?$char_traits@D@std@@V?$allocator@D@2@@std@@PEAVAbstractParameter@karto@@U?$less@V?$basic_string@DU?$char_traits@D@std@@V?$allocator@D@2@@std@@@2@V?$allocator@U?$pair@$$CBV?$basic_string@DU?$char_traits@D@std@@V?$allocator@D@2@@std@@PEAVAbstractParameter@karto@@@std@@@2@@std@@@detail@archive@boost@@@serialization@boost@@CAAEAV?$oserializer@Vbinary_oarchive@archive@boost@@V?$map@V?$basic_string@DU?$char_traits@D@std@@V?$allocator@D@2@@std@@PEAVAbstractParameter@karto@@U?$less@V?$basic_string@DU?$char_traits@D@std@@V?$allocator@D@2@@std@@@2@V?$allocator@U?$pair@$$CBV?$basic_string@DU?$char_traits@D@std@@V?$allocator@D@2@@std@@PEAVAbstractParameter@karto@@@std@@@2@@std@@@detail@archive@3@XZ
	?get_instance@?$singleton@V?$oserializer@Vbinary_oarchive@archive@boost@@V?$map@VName@karto@@PEAVSensor@2@U?$less@VName@karto@@@std@@V?$allocator@U?$pair@$$CBVName@karto@@PEAVSensor@2@@std@@@5@@std@@@detail@archive@boost@@@serialization@boost@@CAAEAV?$oserializer@Vbinary_oarchive@archive@boost@@V?$map@VName@karto@@PEAVSensor@2@U?$less@VName@karto@@@std@@V?$allocator@U?$pair@$$CBVName@karto@@PEAVSensor@2@@std@@@5@@std@@@detail@archive@3@XZ
	?get_instance@?$singleton@V?$oserializer@Vbinary_oarchive@archive@boost@@V?$vector@PEAVAbstractParameter@karto@@V?$allocator@PEAVAbstractParameter@karto@@@std@@@std@@@detail@archive@boost@@@serialization@boost@@CAAEAV?$oserializer@Vbinary_oarchive@archive@boost@@V?$vector@PEAVAbstractParameter@karto@@V?$allocator@PEAVAbstractParameter@karto@@@std@@@std@@@detail@archive@3@XZ
	?get_instance@?$singleton@V?$oserializer@Vbinary_oarchive@archive@boost@@V?$vector@PEAVObject@karto@@V?$allocator@PEAVObject@karto@@@std@@@std@@@detail@archive@boost@@@serialization@boost@@CAAEAV?$oserializer@Vbinary_oarchive@archive@boost@@V?$vector@PEAVObject@karto@@V?$allocator@PEAVObject@karto@@@std@@@std@@@detail@archive@3@XZ
	?get_instance@?$singleton@V?$oserializer@Vbinary_oarchive@archive@boost@@VAbstractParameter@karto@@@detail@archive@boost@@@serialization@boost@@CAAEAV?$oserializer@Vbinary_oarchive@archive@boost@@VAbstractParameter@karto@@@detail@archive@3@XZ
	?get_instance@?$singleton@V?$oserializer@Vbinary_oarchive@archive@boost@@VDataset@karto@@@detail@archive@boost@@@serialization@boost@@CAAEAV?$oserializer@Vbinary_oarchive@archive@boost@@VDataset@karto@@@detail@archive@3@XZ
	?get_instance@?$singleton@V?$oserializer@Vbinary_oarchive@archive@boost@@VDatasetInfo@karto@@@detail@archive@boost@@@serialization@boost@@CAAEAV?$oserializer@Vbinary_oarchive@archive@boost@@VDatasetInfo@karto@@@detail@archive@3@XZ
	?get_instance@?$singleton@V?$oserializer@Vbinary_oarchive@archive@boost@@VName@karto@@@detail@archive@boost@@@serialization@boost@@CAAEAV?$oserializer@Vbinary_oarchive@archive@boost@@VName@karto@@@detail@archive@3@XZ
	?get_instance@?$singleton@V?$oserializer@Vbinary_oarchive@archive@boost@@VNonCopyable@karto@@@detail@archive@boost@@@serialization@boost@@CAAEAV?$oserializer@Vbinary_oarchive@archive@boost@@VNonCopyable@karto@@@detail@archive@3@XZ
	?get_instance@?$singleton@V?$oserializer@Vbinary_oarchive@archive@boost@@VObject@karto@@@detail@archive@boost@@@serialization@boost@@CAAEAV?$oserializer@Vbinary_oarchive@archive@boost@@VObject@karto@@@detail@archive@3@XZ
	?get_instance@?$singleton@V?$oserializer@Vbinary_oarchive@archive@boost@@VParameterManager@karto@@@detail@archive@boost@@@serialization@boost@@CAAEAV?$oserializer@Vbinary_oarchive@archive@boost@@VParameterManager@karto@@@detail@archive@3@XZ
	?get_instance@?$singleton@V?$pointer_iserializer@Vbinary_iarchive@archive@boost@@VDatasetInfo@karto@@@detail@archive@boost@@@serialization@boost@@CAAEAV?$pointer_iserializer@Vbinary_iarchive@archive@boost@@VDatasetInfo@karto@@@detail@archive@3@XZ
	?get_instance@?$singleton@V?$pointer_iserializer@Vbinary_iarchive@archive@boost@@VParameterManager@karto@@@detail@archive@boost@@@serialization@boost@@CAAEAV?$pointer_iserializer@Vbinary_iarchive@archive@boost@@VParameterManager@karto@@@detail@archive@3@XZ
	?get_instance@?$singleton@V?$pointer_oserializer@Vbinary_oarchive@archive@boost@@VDatasetInfo@karto@@@detail@archive@boost@@@serialization@boost@@CAAEAV?$pointer_oserializer@Vbinary_oarchive@archive@boost@@VDatasetInfo@karto@@@detail@archive@3@XZ
	?get_instance@?$singleton@V?$pointer_oserializer@Vbinary_oarchive@archive@boost@@VParameterManager@karto@@@detail@archive@boost@@@serialization@boost@@CAAEAV?$pointer_oserializer@Vbinary_oarchive@archive@boost@@VParameterManager@karto@@@detail@archive@3@XZ
	?get_instance@?$singleton@V?$void_caster_primitive@V?$Parameter@V?$basic_string@DU?$char_traits@D@std@@V?$allocator@D@2@@std@@@karto@@VAbstractParameter@2@@void_cast_detail@serialization@boost@@@serialization@boost@@CAAEAV?$void_caster_primitive@V?$Parameter@V?$basic_string@DU?$char_traits@D@std@@V?$allocator@D@2@@std@@@karto@@VAbstractParameter@2@@void_cast_detail@23@XZ
	?get_instance@?$singleton@V?$void_caster_primitive@VDatasetInfo@karto@@VObject@2@@void_cast_detail@serialization@boost@@@serialization@boost@@CAAEAV?$void_caster_primitive@VDatasetInfo@karto@@VObject@2@@void_cast_detail@23@XZ
	?get_instance@?$singleton@V?$void_caster_primitive@VObject@karto@@VNonCopyable@2@@void_cast_detail@serialization@boost@@@serialization@boost@@CAAEAV?$void_caster_primitive@VObject@karto@@VNonCopyable@2@@void_cast_detail@23@XZ
	?get_instance@?$singleton@V?$void_caster_primitive@VParameterManager@karto@@VNonCopyable@2@@void_cast_detail@serialization@boost@@@serialization@boost@@CAAEAV?$void_caster_primitive@VParameterManager@karto@@VNonCopyable@2@@void_cast_detail@23@XZ
	?get_local_deleter@?$sp_counted_impl_p@V?$clone_impl@Ubad_alloc_@exception_detail@boost@@@exception_detail@boost@@@detail@boost@@UEAAPEAXAEBVtype_info@@@Z
	?get_local_deleter@?$sp_counted_impl_p@V?$clone_impl@Ubad_exception_@exception_detail@boost@@@exception_detail@boost@@@detail@boost@@UEAAPEAXAEBVtype_info@@@Z
	?get_lock@singleton_module@serialization@boost@@AEAAAEA_NXZ
	?get_mutable_instance@?$singleton@V?$iserializer@Vbinary_iarchive@archive@boost@@VDatasetInfo@karto@@@detail@archive@boost@@@serialization@boost@@SAAEAV?$iserializer@Vbinary_iarchive@archive@boost@@VDatasetInfo@karto@@@detail@archive@3@XZ
	?get_mutable_instance@?$singleton@V?$iserializer@Vbinary_iarchive@archive@boost@@VParameterManager@karto@@@detail@archive@boost@@@serialization@boost@@SAAEAV?$iserializer@Vbinary_iarchive@archive@boost@@VParameterManager@karto@@@detail@archive@3@XZ
	?get_mutable_instance@?$singleton@V?$oserializer@Vbinary_oarchive@archive@boost@@VDatasetInfo@karto@@@detail@archive@boost@@@serialization@boost@@SAAEAV?$oserializer@Vbinary_oarchive@archive@boost@@VDatasetInfo@karto@@@detail@archive@3@XZ
	?get_mutable_instance@?$singleton@V?$oserializer@Vbinary_oarchive@archive@boost@@VParameterManager@karto@@@detail@archive@boost@@@serialization@boost@@SAAEAV?$oserializer@Vbinary_oarchive@archive@boost@@VParameterManager@karto@@@detail@archive@3@XZ
	?get_untyped_deleter@?$sp_counted_impl_p@V?$clone_impl@Ubad_alloc_@exception_detail@boost@@@exception_detail@boost@@@detail@boost@@UEAAPEAXXZ
	?get_untyped_deleter@?$sp_counted_impl_p@V?$clone_impl@Ubad_exception_@exception_detail@boost@@@exception_detail@boost@@@detail@boost@@UEAAPEAXXZ
	?has_virtual_base@?$void_caster_primitive@V?$Parameter@V?$basic_string@DU?$char_traits@D@std@@V?$allocator@D@2@@std@@@karto@@VAbstractParameter@2@@void_cast_detail@serialization@boost@@EEBA_NXZ
	?has_virtual_base@?$void_caster_primitive@VDatasetInfo@karto@@VObject@2@@void_cast_detail@serialization@boost@@EEBA_NXZ
	?has_virtual_base@?$void_caster_primitive@VObject@karto@@VNonCopyable@2@@void_cast_detail@serialization@boost@@EEBA_NXZ
	?has_virtual_base@?$void_caster_primitive@VParameterManager@karto@@VNonCopyable@2@@void_cast_detail@serialization@boost@@EEBA_NXZ
	?heap_allocation@?$pointer_iserializer@Vbinary_iarchive@archive@boost@@VDatasetInfo@karto@@@detail@archive@boost@@EEBAPEAXXZ
	?heap_allocation@?$pointer_iserializer@Vbinary_iarchive@archive@boost@@VParameterManager@karto@@@detail@archive@boost@@EEBAPEAXXZ
	?is_locked@singleton_module@serialization@boost@@QEAA_NXZ
	?is_polymorphic@?$iserializer@Vbinary_iarchive@archive@boost@@U?$pair@$$CBHPEAVObject@karto@@@std@@@detail@archive@boost@@UEBA_NXZ
	?is_polymorphic@?$iserializer@Vbinary_iarchive@archive@boost@@U?$pair@$$CBV?$basic_string@DU?$char_traits@D@std@@V?$allocator@D@2@@std@@PEAVAbstractParameter@karto@@@std@@@detail@archive@boost@@UEBA_NXZ
	?is_polymorphic@?$iserializer@Vbinary_iarchive@archive@boost@@U?$pair@$$CBVName@karto@@PEAVSensor@2@@std@@@detail@archive@boost@@UEBA_NXZ
	?is_polymorphic@?$iserializer@Vbinary_iarchive@archive@boost@@V?$Parameter@V?$basic_string@DU?$char_traits@D@std@@V?$allocator@D@2@@std@@@karto@@@detail@archive@boost@@UEBA_NXZ
	?is_polymorphic@?$iserializer@Vbinary_iarchive@archive@boost@@V?$map@HPEAVObject@karto@@U?$less@H@std@@V?$allocator@U?$pair@$$CBHPEAVObject@karto@@@std@@@4@@std@@@detail@archive@boost@@UEBA_NXZ
	?is_polymorphic@?$iserializer@Vbinary_iarchive@archive@boost@@V?$map@V?$basic_string@DU?$char_traits@D@std@@V?$allocator@D@2@@std@@PEAVAbstractParameter@karto@@U?$less@V?$basic_string@DU?$char_traits@D@std@@V?$allocator@D@2@@std@@@2@V?$allocator@U?$pair@$$CBV?$basic_string@DU?$char_traits@D@std@@V?$allocator@D@2@@std@@PEAVAbstractParameter@karto@@@std@@@2@@std@@@detail@archive@boost@@UEBA_NXZ
	?is_polymorphic@?$iserializer@Vbinary_iarchive@archive@boost@@V?$map@VName@karto@@PEAVSensor@2@U?$less@VName@karto@@@std@@V?$allocator@U?$pair@$$CBVName@karto@@PEAVSensor@2@@std@@@5@@std@@@detail@archive@boost@@UEBA_NXZ
	?is_polymorphic@?$iserializer@Vbinary_iarchive@archive@boost@@V?$vector@PEAVAbstractParameter@karto@@V?$allocator@PEAVAbstractParameter@karto@@@std@@@std@@@detail@archive@boost@@UEBA_NXZ
	?is_polymorphic@?$iserializer@Vbinary_iarchive@archive@boost@@V?$vector@PEAVObject@karto@@V?$allocator@PEAVObject@karto@@@std@@@std@@@detail@archive@boost@@UEBA_NXZ
	?is_polymorphic@?$iserializer@Vbinary_iarchive@archive@boost@@VAbstractParameter@karto@@@detail@archive@boost@@UEBA_NXZ
	?is_polymorphic@?$iserializer@Vbinary_iarchive@archive@boost@@VDataset@karto@@@detail@archive@boost@@UEBA_NXZ
	?is_polymorphic@?$iserializer@Vbinary_iarchive@archive@boost@@VDatasetInfo@karto@@@detail@archive@boost@@UEBA_NXZ
	?is_polymorphic@?$iserializer@Vbinary_iarchive@archive@boost@@VName@karto@@@detail@archive@boost@@UEBA_NXZ
	?is_polymorphic@?$iserializer@Vbinary_iarchive@archive@boost@@VNonCopyable@karto@@@detail@archive@boost@@UEBA_NXZ
	?is_polymorphic@?$iserializer@Vbinary_iarchive@archive@boost@@VObject@karto@@@detail@archive@boost@@UEBA_NXZ
	?is_polymorphic@?$iserializer@Vbinary_iarchive@archive@boost@@VParameterManager@karto@@@detail@archive@boost@@UEBA_NXZ
	?is_polymorphic@?$oserializer@Vbinary_oarchive@archive@boost@@U?$pair@$$CBHPEAVObject@karto@@@std@@@detail@archive@boost@@UEBA_NXZ
	?is_polymorphic@?$oserializer@Vbinary_oarchive@archive@boost@@U?$pair@$$CBV?$basic_string@DU?$char_traits@D@std@@V?$allocator@D@2@@std@@PEAVAbstractParameter@karto@@@std@@@detail@archive@boost@@UEBA_NXZ
	?is_polymorphic@?$oserializer@Vbinary_oarchive@archive@boost@@U?$pair@$$CBVName@karto@@PEAVSensor@2@@std@@@detail@archive@boost@@UEBA_NXZ
	?is_polymorphic@?$oserializer@Vbinary_oarchive@archive@boost@@V?$Parameter@V?$basic_string@DU?$char_traits@D@std@@V?$allocator@D@2@@std@@@karto@@@detail@archive@boost@@UEBA_NXZ
	?is_polymorphic@?$oserializer@Vbinary_oarchive@archive@boost@@V?$map@HPEAVObject@karto@@U?$less@H@std@@V?$allocator@U?$pair@$$CBHPEAVObject@karto@@@std@@@4@@std@@@detail@archive@boost@@UEBA_NXZ
	?is_polymorphic@?$oserializer@Vbinary_oarchive@archive@boost@@V?$map@V?$basic_string@DU?$char_traits@D@std@@V?$allocator@D@2@@std@@PEAVAbstractParameter@karto@@U?$less@V?$basic_string@DU?$char_traits@D@std@@V?$allocator@D@2@@std@@@2@V?$allocator@U?$pair@$$CBV?$basic_string@DU?$char_traits@D@std@@V?$allocator@D@2@@std@@PEAVAbstractParameter@karto@@@std@@@2@@std@@@detail@archive@boost@@UEBA_NXZ
	?is_polymorphic@?$oserializer@Vbinary_oarchive@archive@boost@@V?$map@VName@karto@@PEAVSensor@2@U?$less@VName@karto@@@std@@V?$allocator@U?$pair@$$CBVName@karto@@PEAVSensor@2@@std@@@5@@std@@@detail@archive@boost@@UEBA_NXZ
	?is_polymorphic@?$oserializer@Vbinary_oarchive@archive@boost@@V?$vector@PEAVAbstractParameter@karto@@V?$allocator@PEAVAbstractParameter@karto@@@std@@@std@@@detail@archive@boost@@UEBA_NXZ
	?is_polymorphic@?$oserializer@Vbinary_oarchive@archive@boost@@V?$vector@PEAVObject@karto@@V?$allocator@PEAVObject@karto@@@std@@@std@@@detail@archive@boost@@UEBA_NXZ
	?is_polymorphic@?$oserializer@Vbinary_oarchive@archive@boost@@VAbstractParameter@karto@@@detail@archive@boost@@UEBA_NXZ
	?is_polymorphic@?$oserializer@Vbinary_oarchive@archive@boost@@VDataset@karto@@@detail@archive@boost@@UEBA_NXZ
	?is_polymorphic@?$oserializer@Vbinary_oarchive@archive@boost@@VDatasetInfo@karto@@@detail@archive@boost@@UEBA_NXZ
	?is_polymorphic@?$oserializer@Vbinary_oarchive@archive@boost@@VName@karto@@@detail@archive@boost@@UEBA_NXZ
	?is_polymorphic@?$oserializer@Vbinary_oarchive@archive@boost@@VNonCopyable@karto@@@detail@archive@boost@@UEBA_NXZ
	?is_polymorphic@?$oserializer@Vbinary_oarchive@archive@boost@@VObject@karto@@@detail@archive@boost@@UEBA_NXZ
	?is_polymorphic@?$oserializer@Vbinary_oarchive@archive@boost@@VParameterManager@karto@@@detail@archive@boost@@UEBA_NXZ
	?laserCallback@AsynchronousSlamToolbox@slam_toolbox@@MEAAXV?$shared_ptr@$$CBU?$LaserScan_@V?$allocator@X@std@@@msg@sensor_msgs@@@std@@@Z
	?load_object_data@?$iserializer@Vbinary_iarchive@archive@boost@@U?$pair@$$CBHPEAVObject@karto@@@std@@@detail@archive@boost@@UEBAXAEAVbasic_iarchive@234@PEAXI@Z
	?load_object_data@?$iserializer@Vbinary_iarchive@archive@boost@@U?$pair@$$CBV?$basic_string@DU?$char_traits@D@std@@V?$allocator@D@2@@std@@PEAVAbstractParameter@karto@@@std@@@detail@archive@boost@@UEBAXAEAVbasic_iarchive@234@PEAXI@Z
	?load_object_data@?$iserializer@Vbinary_iarchive@archive@boost@@U?$pair@$$CBVName@karto@@PEAVSensor@2@@std@@@detail@archive@boost@@UEBAXAEAVbasic_iarchive@234@PEAXI@Z
	?load_object_data@?$iserializer@Vbinary_iarchive@archive@boost@@V?$Parameter@V?$basic_string@DU?$char_traits@D@std@@V?$allocator@D@2@@std@@@karto@@@detail@archive@boost@@UEBAXAEAVbasic_iarchive@234@PEAXI@Z
	?load_object_data@?$iserializer@Vbinary_iarchive@archive@boost@@V?$map@HPEAVObject@karto@@U?$less@H@std@@V?$allocator@U?$pair@$$CBHPEAVObject@karto@@@std@@@4@@std@@@detail@archive@boost@@UEBAXAEAVbasic_iarchive@234@PEAXI@Z
	?load_object_data@?$iserializer@Vbinary_iarchive@archive@boost@@V?$map@V?$basic_string@DU?$char_traits@D@std@@V?$allocator@D@2@@std@@PEAVAbstractParameter@karto@@U?$less@V?$basic_string@DU?$char_traits@D@std@@V?$allocator@D@2@@std@@@2@V?$allocator@U?$pair@$$CBV?$basic_string@DU?$char_traits@D@std@@V?$allocator@D@2@@std@@PEAVAbstractParameter@karto@@@std@@@2@@std@@@detail@archive@boost@@UEBAXAEAVbasic_iarchive@234@PEAXI@Z
	?load_object_data@?$iserializer@Vbinary_iarchive@archive@boost@@V?$map@VName@karto@@PEAVSensor@2@U?$less@VName@karto@@@std@@V?$allocator@U?$pair@$$CBVName@karto@@PEAVSensor@2@@std@@@5@@std@@@detail@archive@boost@@UEBAXAEAVbasic_iarchive@234@PEAXI@Z
	?load_object_data@?$iserializer@Vbinary_iarchive@archive@boost@@V?$vector@PEAVAbstractParameter@karto@@V?$allocator@PEAVAbstractParameter@karto@@@std@@@std@@@detail@archive@boost@@UEBAXAEAVbasic_iarchive@234@PEAXI@Z
	?load_object_data@?$iserializer@Vbinary_iarchive@archive@boost@@V?$vector@PEAVObject@karto@@V?$allocator@PEAVObject@karto@@@std@@@std@@@detail@archive@boost@@UEBAXAEAVbasic_iarchive@234@PEAXI@Z
	?load_object_data@?$iserializer@Vbinary_iarchive@archive@boost@@VAbstractParameter@karto@@@detail@archive@boost@@UEBAXAEAVbasic_iarchive@234@PEAXI@Z
	?load_object_data@?$iserializer@Vbinary_iarchive@archive@boost@@VDataset@karto@@@detail@archive@boost@@UEBAXAEAVbasic_iarchive@234@PEAXI@Z
	?load_object_data@?$iserializer@Vbinary_iarchive@archive@boost@@VDatasetInfo@karto@@@detail@archive@boost@@UEBAXAEAVbasic_iarchive@234@PEAXI@Z
	?load_object_data@?$iserializer@Vbinary_iarchive@archive@boost@@VName@karto@@@detail@archive@boost@@UEBAXAEAVbasic_iarchive@234@PEAXI@Z
	?load_object_data@?$iserializer@Vbinary_iarchive@archive@boost@@VNonCopyable@karto@@@detail@archive@boost@@UEBAXAEAVbasic_iarchive@234@PEAXI@Z
	?load_object_data@?$iserializer@Vbinary_iarchive@archive@boost@@VObject@karto@@@detail@archive@boost@@UEBAXAEAVbasic_iarchive@234@PEAXI@Z
	?load_object_data@?$iserializer@Vbinary_iarchive@archive@boost@@VParameterManager@karto@@@detail@archive@boost@@UEBAXAEAVbasic_iarchive@234@PEAXI@Z
	?load_object_ptr@?$pointer_iserializer@Vbinary_iarchive@archive@boost@@VDatasetInfo@karto@@@detail@archive@boost@@EEBAXAEAVbasic_iarchive@234@PEAXI@Z
	?load_object_ptr@?$pointer_iserializer@Vbinary_iarchive@archive@boost@@VParameterManager@karto@@@detail@archive@boost@@EEBAXAEAVbasic_iarchive@234@PEAXI@Z
	?lock@singleton_module@serialization@boost@@QEAAXXZ
	?message@generic_error_category@detail@system@boost@@UEBA?AV?$basic_string@DU?$char_traits@D@std@@V?$allocator@D@2@@std@@H@Z
	?message@generic_error_category@detail@system@boost@@UEBAPEBDHPEAD_K@Z
	?message@system_error_category@detail@system@boost@@UEBA?AV?$basic_string@DU?$char_traits@D@std@@V?$allocator@D@2@@std@@H@Z
	?message@system_error_category@detail@system@boost@@UEBAPEBDHPEAD_K@Z
	?name@generic_error_category@detail@system@boost@@UEBAPEBDXZ
	?name@system_error_category@detail@system@boost@@UEBAPEBDXZ
	?overflow@?$basic_stringbuf@DU?$char_traits@D@std@@V?$allocator@D@2@@std@@MEAAHH@Z
	?pbackfail@?$basic_stringbuf@DU?$char_traits@D@std@@V?$allocator@D@2@@std@@MEAAHH@Z
	?resize@?$basic_string@DU?$char_traits@D@std@@V?$allocator@D@2@@std@@QEAAX_KD@Z
	?rethrow@?$clone_impl@Ubad_alloc_@exception_detail@boost@@@exception_detail@boost@@$0PPPPPPPM@A@EBAXXZ
	?rethrow@?$clone_impl@Ubad_alloc_@exception_detail@boost@@@exception_detail@boost@@EEBAXXZ
	?rethrow@?$clone_impl@Ubad_exception_@exception_detail@boost@@@exception_detail@boost@@$0PPPPPPPM@A@EBAXXZ
	?rethrow@?$clone_impl@Ubad_exception_@exception_detail@boost@@@exception_detail@boost@@EEBAXXZ
	?rethrow@?$wrapexcept@Vthread_resource_error@boost@@@boost@@UEBAXXZ
	?save_object_data@?$oserializer@Vbinary_oarchive@archive@boost@@U?$pair@$$CBHPEAVObject@karto@@@std@@@detail@archive@boost@@UEBAXAEAVbasic_oarchive@234@PEBX@Z
	?save_object_data@?$oserializer@Vbinary_oarchive@archive@boost@@U?$pair@$$CBV?$basic_string@DU?$char_traits@D@std@@V?$allocator@D@2@@std@@PEAVAbstractParameter@karto@@@std@@@detail@archive@boost@@UEBAXAEAVbasic_oarchive@234@PEBX@Z
	?save_object_data@?$oserializer@Vbinary_oarchive@archive@boost@@U?$pair@$$CBVName@karto@@PEAVSensor@2@@std@@@detail@archive@boost@@UEBAXAEAVbasic_oarchive@234@PEBX@Z
	?save_object_data@?$oserializer@Vbinary_oarchive@archive@boost@@V?$Parameter@V?$basic_string@DU?$char_traits@D@std@@V?$allocator@D@2@@std@@@karto@@@detail@archive@boost@@UEBAXAEAVbasic_oarchive@234@PEBX@Z
	?save_object_data@?$oserializer@Vbinary_oarchive@archive@boost@@V?$map@HPEAVObject@karto@@U?$less@H@std@@V?$allocator@U?$pair@$$CBHPEAVObject@karto@@@std@@@4@@std@@@detail@archive@boost@@UEBAXAEAVbasic_oarchive@234@PEBX@Z
	?save_object_data@?$oserializer@Vbinary_oarchive@archive@boost@@V?$map@V?$basic_string@DU?$char_traits@D@std@@V?$allocator@D@2@@std@@PEAVAbstractParameter@karto@@U?$less@V?$basic_string@DU?$char_traits@D@std@@V?$allocator@D@2@@std@@@2@V?$allocator@U?$pair@$$CBV?$basic_string@DU?$char_traits@D@std@@V?$allocator@D@2@@std@@PEAVAbstractParameter@karto@@@std@@@2@@std@@@detail@archive@boost@@UEBAXAEAVbasic_oarchive@234@PEBX@Z
	?save_object_data@?$oserializer@Vbinary_oarchive@archive@boost@@V?$map@VName@karto@@PEAVSensor@2@U?$less@VName@karto@@@std@@V?$allocator@U?$pair@$$CBVName@karto@@PEAVSensor@2@@std@@@5@@std@@@detail@archive@boost@@UEBAXAEAVbasic_oarchive@234@PEBX@Z
	?save_object_data@?$oserializer@Vbinary_oarchive@archive@boost@@V?$vector@PEAVAbstractParameter@karto@@V?$allocator@PEAVAbstractParameter@karto@@@std@@@std@@@detail@archive@boost@@UEBAXAEAVbasic_oarchive@234@PEBX@Z
	?save_object_data@?$oserializer@Vbinary_oarchive@archive@boost@@V?$vector@PEAVObject@karto@@V?$allocator@PEAVObject@karto@@@std@@@std@@@detail@archive@boost@@UEBAXAEAVbasic_oarchive@234@PEBX@Z
	?save_object_data@?$oserializer@Vbinary_oarchive@archive@boost@@VAbstractParameter@karto@@@detail@archive@boost@@UEBAXAEAVbasic_oarchive@234@PEBX@Z
	?save_object_data@?$oserializer@Vbinary_oarchive@archive@boost@@VDataset@karto@@@detail@archive@boost@@UEBAXAEAVbasic_oarchive@234@PEBX@Z
	?save_object_data@?$oserializer@Vbinary_oarchive@archive@boost@@VDatasetInfo@karto@@@detail@archive@boost@@UEBAXAEAVbasic_oarchive@234@PEBX@Z
	?save_object_data@?$oserializer@Vbinary_oarchive@archive@boost@@VName@karto@@@detail@archive@boost@@UEBAXAEAVbasic_oarchive@234@PEBX@Z
	?save_object_data@?$oserializer@Vbinary_oarchive@archive@boost@@VNonCopyable@karto@@@detail@archive@boost@@UEBAXAEAVbasic_oarchive@234@PEBX@Z
	?save_object_data@?$oserializer@Vbinary_oarchive@archive@boost@@VObject@karto@@@detail@archive@boost@@UEBAXAEAVbasic_oarchive@234@PEBX@Z
	?save_object_data@?$oserializer@Vbinary_oarchive@archive@boost@@VParameterManager@karto@@@detail@archive@boost@@UEBAXAEAVbasic_oarchive@234@PEBX@Z
	?save_object_ptr@?$pointer_oserializer@Vbinary_oarchive@archive@boost@@VDatasetInfo@karto@@@detail@archive@boost@@EEBAXAEAVbasic_oarchive@234@PEBX@Z
	?save_object_ptr@?$pointer_oserializer@Vbinary_oarchive@archive@boost@@VParameterManager@karto@@@detail@archive@boost@@EEBAXAEAVbasic_oarchive@234@PEBX@Z
	?seekoff@?$basic_stringbuf@DU?$char_traits@D@std@@V?$allocator@D@2@@std@@MEAA?AV?$fpos@U_Mbstatet@@@2@_JHH@Z
	?seekpos@?$basic_stringbuf@DU?$char_traits@D@std@@V?$allocator@D@2@@std@@MEAA?AV?$fpos@U_Mbstatet@@@2@V32@H@Z
	?sp_enable_shared_from_this@detail@boost@@YAXZZ
	?str@?$basic_stringbuf@DU?$char_traits@D@std@@V?$allocator@D@2@@std@@QEBA?AV?$basic_string@DU?$char_traits@D@std@@V?$allocator@D@2@@2@XZ
	?system_category_default_error_condition_win32@detail@system@boost@@YA?AVerror_condition@23@H@Z
	?system_category_message_win32@detail@system@boost@@YA?AV?$basic_string@DU?$char_traits@D@std@@V?$allocator@D@2@@std@@H@Z
	?tracking@?$iserializer@Vbinary_iarchive@archive@boost@@U?$pair@$$CBHPEAVObject@karto@@@std@@@detail@archive@boost@@UEBA_NI@Z
	?tracking@?$iserializer@Vbinary_iarchive@archive@boost@@U?$pair@$$CBV?$basic_string@DU?$char_traits@D@std@@V?$allocator@D@2@@std@@PEAVAbstractParameter@karto@@@std@@@detail@archive@boost@@UEBA_NI@Z
	?tracking@?$iserializer@Vbinary_iarchive@archive@boost@@U?$pair@$$CBVName@karto@@PEAVSensor@2@@std@@@detail@archive@boost@@UEBA_NI@Z
	?tracking@?$iserializer@Vbinary_iarchive@archive@boost@@V?$Parameter@V?$basic_string@DU?$char_traits@D@std@@V?$allocator@D@2@@std@@@karto@@@detail@archive@boost@@UEBA_NI@Z
	?tracking@?$iserializer@Vbinary_iarchive@archive@boost@@V?$map@HPEAVObject@karto@@U?$less@H@std@@V?$allocator@U?$pair@$$CBHPEAVObject@karto@@@std@@@4@@std@@@detail@archive@boost@@UEBA_NI@Z
	?tracking@?$iserializer@Vbinary_iarchive@archive@boost@@V?$map@V?$basic_string@DU?$char_traits@D@std@@V?$allocator@D@2@@std@@PEAVAbstractParameter@karto@@U?$less@V?$basic_string@DU?$char_traits@D@std@@V?$allocator@D@2@@std@@@2@V?$allocator@U?$pair@$$CBV?$basic_string@DU?$char_traits@D@std@@V?$allocator@D@2@@std@@PEAVAbstractParameter@karto@@@std@@@2@@std@@@detail@archive@boost@@UEBA_NI@Z
	?tracking@?$iserializer@Vbinary_iarchive@archive@boost@@V?$map@VName@karto@@PEAVSensor@2@U?$less@VName@karto@@@std@@V?$allocator@U?$pair@$$CBVName@karto@@PEAVSensor@2@@std@@@5@@std@@@detail@archive@boost@@UEBA_NI@Z
	?tracking@?$iserializer@Vbinary_iarchive@archive@boost@@V?$vector@PEAVAbstractParameter@karto@@V?$allocator@PEAVAbstractParameter@karto@@@std@@@std@@@detail@archive@boost@@UEBA_NI@Z
	?tracking@?$iserializer@Vbinary_iarchive@archive@boost@@V?$vector@PEAVObject@karto@@V?$allocator@PEAVObject@karto@@@std@@@std@@@detail@archive@boost@@UEBA_NI@Z
	?tracking@?$iserializer@Vbinary_iarchive@archive@boost@@VAbstractParameter@karto@@@detail@archive@boost@@UEBA_NI@Z
	?tracking@?$iserializer@Vbinary_iarchive@archive@boost@@VDataset@karto@@@detail@archive@boost@@UEBA_NI@Z
	?tracking@?$iserializer@Vbinary_iarchive@archive@boost@@VDatasetInfo@karto@@@detail@archive@boost@@UEBA_NI@Z
	?tracking@?$iserializer@Vbinary_iarchive@archive@boost@@VName@karto@@@detail@archive@boost@@UEBA_NI@Z
	?tracking@?$iserializer@Vbinary_iarchive@archive@boost@@VNonCopyable@karto@@@detail@archive@boost@@UEBA_NI@Z
	?tracking@?$iserializer@Vbinary_iarchive@archive@boost@@VObject@karto@@@detail@archive@boost@@UEBA_NI@Z
	?tracking@?$iserializer@Vbinary_iarchive@archive@boost@@VParameterManager@karto@@@detail@archive@boost@@UEBA_NI@Z
	?tracking@?$oserializer@Vbinary_oarchive@archive@boost@@U?$pair@$$CBHPEAVObject@karto@@@std@@@detail@archive@boost@@UEBA_NI@Z
	?tracking@?$oserializer@Vbinary_oarchive@archive@boost@@U?$pair@$$CBV?$basic_string@DU?$char_traits@D@std@@V?$allocator@D@2@@std@@PEAVAbstractParameter@karto@@@std@@@detail@archive@boost@@UEBA_NI@Z
	?tracking@?$oserializer@Vbinary_oarchive@archive@boost@@U?$pair@$$CBVName@karto@@PEAVSensor@2@@std@@@detail@archive@boost@@UEBA_NI@Z
	?tracking@?$oserializer@Vbinary_oarchive@archive@boost@@V?$Parameter@V?$basic_string@DU?$char_traits@D@std@@V?$allocator@D@2@@std@@@karto@@@detail@archive@boost@@UEBA_NI@Z
	?tracking@?$oserializer@Vbinary_oarchive@archive@boost@@V?$map@HPEAVObject@karto@@U?$less@H@std@@V?$allocator@U?$pair@$$CBHPEAVObject@karto@@@std@@@4@@std@@@detail@archive@boost@@UEBA_NI@Z
	?tracking@?$oserializer@Vbinary_oarchive@archive@boost@@V?$map@V?$basic_string@DU?$char_traits@D@std@@V?$allocator@D@2@@std@@PEAVAbstractParameter@karto@@U?$less@V?$basic_string@DU?$char_traits@D@std@@V?$allocator@D@2@@std@@@2@V?$allocator@U?$pair@$$CBV?$basic_string@DU?$char_traits@D@std@@V?$allocator@D@2@@std@@PEAVAbstractParameter@karto@@@std@@@2@@std@@@detail@archive@boost@@UEBA_NI@Z
	?tracking@?$oserializer@Vbinary_oarchive@archive@boost@@V?$map@VName@karto@@PEAVSensor@2@U?$less@VName@karto@@@std@@V?$allocator@U?$pair@$$CBVName@karto@@PEAVSensor@2@@std@@@5@@std@@@detail@archive@boost@@UEBA_NI@Z
	?tracking@?$oserializer@Vbinary_oarchive@archive@boost@@V?$vector@PEAVAbstractParameter@karto@@V?$allocator@PEAVAbstractParameter@karto@@@std@@@std@@@detail@archive@boost@@UEBA_NI@Z
	?tracking@?$oserializer@Vbinary_oarchive@archive@boost@@V?$vector@PEAVObject@karto@@V?$allocator@PEAVObject@karto@@@std@@@std@@@detail@archive@boost@@UEBA_NI@Z
	?tracking@?$oserializer@Vbinary_oarchive@archive@boost@@VAbstractParameter@karto@@@detail@archive@boost@@UEBA_NI@Z
	?tracking@?$oserializer@Vbinary_oarchive@archive@boost@@VDataset@karto@@@detail@archive@boost@@UEBA_NI@Z
	?tracking@?$oserializer@Vbinary_oarchive@archive@boost@@VDatasetInfo@karto@@@detail@archive@boost@@UEBA_NI@Z
	?tracking@?$oserializer@Vbinary_oarchive@archive@boost@@VName@karto@@@detail@archive@boost@@UEBA_NI@Z
	?tracking@?$oserializer@Vbinary_oarchive@archive@boost@@VNonCopyable@karto@@@detail@archive@boost@@UEBA_NI@Z
	?tracking@?$oserializer@Vbinary_oarchive@archive@boost@@VObject@karto@@@detail@archive@boost@@UEBA_NI@Z
	?tracking@?$oserializer@Vbinary_oarchive@archive@boost@@VParameterManager@karto@@@detail@archive@boost@@UEBA_NI@Z
	?underflow@?$basic_stringbuf@DU?$char_traits@D@std@@V?$allocator@D@2@@std@@MEAAHXZ
	?unknown_message_win32@detail@system@boost@@YA?AV?$basic_string@DU?$char_traits@D@std@@V?$allocator@D@2@@std@@H@Z
	?unlock@singleton_module@serialization@boost@@QEAAXXZ
	?upcast@?$void_caster_primitive@V?$Parameter@V?$basic_string@DU?$char_traits@D@std@@V?$allocator@D@2@@std@@@karto@@VAbstractParameter@2@@void_cast_detail@serialization@boost@@EEBAPEBXQEBX@Z
	?upcast@?$void_caster_primitive@VDatasetInfo@karto@@VObject@2@@void_cast_detail@serialization@boost@@EEBAPEBXQEBX@Z
	?upcast@?$void_caster_primitive@VObject@karto@@VNonCopyable@2@@void_cast_detail@serialization@boost@@EEBAPEBXQEBX@Z
	?upcast@?$void_caster_primitive@VParameterManager@karto@@VNonCopyable@2@@void_cast_detail@serialization@boost@@EEBAPEBXQEBX@Z
	?version@?$iserializer@Vbinary_iarchive@archive@boost@@U?$pair@$$CBHPEAVObject@karto@@@std@@@detail@archive@boost@@UEBA?AVversion_type@34@XZ
	?version@?$iserializer@Vbinary_iarchive@archive@boost@@U?$pair@$$CBV?$basic_string@DU?$char_traits@D@std@@V?$allocator@D@2@@std@@PEAVAbstractParameter@karto@@@std@@@detail@archive@boost@@UEBA?AVversion_type@34@XZ
	?version@?$iserializer@Vbinary_iarchive@archive@boost@@U?$pair@$$CBVName@karto@@PEAVSensor@2@@std@@@detail@archive@boost@@UEBA?AVversion_type@34@XZ
	?version@?$iserializer@Vbinary_iarchive@archive@boost@@V?$Parameter@V?$basic_string@DU?$char_traits@D@std@@V?$allocator@D@2@@std@@@karto@@@detail@archive@boost@@UEBA?AVversion_type@34@XZ
	?version@?$iserializer@Vbinary_iarchive@archive@boost@@V?$map@HPEAVObject@karto@@U?$less@H@std@@V?$allocator@U?$pair@$$CBHPEAVObject@karto@@@std@@@4@@std@@@detail@archive@boost@@UEBA?AVversion_type@34@XZ
	?version@?$iserializer@Vbinary_iarchive@archive@boost@@V?$map@V?$basic_string@DU?$char_traits@D@std@@V?$allocator@D@2@@std@@PEAVAbstractParameter@karto@@U?$less@V?$basic_string@DU?$char_traits@D@std@@V?$allocator@D@2@@std@@@2@V?$allocator@U?$pair@$$CBV?$basic_string@DU?$char_traits@D@std@@V?$allocator@D@2@@std@@PEAVAbstractParameter@karto@@@std@@@2@@std@@@detail@archive@boost@@UEBA?AVversion_type@34@XZ
	?version@?$iserializer@Vbinary_iarchive@archive@boost@@V?$map@VName@karto@@PEAVSensor@2@U?$less@VName@karto@@@std@@V?$allocator@U?$pair@$$CBVName@karto@@PEAVSensor@2@@std@@@5@@std@@@detail@archive@boost@@UEBA?AVversion_type@34@XZ
	?version@?$iserializer@Vbinary_iarchive@archive@boost@@V?$vector@PEAVAbstractParameter@karto@@V?$allocator@PEAVAbstractParameter@karto@@@std@@@std@@@detail@archive@boost@@UEBA?AVversion_type@34@XZ
	?version@?$iserializer@Vbinary_iarchive@archive@boost@@V?$vector@PEAVObject@karto@@V?$allocator@PEAVObject@karto@@@std@@@std@@@detail@archive@boost@@UEBA?AVversion_type@34@XZ
	?version@?$iserializer@Vbinary_iarchive@archive@boost@@VAbstractParameter@karto@@@detail@archive@boost@@UEBA?AVversion_type@34@XZ
	?version@?$iserializer@Vbinary_iarchive@archive@boost@@VDataset@karto@@@detail@archive@boost@@UEBA?AVversion_type@34@XZ
	?version@?$iserializer@Vbinary_iarchive@archive@boost@@VDatasetInfo@karto@@@detail@archive@boost@@UEBA?AVversion_type@34@XZ
	?version@?$iserializer@Vbinary_iarchive@archive@boost@@VName@karto@@@detail@archive@boost@@UEBA?AVversion_type@34@XZ
	?version@?$iserializer@Vbinary_iarchive@archive@boost@@VNonCopyable@karto@@@detail@archive@boost@@UEBA?AVversion_type@34@XZ
	?version@?$iserializer@Vbinary_iarchive@archive@boost@@VObject@karto@@@detail@archive@boost@@UEBA?AVversion_type@34@XZ
	?version@?$iserializer@Vbinary_iarchive@archive@boost@@VParameterManager@karto@@@detail@archive@boost@@UEBA?AVversion_type@34@XZ
	?version@?$oserializer@Vbinary_oarchive@archive@boost@@U?$pair@$$CBHPEAVObject@karto@@@std@@@detail@archive@boost@@UEBA?AVversion_type@34@XZ
	?version@?$oserializer@Vbinary_oarchive@archive@boost@@U?$pair@$$CBV?$basic_string@DU?$char_traits@D@std@@V?$allocator@D@2@@std@@PEAVAbstractParameter@karto@@@std@@@detail@archive@boost@@UEBA?AVversion_type@34@XZ
	?version@?$oserializer@Vbinary_oarchive@archive@boost@@U?$pair@$$CBVName@karto@@PEAVSensor@2@@std@@@detail@archive@boost@@UEBA?AVversion_type@34@XZ
	?version@?$oserializer@Vbinary_oarchive@archive@boost@@V?$Parameter@V?$basic_string@DU?$char_traits@D@std@@V?$allocator@D@2@@std@@@karto@@@detail@archive@boost@@UEBA?AVversion_type@34@XZ
	?version@?$oserializer@Vbinary_oarchive@archive@boost@@V?$map@HPEAVObject@karto@@U?$less@H@std@@V?$allocator@U?$pair@$$CBHPEAVObject@karto@@@std@@@4@@std@@@detail@archive@boost@@UEBA?AVversion_type@34@XZ
	?version@?$oserializer@Vbinary_oarchive@archive@boost@@V?$map@V?$basic_string@DU?$char_traits@D@std@@V?$allocator@D@2@@std@@PEAVAbstractParameter@karto@@U?$less@V?$basic_string@DU?$char_traits@D@std@@V?$allocator@D@2@@std@@@2@V?$allocator@U?$pair@$$CBV?$basic_string@DU?$char_traits@D@std@@V?$allocator@D@2@@std@@PEAVAbstractParameter@karto@@@std@@@2@@std@@@detail@archive@boost@@UEBA?AVversion_type@34@XZ
	?version@?$oserializer@Vbinary_oarchive@archive@boost@@V?$map@VName@karto@@PEAVSensor@2@U?$less@VName@karto@@@std@@V?$allocator@U?$pair@$$CBVName@karto@@PEAVSensor@2@@std@@@5@@std@@@detail@archive@boost@@UEBA?AVversion_type@34@XZ
	?version@?$oserializer@Vbinary_oarchive@archive@boost@@V?$vector@PEAVAbstractParameter@karto@@V?$allocator@PEAVAbstractParameter@karto@@@std@@@std@@@detail@archive@boost@@UEBA?AVversion_type@34@XZ
	?version@?$oserializer@Vbinary_oarchive@archive@boost@@V?$vector@PEAVObject@karto@@V?$allocator@PEAVObject@karto@@@std@@@std@@@detail@archive@boost@@UEBA?AVversion_type@34@XZ
	?version@?$oserializer@Vbinary_oarchive@archive@boost@@VAbstractParameter@karto@@@detail@archive@boost@@UEBA?AVversion_type@34@XZ
	?version@?$oserializer@Vbinary_oarchive@archive@boost@@VDataset@karto@@@detail@archive@boost@@UEBA?AVversion_type@34@XZ
	?version@?$oserializer@Vbinary_oarchive@archive@boost@@VDatasetInfo@karto@@@detail@archive@boost@@UEBA?AVversion_type@34@XZ
	?version@?$oserializer@Vbinary_oarchive@archive@boost@@VName@karto@@@detail@archive@boost@@UEBA?AVversion_type@34@XZ
	?version@?$oserializer@Vbinary_oarchive@archive@boost@@VNonCopyable@karto@@@detail@archive@boost@@UEBA?AVversion_type@34@XZ
	?version@?$oserializer@Vbinary_oarchive@archive@boost@@VObject@karto@@@detail@archive@boost@@UEBA?AVversion_type@34@XZ
	?version@?$oserializer@Vbinary_oarchive@archive@boost@@VParameterManager@karto@@@detail@archive@boost@@UEBA?AVversion_type@34@XZ
	?what@exception@std@@UEBAPEBDXZ
	?what@system_error@system@boost@@UEBAPEBDXZ
	__local_stdio_printf_options
	snprintf
