EXPORTS 
	?$TSS0@?1???$get_static_exception_object@Ubad_alloc_@exception_detail@boost@@@exception_detail@boost@@YA?AVexception_ptr@2@XZ@4HA 	 DATA
	?$TSS0@?1???$get_static_exception_object@Ubad_exception_@exception_detail@boost@@@exception_detail@boost@@YA?AVexception_ptr@2@XZ@4HA 	 DATA
	?$TSS0@?1??get_instance@?$singleton@V?$archive_serializer_map@Vbinary_oarchive@archive@boost@@@detail@archive@boost@@@serialization@boost@@CAAEAV?$archive_serializer_map@Vbinary_oarchive@archive@boost@@@detail@archive@4@XZ@4HA 	 DATA
	?$TSS0@?1??get_instance@?$singleton@V?$extended_type_info_typeid@U?$pair@$$CBHPEAVObject@karto@@@std@@@serialization@boost@@@serialization@boost@@CAAEAV?$extended_type_info_typeid@U?$pair@$$CBHPEAVObject@karto@@@std@@@34@XZ@4HA 	 DATA
	?$TSS0@?1??get_instance@?$singleton@V?$extended_type_info_typeid@U?$pair@$$CBV?$basic_string@DU?$char_traits@D@std@@V?$allocator@D@2@@std@@PEAVAbstractParameter@karto@@@std@@@serialization@boost@@@serialization@boost@@CAAEAV?$extended_type_info_typeid@U?$pair@$$CBV?$basic_string@DU?$char_traits@D@std@@V?$allocator@D@2@@std@@PEAVAbstractParameter@karto@@@std@@@34@XZ@4HA 	 DATA
	?$TSS0@?1??get_instance@?$singleton@V?$extended_type_info_typeid@U?$pair@$$CBVName@karto@@PEAVSensor@2@@std@@@serialization@boost@@@serialization@boost@@CAAEAV?$extended_type_info_typeid@U?$pair@$$CBVName@karto@@PEAVSensor@2@@std@@@34@XZ@4HA 	 DATA
	?$TSS0@?1??get_instance@?$singleton@V?$extended_type_info_typeid@V?$Parameter@V?$basic_string@DU?$char_traits@D@std@@V?$allocator@D@2@@std@@@karto@@@serialization@boost@@@serialization@boost@@CAAEAV?$extended_type_info_typeid@V?$Parameter@V?$basic_string@DU?$char_traits@D@std@@V?$allocator@D@2@@std@@@karto@@@34@XZ@4HA 	 DATA
	?$TSS0@?1??get_instance@?$singleton@V?$extended_type_info_typeid@V?$map@HPEAVObject@karto@@U?$less@H@std@@V?$allocator@U?$pair@$$CBHPEAVObject@karto@@@std@@@4@@std@@@serialization@boost@@@serialization@boost@@CAAEAV?$extended_type_info_typeid@V?$map@HPEAVObject@karto@@U?$less@H@std@@V?$allocator@U?$pair@$$CBHPEAVObject@karto@@@std@@@4@@std@@@34@XZ@4HA 	 DATA
	?$TSS0@?1??get_instance@?$singleton@V?$extended_type_info_typeid@V?$map@V?$basic_string@DU?$char_traits@D@std@@V?$allocator@D@2@@std@@PEAVAbstractParameter@karto@@U?$less@V?$basic_string@DU?$char_traits@D@std@@V?$allocator@D@2@@std@@@2@V?$allocator@U?$pair@$$CBV?$basic_string@DU?$char_traits@D@std@@V?$allocator@D@2@@std@@PEAVAbstractParameter@karto@@@std@@@2@@std@@@serialization@boost@@@serialization@boost@@CAAEAV?$extended_type_info_typeid@V?$map@V?$basic_string@DU?$char_traits@D@std@@V?$allocator@D@2@@std@@PEAVAbstractParameter@karto@@U?$less@V?$basic_string@DU?$char_traits@D@std@@V?$allocator@D@2@@std@@@2@V?$allocator@U?$pair@$$CBV?$basic_string@DU?$char_traits@D@std@@V?$allocator@D@2@@std@@PEAVAbstractParameter@karto@@@std@@@2@@std@@@34@XZ@4HA 	 DATA
	?$TSS0@?1??get_instance@?$singleton@V?$extended_type_info_typeid@V?$map@VName@karto@@PEAVSensor@2@U?$less@VName@karto@@@std@@V?$allocator@U?$pair@$$CBVName@karto@@PEAVSensor@2@@std@@@5@@std@@@serialization@boost@@@serialization@boost@@CAAEAV?$extended_type_info_typeid@V?$map@VName@karto@@PEAVSensor@2@U?$less@VName@karto@@@std@@V?$allocator@U?$pair@$$CBVName@karto@@PEAVSensor@2@@std@@@5@@std@@@34@XZ@4HA 	 DATA
	?$TSS0@?1??get_instance@?$singleton@V?$extended_type_info_typeid@V?$vector@PEAVAbstractParameter@karto@@V?$allocator@PEAVAbstractParameter@karto@@@std@@@std@@@serialization@boost@@@serialization@boost@@CAAEAV?$extended_type_info_typeid@V?$vector@PEAVAbstractParameter@karto@@V?$allocator@PEAVAbstractParameter@karto@@@std@@@std@@@34@XZ@4HA 	 DATA
	?$TSS0@?1??get_instance@?$singleton@V?$extended_type_info_typeid@V?$vector@PEAVObject@karto@@V?$allocator@PEAVObject@karto@@@std@@@std@@@serialization@boost@@@serialization@boost@@CAAEAV?$extended_type_info_typeid@V?$vector@PEAVObject@karto@@V?$allocator@PEAVObject@karto@@@std@@@std@@@34@XZ@4HA 	 DATA
	?$TSS0@?1??get_instance@?$singleton@V?$extended_type_info_typeid@VAbstractParameter@karto@@@serialization@boost@@@serialization@boost@@CAAEAV?$extended_type_info_typeid@VAbstractParameter@karto@@@34@XZ@4HA 	 DATA
	?$TSS0@?1??get_instance@?$singleton@V?$extended_type_info_typeid@VDataset@karto@@@serialization@boost@@@serialization@boost@@CAAEAV?$extended_type_info_typeid@VDataset@karto@@@34@XZ@4HA 	 DATA
	?$TSS0@?1??get_instance@?$singleton@V?$extended_type_info_typeid@VDatasetInfo@karto@@@serialization@boost@@@serialization@boost@@CAAEAV?$extended_type_info_typeid@VDatasetInfo@karto@@@34@XZ@4HA 	 DATA
	?$TSS0@?1??get_instance@?$singleton@V?$extended_type_info_typeid@VName@karto@@@serialization@boost@@@serialization@boost@@CAAEAV?$extended_type_info_typeid@VName@karto@@@34@XZ@4HA 	 DATA
	?$TSS0@?1??get_instance@?$singleton@V?$extended_type_info_typeid@VNonCopyable@karto@@@serialization@boost@@@serialization@boost@@CAAEAV?$extended_type_info_typeid@VNonCopyable@karto@@@34@XZ@4HA 	 DATA
	?$TSS0@?1??get_instance@?$singleton@V?$extended_type_info_typeid@VObject@karto@@@serialization@boost@@@serialization@boost@@CAAEAV?$extended_type_info_typeid@VObject@karto@@@34@XZ@4HA 	 DATA
	?$TSS0@?1??get_instance@?$singleton@V?$extended_type_info_typeid@VParameterManager@karto@@@serialization@boost@@@serialization@boost@@CAAEAV?$extended_type_info_typeid@VParameterManager@karto@@@34@XZ@4HA 	 DATA
	?$TSS0@?1??get_instance@?$singleton@V?$extended_type_info_typeid@VSensor@karto@@@serialization@boost@@@serialization@boost@@CAAEAV?$extended_type_info_typeid@VSensor@karto@@@34@XZ@4HA 	 DATA
	?$TSS0@?1??get_instance@?$singleton@V?$iserializer@Vbinary_iarchive@archive@boost@@U?$pair@$$CBHPEAVObject@karto@@@std@@@detail@archive@boost@@@serialization@boost@@CAAEAV?$iserializer@Vbinary_iarchive@archive@boost@@U?$pair@$$CBHPEAVObject@karto@@@std@@@detail@archive@4@XZ@4HA 	 DATA
	?$TSS0@?1??get_instance@?$singleton@V?$iserializer@Vbinary_iarchive@archive@boost@@U?$pair@$$CBV?$basic_string@DU?$char_traits@D@std@@V?$allocator@D@2@@std@@PEAVAbstractParameter@karto@@@std@@@detail@archive@boost@@@serialization@boost@@CAAEAV?$iserializer@Vbinary_iarchive@archive@boost@@U?$pair@$$CBV?$basic_string@DU?$char_traits@D@std@@V?$allocator@D@2@@std@@PEAVAbstractParameter@karto@@@std@@@detail@archive@4@XZ@4HA 	 DATA
	?$TSS0@?1??get_instance@?$singleton@V?$iserializer@Vbinary_iarchive@archive@boost@@U?$pair@$$CBVName@karto@@PEAVSensor@2@@std@@@detail@archive@boost@@@serialization@boost@@CAAEAV?$iserializer@Vbinary_iarchive@archive@boost@@U?$pair@$$CBVName@karto@@PEAVSensor@2@@std@@@detail@archive@4@XZ@4HA 	 DATA
	?$TSS0@?1??get_instance@?$singleton@V?$iserializer@Vbinary_iarchive@archive@boost@@V?$Parameter@V?$basic_string@DU?$char_traits@D@std@@V?$allocator@D@2@@std@@@karto@@@detail@archive@boost@@@serialization@boost@@CAAEAV?$iserializer@Vbinary_iarchive@archive@boost@@V?$Parameter@V?$basic_string@DU?$char_traits@D@std@@V?$allocator@D@2@@std@@@karto@@@detail@archive@4@XZ@4HA 	 DATA
	?$TSS0@?1??get_instance@?$singleton@V?$iserializer@Vbinary_iarchive@archive@boost@@V?$map@HPEAVObject@karto@@U?$less@H@std@@V?$allocator@U?$pair@$$CBHPEAVObject@karto@@@std@@@4@@std@@@detail@archive@boost@@@serialization@boost@@CAAEAV?$iserializer@Vbinary_iarchive@archive@boost@@V?$map@HPEAVObject@karto@@U?$less@H@std@@V?$allocator@U?$pair@$$CBHPEAVObject@karto@@@std@@@4@@std@@@detail@archive@4@XZ@4HA 	 DATA
	?$TSS0@?1??get_instance@?$singleton@V?$iserializer@Vbinary_iarchive@archive@boost@@V?$map@V?$basic_string@DU?$char_traits@D@std@@V?$allocator@D@2@@std@@PEAVAbstractParameter@karto@@U?$less@V?$basic_string@DU?$char_traits@D@std@@V?$allocator@D@2@@std@@@2@V?$allocator@U?$pair@$$CBV?$basic_string@DU?$char_traits@D@std@@V?$allocator@D@2@@std@@PEAVAbstractParameter@karto@@@std@@@2@@std@@@detail@archive@boost@@@serialization@boost@@CAAEAV?$iserializer@Vbinary_iarchive@archive@boost@@V?$map@V?$basic_string@DU?$char_traits@D@std@@V?$allocator@D@2@@std@@PEAVAbstractParameter@karto@@U?$less@V?$basic_string@DU?$char_traits@D@std@@V?$allocator@D@2@@std@@@2@V?$allocator@U?$pair@$$CBV?$basic_string@DU?$char_traits@D@std@@V?$allocator@D@2@@std@@PEAVAbstractParameter@karto@@@std@@@2@@std@@@detail@archive@4@XZ@4HA 	 DATA
	?$TSS0@?1??get_instance@?$singleton@V?$iserializer@Vbinary_iarchive@archive@boost@@V?$map@VName@karto@@PEAVSensor@2@U?$less@VName@karto@@@std@@V?$allocator@U?$pair@$$CBVName@karto@@PEAVSensor@2@@std@@@5@@std@@@detail@archive@boost@@@serialization@boost@@CAAEAV?$iserializer@Vbinary_iarchive@archive@boost@@V?$map@VName@karto@@PEAVSensor@2@U?$less@VName@karto@@@std@@V?$allocator@U?$pair@$$CBVName@karto@@PEAVSensor@2@@std@@@5@@std@@@detail@archive@4@XZ@4HA 	 DATA
	?$TSS0@?1??get_instance@?$singleton@V?$iserializer@Vbinary_iarchive@archive@boost@@V?$vector@PEAVAbstractParameter@karto@@V?$allocator@PEAVAbstractParameter@karto@@@std@@@std@@@detail@archive@boost@@@serialization@boost@@CAAEAV?$iserializer@Vbinary_iarchive@archive@boost@@V?$vector@PEAVAbstractParameter@karto@@V?$allocator@PEAVAbstractParameter@karto@@@std@@@std@@@detail@archive@4@XZ@4HA 	 DATA
	?$TSS0@?1??get_instance@?$singleton@V?$iserializer@Vbinary_iarchive@archive@boost@@V?$vector@PEAVObject@karto@@V?$allocator@PEAVObject@karto@@@std@@@std@@@detail@archive@boost@@@serialization@boost@@CAAEAV?$iserializer@Vbinary_iarchive@archive@boost@@V?$vector@PEAVObject@karto@@V?$allocator@PEAVObject@karto@@@std@@@std@@@detail@archive@4@XZ@4HA 	 DATA
	?$TSS0@?1??get_instance@?$singleton@V?$iserializer@Vbinary_iarchive@archive@boost@@VAbstractParameter@karto@@@detail@archive@boost@@@serialization@boost@@CAAEAV?$iserializer@Vbinary_iarchive@archive@boost@@VAbstractParameter@karto@@@detail@archive@4@XZ@4HA 	 DATA
	?$TSS0@?1??get_instance@?$singleton@V?$iserializer@Vbinary_iarchive@archive@boost@@VDataset@karto@@@detail@archive@boost@@@serialization@boost@@CAAEAV?$iserializer@Vbinary_iarchive@archive@boost@@VDataset@karto@@@detail@archive@4@XZ@4HA 	 DATA
	?$TSS0@?1??get_instance@?$singleton@V?$iserializer@Vbinary_iarchive@archive@boost@@VDatasetInfo@karto@@@detail@archive@boost@@@serialization@boost@@CAAEAV?$iserializer@Vbinary_iarchive@archive@boost@@VDatasetInfo@karto@@@detail@archive@4@XZ@4HA 	 DATA
	?$TSS0@?1??get_instance@?$singleton@V?$iserializer@Vbinary_iarchive@archive@boost@@VName@karto@@@detail@archive@boost@@@serialization@boost@@CAAEAV?$iserializer@Vbinary_iarchive@archive@boost@@VName@karto@@@detail@archive@4@XZ@4HA 	 DATA
	?$TSS0@?1??get_instance@?$singleton@V?$iserializer@Vbinary_iarchive@archive@boost@@VNonCopyable@karto@@@detail@archive@boost@@@serialization@boost@@CAAEAV?$iserializer@Vbinary_iarchive@archive@boost@@VNonCopyable@karto@@@detail@archive@4@XZ@4HA 	 DATA
	?$TSS0@?1??get_instance@?$singleton@V?$iserializer@Vbinary_iarchive@archive@boost@@VObject@karto@@@detail@archive@boost@@@serialization@boost@@CAAEAV?$iserializer@Vbinary_iarchive@archive@boost@@VObject@karto@@@detail@archive@4@XZ@4HA 	 DATA
	?$TSS0@?1??get_instance@?$singleton@V?$iserializer@Vbinary_iarchive@archive@boost@@VParameterManager@karto@@@detail@archive@boost@@@serialization@boost@@CAAEAV?$iserializer@Vbinary_iarchive@archive@boost@@VParameterManager@karto@@@detail@archive@4@XZ@4HA 	 DATA
	?$TSS0@?1??get_instance@?$singleton@V?$oserializer@Vbinary_oarchive@archive@boost@@U?$pair@$$CBHPEAVObject@karto@@@std@@@detail@archive@boost@@@serialization@boost@@CAAEAV?$oserializer@Vbinary_oarchive@archive@boost@@U?$pair@$$CBHPEAVObject@karto@@@std@@@detail@archive@4@XZ@4HA 	 DATA
	?$TSS0@?1??get_instance@?$singleton@V?$oserializer@Vbinary_oarchive@archive@boost@@U?$pair@$$CBV?$basic_string@DU?$char_traits@D@std@@V?$allocator@D@2@@std@@PEAVAbstractParameter@karto@@@std@@@detail@archive@boost@@@serialization@boost@@CAAEAV?$oserializer@Vbinary_oarchive@archive@boost@@U?$pair@$$CBV?$basic_string@DU?$char_traits@D@std@@V?$allocator@D@2@@std@@PEAVAbstractParameter@karto@@@std@@@detail@archive@4@XZ@4HA 	 DATA
	?$TSS0@?1??get_instance@?$singleton@V?$oserializer@Vbinary_oarchive@archive@boost@@U?$pair@$$CBVName@karto@@PEAVSensor@2@@std@@@detail@archive@boost@@@serialization@boost@@CAAEAV?$oserializer@Vbinary_oarchive@archive@boost@@U?$pair@$$CBVName@karto@@PEAVSensor@2@@std@@@detail@archive@4@XZ@4HA 	 DATA
	?$TSS0@?1??get_instance@?$singleton@V?$oserializer@Vbinary_oarchive@archive@boost@@V?$Parameter@V?$basic_string@DU?$char_traits@D@std@@V?$allocator@D@2@@std@@@karto@@@detail@archive@boost@@@serialization@boost@@CAAEAV?$oserializer@Vbinary_oarchive@archive@boost@@V?$Parameter@V?$basic_string@DU?$char_traits@D@std@@V?$allocator@D@2@@std@@@karto@@@detail@archive@4@XZ@4HA 	 DATA
	?$TSS0@?1??get_instance@?$singleton@V?$oserializer@Vbinary_oarchive@archive@boost@@V?$map@HPEAVObject@karto@@U?$less@H@std@@V?$allocator@U?$pair@$$CBHPEAVObject@karto@@@std@@@4@@std@@@detail@archive@boost@@@serialization@boost@@CAAEAV?$oserializer@Vbinary_oarchive@archive@boost@@V?$map@HPEAVObject@karto@@U?$less@H@std@@V?$allocator@U?$pair@$$CBHPEAVObject@karto@@@std@@@4@@std@@@detail@archive@4@XZ@4HA 	 DATA
	?$TSS0@?1??get_instance@?$singleton@V?$oserializer@Vbinary_oarchive@archive@boost@@V?$map@V?$basic_string@DU?$char_traits@D@std@@V?$allocator@D@2@@std@@PEAVAbstractParameter@karto@@U?$less@V?$basic_string@DU?$char_traits@D@std@@V?$allocator@D@2@@std@@@2@V?$allocator@U?$pair@$$CBV?$basic_string@DU?$char_traits@D@std@@V?$allocator@D@2@@std@@PEAVAbstractParameter@karto@@@std@@@2@@std@@@detail@archive@boost@@@serialization@boost@@CAAEAV?$oserializer@Vbinary_oarchive@archive@boost@@V?$map@V?$basic_string@DU?$char_traits@D@std@@V?$allocator@D@2@@std@@PEAVAbstractParameter@karto@@U?$less@V?$basic_string@DU?$char_traits@D@std@@V?$allocator@D@2@@std@@@2@V?$allocator@U?$pair@$$CBV?$basic_string@DU?$char_traits@D@std@@V?$allocator@D@2@@std@@PEAVAbstractParameter@karto@@@std@@@2@@std@@@detail@archive@4@XZ@4HA 	 DATA
	?$TSS0@?1??get_instance@?$singleton@V?$oserializer@Vbinary_oarchive@archive@boost@@V?$map@VName@karto@@PEAVSensor@2@U?$less@VName@karto@@@std@@V?$allocator@U?$pair@$$CBVName@karto@@PEAVSensor@2@@std@@@5@@std@@@detail@archive@boost@@@serialization@boost@@CAAEAV?$oserializer@Vbinary_oarchive@archive@boost@@V?$map@VName@karto@@PEAVSensor@2@U?$less@VName@karto@@@std@@V?$allocator@U?$pair@$$CBVName@karto@@PEAVSensor@2@@std@@@5@@std@@@detail@archive@4@XZ@4HA 	 DATA
	?$TSS0@?1??get_instance@?$singleton@V?$oserializer@Vbinary_oarchive@archive@boost@@V?$vector@PEAVAbstractParameter@karto@@V?$allocator@PEAVAbstractParameter@karto@@@std@@@std@@@detail@archive@boost@@@serialization@boost@@CAAEAV?$oserializer@Vbinary_oarchive@archive@boost@@V?$vector@PEAVAbstractParameter@karto@@V?$allocator@PEAVAbstractParameter@karto@@@std@@@std@@@detail@archive@4@XZ@4HA 	 DATA
	?$TSS0@?1??get_instance@?$singleton@V?$oserializer@Vbinary_oarchive@archive@boost@@V?$vector@PEAVObject@karto@@V?$allocator@PEAVObject@karto@@@std@@@std@@@detail@archive@boost@@@serialization@boost@@CAAEAV?$oserializer@Vbinary_oarchive@archive@boost@@V?$vector@PEAVObject@karto@@V?$allocator@PEAVObject@karto@@@std@@@std@@@detail@archive@4@XZ@4HA 	 DATA
	?$TSS0@?1??get_instance@?$singleton@V?$oserializer@Vbinary_oarchive@archive@boost@@VAbstractParameter@karto@@@detail@archive@boost@@@serialization@boost@@CAAEAV?$oserializer@Vbinary_oarchive@archive@boost@@VAbstractParameter@karto@@@detail@archive@4@XZ@4HA 	 DATA
	?$TSS0@?1??get_instance@?$singleton@V?$oserializer@Vbinary_oarchive@archive@boost@@VDataset@karto@@@detail@archive@boost@@@serialization@boost@@CAAEAV?$oserializer@Vbinary_oarchive@archive@boost@@VDataset@karto@@@detail@archive@4@XZ@4HA 	 DATA
	?$TSS0@?1??get_instance@?$singleton@V?$oserializer@Vbinary_oarchive@archive@boost@@VDatasetInfo@karto@@@detail@archive@boost@@@serialization@boost@@CAAEAV?$oserializer@Vbinary_oarchive@archive@boost@@VDatasetInfo@karto@@@detail@archive@4@XZ@4HA 	 DATA
	?$TSS0@?1??get_instance@?$singleton@V?$oserializer@Vbinary_oarchive@archive@boost@@VName@karto@@@detail@archive@boost@@@serialization@boost@@CAAEAV?$oserializer@Vbinary_oarchive@archive@boost@@VName@karto@@@detail@archive@4@XZ@4HA 	 DATA
	?$TSS0@?1??get_instance@?$singleton@V?$oserializer@Vbinary_oarchive@archive@boost@@VNonCopyable@karto@@@detail@archive@boost@@@serialization@boost@@CAAEAV?$oserializer@Vbinary_oarchive@archive@boost@@VNonCopyable@karto@@@detail@archive@4@XZ@4HA 	 DATA
	?$TSS0@?1??get_instance@?$singleton@V?$oserializer@Vbinary_oarchive@archive@boost@@VObject@karto@@@detail@archive@boost@@@serialization@boost@@CAAEAV?$oserializer@Vbinary_oarchive@archive@boost@@VObject@karto@@@detail@archive@4@XZ@4HA 	 DATA
	?$TSS0@?1??get_instance@?$singleton@V?$oserializer@Vbinary_oarchive@archive@boost@@VParameterManager@karto@@@detail@archive@boost@@@serialization@boost@@CAAEAV?$oserializer@Vbinary_oarchive@archive@boost@@VParameterManager@karto@@@detail@archive@4@XZ@4HA 	 DATA
	?$TSS0@?1??get_instance@?$singleton@V?$pointer_iserializer@Vbinary_iarchive@archive@boost@@VDatasetInfo@karto@@@detail@archive@boost@@@serialization@boost@@CAAEAV?$pointer_iserializer@Vbinary_iarchive@archive@boost@@VDatasetInfo@karto@@@detail@archive@4@XZ@4HA 	 DATA
	?$TSS0@?1??get_instance@?$singleton@V?$pointer_iserializer@Vbinary_iarchive@archive@boost@@VParameterManager@karto@@@detail@archive@boost@@@serialization@boost@@CAAEAV?$pointer_iserializer@Vbinary_iarchive@archive@boost@@VParameterManager@karto@@@detail@archive@4@XZ@4HA 	 DATA
	?$TSS0@?1??get_instance@?$singleton@V?$pointer_oserializer@Vbinary_oarchive@archive@boost@@VDatasetInfo@karto@@@detail@archive@boost@@@serialization@boost@@CAAEAV?$pointer_oserializer@Vbinary_oarchive@archive@boost@@VDatasetInfo@karto@@@detail@archive@4@XZ@4HA 	 DATA
	?$TSS0@?1??get_instance@?$singleton@V?$pointer_oserializer@Vbinary_oarchive@archive@boost@@VParameterManager@karto@@@detail@archive@boost@@@serialization@boost@@CAAEAV?$pointer_oserializer@Vbinary_oarchive@archive@boost@@VParameterManager@karto@@@detail@archive@4@XZ@4HA 	 DATA
	?$TSS0@?1??get_instance@?$singleton@V?$void_caster_primitive@V?$Parameter@V?$basic_string@DU?$char_traits@D@std@@V?$allocator@D@2@@std@@@karto@@VAbstractParameter@2@@void_cast_detail@serialization@boost@@@serialization@boost@@CAAEAV?$void_caster_primitive@V?$Parameter@V?$basic_string@DU?$char_traits@D@std@@V?$allocator@D@2@@std@@@karto@@VAbstractParameter@2@@void_cast_detail@34@XZ@4HA 	 DATA
	?$TSS0@?1??get_instance@?$singleton@V?$void_caster_primitive@VDatasetInfo@karto@@VObject@2@@void_cast_detail@serialization@boost@@@serialization@boost@@CAAEAV?$void_caster_primitive@VDatasetInfo@karto@@VObject@2@@void_cast_detail@34@XZ@4HA 	 DATA
	?$TSS0@?1??get_instance@?$singleton@V?$void_caster_primitive@VObject@karto@@VNonCopyable@2@@void_cast_detail@serialization@boost@@@serialization@boost@@CAAEAV?$void_caster_primitive@VObject@karto@@VNonCopyable@2@@void_cast_detail@34@XZ@4HA 	 DATA
	?$TSS0@?1??get_instance@?$singleton@V?$void_caster_primitive@VParameterManager@karto@@VNonCopyable@2@@void_cast_detail@serialization@boost@@@serialization@boost@@CAAEAV?$void_caster_primitive@VParameterManager@karto@@VNonCopyable@2@@void_cast_detail@34@XZ@4HA 	 DATA
	??_R0?AU?$default_delete@U?$MetricsMessage_@V?$allocator@X@std@@@msg@statistics_msgs@@@std@@@8 	 DATA
	??_R0?AU?$default_delete@U?$PoseWithCovarianceStamped_@V?$allocator@X@std@@@msg@geometry_msgs@@@std@@@8 	 DATA
	??_R0?AU?$pair@$$CBHPEAVObject@karto@@@std@@@8 	 DATA
	??_R0?AU?$pair@$$CBV?$basic_string@DU?$char_traits@D@std@@V?$allocator@D@2@@std@@PEAVAbstractParameter@karto@@@std@@@8 	 DATA
	??_R0?AU?$pair@$$CBVName@karto@@PEAVSensor@2@@std@@@8 	 DATA
	??_R0?AU?$wrapexcept@Vlock_error@boost@@@boost@@@8 	 DATA
	??_R0?AU?$wrapexcept@Vthread_resource_error@boost@@@boost@@@8 	 DATA
	??_R0?AUbad_alloc_@exception_detail@boost@@@8 	 DATA
	??_R0?AUbad_exception_@exception_detail@boost@@@8 	 DATA
	??_R0?AUbase_token@noncopyable_@boost@@@8 	 DATA
	??_R0?AV<lambda_33d3207aa9cfabd17909961fe837b8a9>@@@8 	 DATA
	??_R0?AV<lambda_4fa184f521fb41f33f9d01b40f5ac9d9>@@@8 	 DATA
	??_R0?AV<lambda_83c40cceffae39b19729e050b3a9ba8e>@@@8 	 DATA
	??_R0?AV<lambda_9dd0c8f7d82d5c8e326d3c0685e9bc2f>@@@8 	 DATA
	??_R0?AV<lambda_b05f438fa8a0717b905717c1aa9025d1>@@@8 	 DATA
	??_R0?AV?$BufferImplementationBase@V?$shared_ptr@$$CBU?$PoseWithCovarianceStamped_@V?$allocator@X@std@@@msg@geometry_msgs@@@std@@@buffers@experimental@rclcpp@@@8 	 DATA
	??_R0?AV?$BufferImplementationBase@V?$unique_ptr@U?$PoseWithCovarianceStamped_@V?$allocator@X@std@@@msg@geometry_msgs@@U?$default_delete@U?$PoseWithCovarianceStamped_@V?$allocator@X@std@@@msg@geometry_msgs@@@std@@@std@@@buffers@experimental@rclcpp@@@8 	 DATA
	??_R0?AV?$GenericTimer@V<lambda_dc0acc6c162c69a79de61b136908d558>@@$0A@@rclcpp@@@8 	 DATA
	??_R0?AV?$IntraProcessBuffer@U?$PoseWithCovarianceStamped_@V?$allocator@X@std@@@msg@geometry_msgs@@V?$allocator@X@std@@U?$default_delete@U?$PoseWithCovarianceStamped_@V?$allocator@X@std@@@msg@geometry_msgs@@@5@@buffers@experimental@rclcpp@@@8 	 DATA
	??_R0?AV?$MessageMemoryStrategy@U?$PoseWithCovarianceStamped_@V?$allocator@X@std@@@msg@geometry_msgs@@V?$allocator@X@std@@@message_memory_strategy@rclcpp@@@8 	 DATA
	??_R0?AV?$Parameter@V?$basic_string@DU?$char_traits@D@std@@V?$allocator@D@2@@std@@@karto@@@8 	 DATA
	??_R0?AV?$Publisher@U?$MetricsMessage_@V?$allocator@X@std@@@msg@statistics_msgs@@V?$allocator@X@std@@@rclcpp@@@8 	 DATA
	??_R0?AV?$QOSEventHandler@V<lambda_3f9548421920b881c8df116e1c596558>@@V?$shared_ptr@Urcl_subscription_t@@@std@@@rclcpp@@@8 	 DATA
	??_R0?AV?$QOSEventHandler@V<lambda_c2318a75abbc27dc766add2e36d9f8d4>@@V?$shared_ptr@Urcl_publisher_t@@@std@@@rclcpp@@@8 	 DATA
	??_R0?AV?$QOSEventHandler@V?$function@$$A6AXAEAUrmw_liveliness_changed_status_t@@@Z@std@@V?$shared_ptr@Urcl_subscription_t@@@2@@rclcpp@@@8 	 DATA
	??_R0?AV?$QOSEventHandler@V?$function@$$A6AXAEAUrmw_liveliness_lost_status_t@@@Z@std@@V?$shared_ptr@Urcl_publisher_t@@@2@@rclcpp@@@8 	 DATA
	??_R0?AV?$QOSEventHandler@V?$function@$$A6AXAEAUrmw_offered_deadline_missed_status_t@@@Z@std@@V?$shared_ptr@Urcl_publisher_t@@@2@@rclcpp@@@8 	 DATA
	??_R0?AV?$QOSEventHandler@V?$function@$$A6AXAEAUrmw_qos_incompatible_event_status_t@@@Z@std@@V?$shared_ptr@Urcl_publisher_t@@@2@@rclcpp@@@8 	 DATA
	??_R0?AV?$QOSEventHandler@V?$function@$$A6AXAEAUrmw_qos_incompatible_event_status_t@@@Z@std@@V?$shared_ptr@Urcl_subscription_t@@@2@@rclcpp@@@8 	 DATA
	??_R0?AV?$QOSEventHandler@V?$function@$$A6AXAEAUrmw_requested_deadline_missed_status_t@@@Z@std@@V?$shared_ptr@Urcl_subscription_t@@@2@@rclcpp@@@8 	 DATA
	??_R0?AV?$ReceivedMessageAgeCollector@U?$PoseWithCovarianceStamped_@V?$allocator@X@std@@@msg@geometry_msgs@@@topic_statistics_collector@libstatistics_collector@@@8 	 DATA
	??_R0?AV?$ReceivedMessagePeriodCollector@U?$PoseWithCovarianceStamped_@V?$allocator@X@std@@@msg@geometry_msgs@@@topic_statistics_collector@libstatistics_collector@@@8 	 DATA
	??_R0?AV?$RingBufferImplementation@V?$shared_ptr@$$CBU?$PoseWithCovarianceStamped_@V?$allocator@X@std@@@msg@geometry_msgs@@@std@@@buffers@experimental@rclcpp@@@8 	 DATA
	??_R0?AV?$RingBufferImplementation@V?$unique_ptr@U?$PoseWithCovarianceStamped_@V?$allocator@X@std@@@msg@geometry_msgs@@U?$default_delete@U?$PoseWithCovarianceStamped_@V?$allocator@X@std@@@msg@geometry_msgs@@@std@@@std@@@buffers@experimental@rclcpp@@@8 	 DATA
	??_R0?AV?$Service@UEmpty@srv@std_srvs@@@rclcpp@@@8 	 DATA
	??_R0?AV?$Subscription@U?$PoseWithCovarianceStamped_@V?$allocator@X@std@@@msg@geometry_msgs@@V?$allocator@X@std@@V?$MessageMemoryStrategy@U?$PoseWithCovarianceStamped_@V?$allocator@X@std@@@msg@geometry_msgs@@V?$allocator@X@std@@@message_memory_strategy@rclcpp@@@rclcpp@@@8 	 DATA
	??_R0?AV?$SubscriptionIntraProcess@U?$PoseWithCovarianceStamped_@V?$allocator@X@std@@@msg@geometry_msgs@@V?$allocator@X@std@@U?$default_delete@U?$PoseWithCovarianceStamped_@V?$allocator@X@std@@@msg@geometry_msgs@@@5@U123@@experimental@rclcpp@@@8 	 DATA
	??_R0?AV?$SubscriptionTopicStatistics@U?$PoseWithCovarianceStamped_@V?$allocator@X@std@@@msg@geometry_msgs@@@topic_statistics@rclcpp@@@8 	 DATA
	??_R0?AV?$TopicStatisticsCollector@U?$PoseWithCovarianceStamped_@V?$allocator@X@std@@@msg@geometry_msgs@@@topic_statistics_collector@libstatistics_collector@@@8 	 DATA
	??_R0?AV?$TypedIntraProcessBuffer@U?$PoseWithCovarianceStamped_@V?$allocator@X@std@@@msg@geometry_msgs@@V?$allocator@X@std@@U?$default_delete@U?$PoseWithCovarianceStamped_@V?$allocator@X@std@@@msg@geometry_msgs@@@5@V?$shared_ptr@$$CBU?$PoseWithCovarianceStamped_@V?$allocator@X@std@@@msg@geometry_msgs@@@5@@buffers@experimental@rclcpp@@@8 	 DATA
	??_R0?AV?$TypedIntraProcessBuffer@U?$PoseWithCovarianceStamped_@V?$allocator@X@std@@@msg@geometry_msgs@@V?$allocator@X@std@@U?$default_delete@U?$PoseWithCovarianceStamped_@V?$allocator@X@std@@@msg@geometry_msgs@@@5@V?$unique_ptr@U?$PoseWithCovarianceStamped_@V?$allocator@X@std@@@msg@geometry_msgs@@U?$default_delete@U?$PoseWithCovarianceStamped_@V?$allocator@X@std@@@msg@geometry_msgs@@@std@@@5@@buffers@experimental@rclcpp@@@8 	 DATA
	??_R0?AV?$WallTimer@V<lambda_dc0acc6c162c69a79de61b136908d558>@@$0A@@rclcpp@@@8 	 DATA
	??_R0?AV?$_Binder@U_Unforced@std@@P8LocalizationSlamToolbox@slam_toolbox@@EAAXV?$shared_ptr@U?$PoseWithCovarianceStamped_@V?$allocator@X@std@@@msg@geometry_msgs@@@2@@ZPEAV34@AEBU?$_Ph@$00@2@@std@@@8 	 DATA
	??_R0?AV?$_Binder@U_Unforced@std@@P8LocalizationSlamToolbox@slam_toolbox@@EAA_NV?$shared_ptr@Urmw_request_id_t@@@2@V?$shared_ptr@U?$Empty_Request_@V?$allocator@X@std@@@srv@std_srvs@@@2@V?$shared_ptr@U?$Empty_Response_@V?$allocator@X@std@@@srv@std_srvs@@@2@@ZPEAV34@AEBU?$_Ph@$00@2@AEBU?$_Ph@$01@2@AEBU?$_Ph@$02@2@@std@@@8 	 DATA
	??_R0?AV?$_Ebco_base@V?$allocator@U?$MetricsMessage_@V?$allocator@X@std@@@msg@statistics_msgs@@@std@@$00@std@@@8 	 DATA
	??_R0?AV?$_Ebco_base@V?$allocator@U?$PoseWithCovarianceStamped_@V?$allocator@X@std@@@msg@geometry_msgs@@@std@@$00@std@@@8 	 DATA
	??_R0?AV?$_Func_base@V?$shared_ptr@VPublisherBase@rclcpp@@@std@@PEAVNodeBaseInterface@node_interfaces@rclcpp@@AEBV?$basic_string@DU?$char_traits@D@std@@V?$allocator@D@2@@2@AEBVQoS@5@@std@@@8 	 DATA
	??_R0?AV?$_Func_base@V?$shared_ptr@VSubscriptionBase@rclcpp@@@std@@PEAVNodeBaseInterface@node_interfaces@rclcpp@@AEBV?$basic_string@DU?$char_traits@D@std@@V?$allocator@D@2@@2@AEBVQoS@5@@std@@@8 	 DATA
	??_R0?AV?$_Func_base@XV?$shared_ptr@U?$PoseWithCovarianceStamped_@V?$allocator@X@std@@@msg@geometry_msgs@@@std@@@std@@@8 	 DATA
	??_R0?AV?$_Func_base@XV?$shared_ptr@Urmw_request_id_t@@@std@@V?$shared_ptr@U?$Empty_Request_@V?$allocator@X@std@@@srv@std_srvs@@@2@V?$shared_ptr@U?$Empty_Response_@V?$allocator@X@std@@@srv@std_srvs@@@2@@std@@@8 	 DATA
	??_R0?AV?$_Func_impl_no_alloc@V<lambda_33d3207aa9cfabd17909961fe837b8a9>@@V?$shared_ptr@VSubscriptionBase@rclcpp@@@std@@PEAVNodeBaseInterface@node_interfaces@rclcpp@@AEBV?$basic_string@DU?$char_traits@D@std@@V?$allocator@D@2@@3@AEBVQoS@6@@std@@@8 	 DATA
	??_R0?AV?$_Func_impl_no_alloc@V<lambda_83c40cceffae39b19729e050b3a9ba8e>@@V?$shared_ptr@VPublisherBase@rclcpp@@@std@@PEAVNodeBaseInterface@node_interfaces@rclcpp@@AEBV?$basic_string@DU?$char_traits@D@std@@V?$allocator@D@2@@3@AEBVQoS@6@@std@@@8 	 DATA
	??_R0?AV?$_Func_impl_no_alloc@V?$_Binder@U_Unforced@std@@P8LocalizationSlamToolbox@slam_toolbox@@EAAXV?$shared_ptr@U?$PoseWithCovarianceStamped_@V?$allocator@X@std@@@msg@geometry_msgs@@@2@@ZPEAV34@AEBU?$_Ph@$00@2@@std@@XV?$shared_ptr@U?$PoseWithCovarianceStamped_@V?$allocator@X@std@@@msg@geometry_msgs@@@2@@std@@@8 	 DATA
	??_R0?AV?$_Func_impl_no_alloc@V?$_Binder@U_Unforced@std@@P8LocalizationSlamToolbox@slam_toolbox@@EAA_NV?$shared_ptr@Urmw_request_id_t@@@2@V?$shared_ptr@U?$Empty_Request_@V?$allocator@X@std@@@srv@std_srvs@@@2@V?$shared_ptr@U?$Empty_Response_@V?$allocator@X@std@@@srv@std_srvs@@@2@@ZPEAV34@AEBU?$_Ph@$00@2@AEBU?$_Ph@$01@2@AEBU?$_Ph@$02@2@@std@@XV?$shared_ptr@Urmw_request_id_t@@@2@V?$shared_ptr@U?$Empty_Request_@V?$allocator@X@std@@@srv@std_srvs@@@2@V?$shared_ptr@U?$Empty_Response_@V?$allocator@X@std@@@srv@std_srvs@@@2@@std@@@8 	 DATA
	??_R0?AV?$_Iosb@H@std@@@8 	 DATA
	??_R0?AV?$_Ref_count@V?$allocator@U?$MetricsMessage_@V?$allocator@X@std@@@msg@statistics_msgs@@@std@@@std@@@8 	 DATA
	??_R0?AV?$_Ref_count_obj2@U?$DeserializePoseGraph_Request_@V?$allocator@X@std@@@srv@slam_toolbox@@@std@@@8 	 DATA
	??_R0?AV?$_Ref_count_obj2@U?$DeserializePoseGraph_Response_@V?$allocator@X@std@@@srv@slam_toolbox@@@std@@@8 	 DATA
	??_R0?AV?$_Ref_count_obj2@U?$Empty_Request_@V?$allocator@X@std@@@srv@std_srvs@@@std@@@8 	 DATA
	??_R0?AV?$_Ref_count_obj2@U?$Empty_Response_@V?$allocator@X@std@@@srv@std_srvs@@@std@@@8 	 DATA
	??_R0?AV?$_Ref_count_obj2@Urmw_request_id_t@@@std@@@8 	 DATA
	??_R0?AV?$_Ref_count_obj2@V?$MessageMemoryStrategy@U?$PoseWithCovarianceStamped_@V?$allocator@X@std@@@msg@geometry_msgs@@V?$allocator@X@std@@@message_memory_strategy@rclcpp@@@std@@@8 	 DATA
	??_R0?AV?$_Ref_count_obj2@V?$Publisher@U?$MetricsMessage_@V?$allocator@X@std@@@msg@statistics_msgs@@V?$allocator@X@std@@@rclcpp@@@std@@@8 	 DATA
	??_R0?AV?$_Ref_count_obj2@V?$QOSEventHandler@V<lambda_3f9548421920b881c8df116e1c596558>@@V?$shared_ptr@Urcl_subscription_t@@@std@@@rclcpp@@@std@@@8 	 DATA
	??_R0?AV?$_Ref_count_obj2@V?$QOSEventHandler@V<lambda_c2318a75abbc27dc766add2e36d9f8d4>@@V?$shared_ptr@Urcl_publisher_t@@@std@@@rclcpp@@@std@@@8 	 DATA
	??_R0?AV?$_Ref_count_obj2@V?$QOSEventHandler@V?$function@$$A6AXAEAUrmw_liveliness_changed_status_t@@@Z@std@@V?$shared_ptr@Urcl_subscription_t@@@2@@rclcpp@@@std@@@8 	 DATA
	??_R0?AV?$_Ref_count_obj2@V?$QOSEventHandler@V?$function@$$A6AXAEAUrmw_liveliness_lost_status_t@@@Z@std@@V?$shared_ptr@Urcl_publisher_t@@@2@@rclcpp@@@std@@@8 	 DATA
	??_R0?AV?$_Ref_count_obj2@V?$QOSEventHandler@V?$function@$$A6AXAEAUrmw_offered_deadline_missed_status_t@@@Z@std@@V?$shared_ptr@Urcl_publisher_t@@@2@@rclcpp@@@std@@@8 	 DATA
	??_R0?AV?$_Ref_count_obj2@V?$QOSEventHandler@V?$function@$$A6AXAEAUrmw_qos_incompatible_event_status_t@@@Z@std@@V?$shared_ptr@Urcl_publisher_t@@@2@@rclcpp@@@std@@@8 	 DATA
	??_R0?AV?$_Ref_count_obj2@V?$QOSEventHandler@V?$function@$$A6AXAEAUrmw_qos_incompatible_event_status_t@@@Z@std@@V?$shared_ptr@Urcl_subscription_t@@@2@@rclcpp@@@std@@@8 	 DATA
	??_R0?AV?$_Ref_count_obj2@V?$QOSEventHandler@V?$function@$$A6AXAEAUrmw_requested_deadline_missed_status_t@@@Z@std@@V?$shared_ptr@Urcl_subscription_t@@@2@@rclcpp@@@std@@@8 	 DATA
	??_R0?AV?$_Ref_count_obj2@V?$Service@UEmpty@srv@std_srvs@@@rclcpp@@@std@@@8 	 DATA
	??_R0?AV?$_Ref_count_obj2@V?$Subscription@U?$PoseWithCovarianceStamped_@V?$allocator@X@std@@@msg@geometry_msgs@@V?$allocator@X@std@@V?$MessageMemoryStrategy@U?$PoseWithCovarianceStamped_@V?$allocator@X@std@@@msg@geometry_msgs@@V?$allocator@X@std@@@message_memory_strategy@rclcpp@@@rclcpp@@@std@@@8 	 DATA
	??_R0?AV?$_Ref_count_obj2@V?$SubscriptionIntraProcess@U?$PoseWithCovarianceStamped_@V?$allocator@X@std@@@msg@geometry_msgs@@V?$allocator@X@std@@U?$default_delete@U?$PoseWithCovarianceStamped_@V?$allocator@X@std@@@msg@geometry_msgs@@@5@U123@@experimental@rclcpp@@@std@@@8 	 DATA
	??_R0?AV?$_Ref_count_obj2@V?$SubscriptionTopicStatistics@U?$PoseWithCovarianceStamped_@V?$allocator@X@std@@@msg@geometry_msgs@@@topic_statistics@rclcpp@@@std@@@8 	 DATA
	??_R0?AV?$_Ref_count_obj2@V?$WallTimer@V<lambda_dc0acc6c162c69a79de61b136908d558>@@$0A@@rclcpp@@@std@@@8 	 DATA
	??_R0?AV?$_Ref_count_obj2@V?$allocator@D@std@@@std@@@8 	 DATA
	??_R0?AV?$_Ref_count_obj2@V?$allocator@U?$MetricsMessage_@V?$allocator@X@std@@@msg@statistics_msgs@@@std@@@std@@@8 	 DATA
	??_R0?AV?$_Ref_count_obj2@V?$allocator@U?$PoseWithCovarianceStamped_@V?$allocator@X@std@@@msg@geometry_msgs@@@std@@@std@@@8 	 DATA
	??_R0?AV?$_Ref_count_obj2@V?$allocator@VSerializedMessage@rclcpp@@@std@@@std@@@8 	 DATA
	??_R0?AV?$_Ref_count_obj2@V?$allocator@X@std@@@std@@@8 	 DATA
	??_R0?AV?$_Ref_count_obj2@VClock@rclcpp@@@std@@@8 	 DATA
	??_R0?AV?$_Ref_count_obj2@VSerializedMessage@rclcpp@@@std@@@8 	 DATA
	??_R0?AV?$_Ref_count_obj_alloc3@U?$MetricsMessage_@V?$allocator@X@std@@@msg@statistics_msgs@@V?$allocator@U?$MetricsMessage_@V?$allocator@X@std@@@msg@statistics_msgs@@@std@@@std@@@8 	 DATA
	??_R0?AV?$_Ref_count_obj_alloc3@U?$PoseWithCovarianceStamped_@V?$allocator@X@std@@@msg@geometry_msgs@@V?$allocator@U?$PoseWithCovarianceStamped_@V?$allocator@X@std@@@msg@geometry_msgs@@@std@@@std@@@8 	 DATA
	??_R0?AV?$_Ref_count_resource@PEAU?$MetricsMessage_@V?$allocator@X@std@@@msg@statistics_msgs@@U?$default_delete@U?$MetricsMessage_@V?$allocator@X@std@@@msg@statistics_msgs@@@std@@@std@@@8 	 DATA
	??_R0?AV?$_Ref_count_resource@PEAU?$PoseWithCovarianceStamped_@V?$allocator@X@std@@@msg@geometry_msgs@@U?$default_delete@U?$PoseWithCovarianceStamped_@V?$allocator@X@std@@@msg@geometry_msgs@@@std@@@std@@@8 	 DATA
	??_R0?AV?$_Ref_count_resource@PEAU?$PoseWithCovarianceStamped_@V?$allocator@X@std@@@msg@geometry_msgs@@V<lambda_b05f438fa8a0717b905717c1aa9025d1>@@@std@@@8 	 DATA
	??_R0?AV?$_Ref_count_resource@PEAUrcl_service_t@@V<lambda_4fa184f521fb41f33f9d01b40f5ac9d9>@@@std@@@8 	 DATA
	??_R0?AV?$_Ref_count_resource@PEAVIntraProcessManager@experimental@rclcpp@@V<lambda_9dd0c8f7d82d5c8e326d3c0685e9bc2f>@@@std@@@8 	 DATA
	??_R0?AV?$allocator@U?$MetricsMessage_@V?$allocator@X@std@@@msg@statistics_msgs@@@std@@@8 	 DATA
	??_R0?AV?$allocator@U?$PoseWithCovarianceStamped_@V?$allocator@X@std@@@msg@geometry_msgs@@@std@@@8 	 DATA
	??_R0?AV?$basic_ios@DU?$char_traits@D@std@@@std@@@8 	 DATA
	??_R0?AV?$basic_iostream@DU?$char_traits@D@std@@@std@@@8 	 DATA
	??_R0?AV?$basic_istream@DU?$char_traits@D@std@@@std@@@8 	 DATA
	??_R0?AV?$basic_ostream@DU?$char_traits@D@std@@@std@@@8 	 DATA
	??_R0?AV?$basic_streambuf@DU?$char_traits@D@std@@@std@@@8 	 DATA
	??_R0?AV?$basic_stringbuf@DU?$char_traits@D@std@@V?$allocator@D@2@@std@@@8 	 DATA
	??_R0?AV?$basic_stringstream@DU?$char_traits@D@std@@V?$allocator@D@2@@std@@@8 	 DATA
	??_R0?AV?$clone_impl@Ubad_alloc_@exception_detail@boost@@@exception_detail@boost@@@8 	 DATA
	??_R0?AV?$clone_impl@Ubad_exception_@exception_detail@boost@@@exception_detail@boost@@@8 	 DATA
	??_R0?AV?$enable_shared_from_this@VNode@rclcpp@@@std@@@8 	 DATA
	??_R0?AV?$enable_shared_from_this@VPublisherBase@rclcpp@@@std@@@8 	 DATA
	??_R0?AV?$enable_shared_from_this@VSubscriptionBase@rclcpp@@@std@@@8 	 DATA
	??_R0?AV?$extended_type_info_typeid@U?$pair@$$CBHPEAVObject@karto@@@std@@@serialization@boost@@@8 	 DATA
	??_R0?AV?$extended_type_info_typeid@U?$pair@$$CBV?$basic_string@DU?$char_traits@D@std@@V?$allocator@D@2@@std@@PEAVAbstractParameter@karto@@@std@@@serialization@boost@@@8 	 DATA
	??_R0?AV?$extended_type_info_typeid@U?$pair@$$CBVName@karto@@PEAVSensor@2@@std@@@serialization@boost@@@8 	 DATA
	??_R0?AV?$extended_type_info_typeid@V?$Parameter@V?$basic_string@DU?$char_traits@D@std@@V?$allocator@D@2@@std@@@karto@@@serialization@boost@@@8 	 DATA
	??_R0?AV?$extended_type_info_typeid@V?$map@HPEAVObject@karto@@U?$less@H@std@@V?$allocator@U?$pair@$$CBHPEAVObject@karto@@@std@@@4@@std@@@serialization@boost@@@8 	 DATA
	??_R0?AV?$extended_type_info_typeid@V?$map@V?$basic_string@DU?$char_traits@D@std@@V?$allocator@D@2@@std@@PEAVAbstractParameter@karto@@U?$less@V?$basic_string@DU?$char_traits@D@std@@V?$allocator@D@2@@std@@@2@V?$allocator@U?$pair@$$CBV?$basic_string@DU?$char_traits@D@std@@V?$allocator@D@2@@std@@PEAVAbstractParameter@karto@@@std@@@2@@std@@@serialization@boost@@@8 	 DATA
	??_R0?AV?$extended_type_info_typeid@V?$map@VName@karto@@PEAVSensor@2@U?$less@VName@karto@@@std@@V?$allocator@U?$pair@$$CBVName@karto@@PEAVSensor@2@@std@@@5@@std@@@serialization@boost@@@8 	 DATA
	??_R0?AV?$extended_type_info_typeid@V?$vector@PEAVAbstractParameter@karto@@V?$allocator@PEAVAbstractParameter@karto@@@std@@@std@@@serialization@boost@@@8 	 DATA
	??_R0?AV?$extended_type_info_typeid@V?$vector@PEAVObject@karto@@V?$allocator@PEAVObject@karto@@@std@@@std@@@serialization@boost@@@8 	 DATA
	??_R0?AV?$extended_type_info_typeid@VAbstractParameter@karto@@@serialization@boost@@@8 	 DATA
	??_R0?AV?$extended_type_info_typeid@VDataset@karto@@@serialization@boost@@@8 	 DATA
	??_R0?AV?$extended_type_info_typeid@VDatasetInfo@karto@@@serialization@boost@@@8 	 DATA
	??_R0?AV?$extended_type_info_typeid@VName@karto@@@serialization@boost@@@8 	 DATA
	??_R0?AV?$extended_type_info_typeid@VNonCopyable@karto@@@serialization@boost@@@8 	 DATA
	??_R0?AV?$extended_type_info_typeid@VObject@karto@@@serialization@boost@@@8 	 DATA
	??_R0?AV?$extended_type_info_typeid@VParameterManager@karto@@@serialization@boost@@@8 	 DATA
	??_R0?AV?$extended_type_info_typeid@VSensor@karto@@@serialization@boost@@@8 	 DATA
	??_R0?AV?$iserializer@Vbinary_iarchive@archive@boost@@U?$pair@$$CBHPEAVObject@karto@@@std@@@detail@archive@boost@@@8 	 DATA
	??_R0?AV?$iserializer@Vbinary_iarchive@archive@boost@@U?$pair@$$CBV?$basic_string@DU?$char_traits@D@std@@V?$allocator@D@2@@std@@PEAVAbstractParameter@karto@@@std@@@detail@archive@boost@@@8 	 DATA
	??_R0?AV?$iserializer@Vbinary_iarchive@archive@boost@@U?$pair@$$CBVName@karto@@PEAVSensor@2@@std@@@detail@archive@boost@@@8 	 DATA
	??_R0?AV?$iserializer@Vbinary_iarchive@archive@boost@@V?$Parameter@V?$basic_string@DU?$char_traits@D@std@@V?$allocator@D@2@@std@@@karto@@@detail@archive@boost@@@8 	 DATA
	??_R0?AV?$iserializer@Vbinary_iarchive@archive@boost@@V?$map@HPEAVObject@karto@@U?$less@H@std@@V?$allocator@U?$pair@$$CBHPEAVObject@karto@@@std@@@4@@std@@@detail@archive@boost@@@8 	 DATA
	??_R0?AV?$iserializer@Vbinary_iarchive@archive@boost@@V?$map@V?$basic_string@DU?$char_traits@D@std@@V?$allocator@D@2@@std@@PEAVAbstractParameter@karto@@U?$less@V?$basic_string@DU?$char_traits@D@std@@V?$allocator@D@2@@std@@@2@V?$allocator@U?$pair@$$CBV?$basic_string@DU?$char_traits@D@std@@V?$allocator@D@2@@std@@PEAVAbstractParameter@karto@@@std@@@2@@std@@@detail@archive@boost@@@8 	 DATA
	??_R0?AV?$iserializer@Vbinary_iarchive@archive@boost@@V?$map@VName@karto@@PEAVSensor@2@U?$less@VName@karto@@@std@@V?$allocator@U?$pair@$$CBVName@karto@@PEAVSensor@2@@std@@@5@@std@@@detail@archive@boost@@@8 	 DATA
	??_R0?AV?$iserializer@Vbinary_iarchive@archive@boost@@V?$vector@PEAVAbstractParameter@karto@@V?$allocator@PEAVAbstractParameter@karto@@@std@@@std@@@detail@archive@boost@@@8 	 DATA
	??_R0?AV?$iserializer@Vbinary_iarchive@archive@boost@@V?$vector@PEAVObject@karto@@V?$allocator@PEAVObject@karto@@@std@@@std@@@detail@archive@boost@@@8 	 DATA
	??_R0?AV?$iserializer@Vbinary_iarchive@archive@boost@@VAbstractParameter@karto@@@detail@archive@boost@@@8 	 DATA
	??_R0?AV?$iserializer@Vbinary_iarchive@archive@boost@@VDataset@karto@@@detail@archive@boost@@@8 	 DATA
	??_R0?AV?$iserializer@Vbinary_iarchive@archive@boost@@VDatasetInfo@karto@@@detail@archive@boost@@@8 	 DATA
	??_R0?AV?$iserializer@Vbinary_iarchive@archive@boost@@VName@karto@@@detail@archive@boost@@@8 	 DATA
	??_R0?AV?$iserializer@Vbinary_iarchive@archive@boost@@VNonCopyable@karto@@@detail@archive@boost@@@8 	 DATA
	??_R0?AV?$iserializer@Vbinary_iarchive@archive@boost@@VObject@karto@@@detail@archive@boost@@@8 	 DATA
	??_R0?AV?$iserializer@Vbinary_iarchive@archive@boost@@VParameterManager@karto@@@detail@archive@boost@@@8 	 DATA
	??_R0?AV?$map@HPEAVObject@karto@@U?$less@H@std@@V?$allocator@U?$pair@$$CBHPEAVObject@karto@@@std@@@4@@std@@@8 	 DATA
	??_R0?AV?$map@V?$basic_string@DU?$char_traits@D@std@@V?$allocator@D@2@@std@@PEAVAbstractParameter@karto@@U?$less@V?$basic_string@DU?$char_traits@D@std@@V?$allocator@D@2@@std@@@2@V?$allocator@U?$pair@$$CBV?$basic_string@DU?$char_traits@D@std@@V?$allocator@D@2@@std@@PEAVAbstractParameter@karto@@@std@@@2@@std@@@8 	 DATA
	??_R0?AV?$map@VName@karto@@PEAVSensor@2@U?$less@VName@karto@@@std@@V?$allocator@U?$pair@$$CBVName@karto@@PEAVSensor@2@@std@@@5@@std@@@8 	 DATA
	??_R0?AV?$oserializer@Vbinary_oarchive@archive@boost@@U?$pair@$$CBHPEAVObject@karto@@@std@@@detail@archive@boost@@@8 	 DATA
	??_R0?AV?$oserializer@Vbinary_oarchive@archive@boost@@U?$pair@$$CBV?$basic_string@DU?$char_traits@D@std@@V?$allocator@D@2@@std@@PEAVAbstractParameter@karto@@@std@@@detail@archive@boost@@@8 	 DATA
	??_R0?AV?$oserializer@Vbinary_oarchive@archive@boost@@U?$pair@$$CBVName@karto@@PEAVSensor@2@@std@@@detail@archive@boost@@@8 	 DATA
	??_R0?AV?$oserializer@Vbinary_oarchive@archive@boost@@V?$Parameter@V?$basic_string@DU?$char_traits@D@std@@V?$allocator@D@2@@std@@@karto@@@detail@archive@boost@@@8 	 DATA
	??_R0?AV?$oserializer@Vbinary_oarchive@archive@boost@@V?$map@HPEAVObject@karto@@U?$less@H@std@@V?$allocator@U?$pair@$$CBHPEAVObject@karto@@@std@@@4@@std@@@detail@archive@boost@@@8 	 DATA
	??_R0?AV?$oserializer@Vbinary_oarchive@archive@boost@@V?$map@V?$basic_string@DU?$char_traits@D@std@@V?$allocator@D@2@@std@@PEAVAbstractParameter@karto@@U?$less@V?$basic_string@DU?$char_traits@D@std@@V?$allocator@D@2@@std@@@2@V?$allocator@U?$pair@$$CBV?$basic_string@DU?$char_traits@D@std@@V?$allocator@D@2@@std@@PEAVAbstractParameter@karto@@@std@@@2@@std@@@detail@archive@boost@@@8 	 DATA
	??_R0?AV?$oserializer@Vbinary_oarchive@archive@boost@@V?$map@VName@karto@@PEAVSensor@2@U?$less@VName@karto@@@std@@V?$allocator@U?$pair@$$CBVName@karto@@PEAVSensor@2@@std@@@5@@std@@@detail@archive@boost@@@8 	 DATA
	??_R0?AV?$oserializer@Vbinary_oarchive@archive@boost@@V?$vector@PEAVAbstractParameter@karto@@V?$allocator@PEAVAbstractParameter@karto@@@std@@@std@@@detail@archive@boost@@@8 	 DATA
	??_R0?AV?$oserializer@Vbinary_oarchive@archive@boost@@V?$vector@PEAVObject@karto@@V?$allocator@PEAVObject@karto@@@std@@@std@@@detail@archive@boost@@@8 	 DATA
	??_R0?AV?$oserializer@Vbinary_oarchive@archive@boost@@VAbstractParameter@karto@@@detail@archive@boost@@@8 	 DATA
	??_R0?AV?$oserializer@Vbinary_oarchive@archive@boost@@VDataset@karto@@@detail@archive@boost@@@8 	 DATA
	??_R0?AV?$oserializer@Vbinary_oarchive@archive@boost@@VDatasetInfo@karto@@@detail@archive@boost@@@8 	 DATA
	??_R0?AV?$oserializer@Vbinary_oarchive@archive@boost@@VName@karto@@@detail@archive@boost@@@8 	 DATA
	??_R0?AV?$oserializer@Vbinary_oarchive@archive@boost@@VNonCopyable@karto@@@detail@archive@boost@@@8 	 DATA
	??_R0?AV?$oserializer@Vbinary_oarchive@archive@boost@@VObject@karto@@@detail@archive@boost@@@8 	 DATA
	??_R0?AV?$oserializer@Vbinary_oarchive@archive@boost@@VParameterManager@karto@@@detail@archive@boost@@@8 	 DATA
	??_R0?AV?$pointer_iserializer@Vbinary_iarchive@archive@boost@@VDatasetInfo@karto@@@detail@archive@boost@@@8 	 DATA
	??_R0?AV?$pointer_iserializer@Vbinary_iarchive@archive@boost@@VParameterManager@karto@@@detail@archive@boost@@@8 	 DATA
	??_R0?AV?$pointer_oserializer@Vbinary_oarchive@archive@boost@@VDatasetInfo@karto@@@detail@archive@boost@@@8 	 DATA
	??_R0?AV?$pointer_oserializer@Vbinary_oarchive@archive@boost@@VParameterManager@karto@@@detail@archive@boost@@@8 	 DATA
	??_R0?AV?$singleton@V?$extended_type_info_typeid@U?$pair@$$CBHPEAVObject@karto@@@std@@@serialization@boost@@@serialization@boost@@@8 	 DATA
	??_R0?AV?$singleton@V?$extended_type_info_typeid@U?$pair@$$CBV?$basic_string@DU?$char_traits@D@std@@V?$allocator@D@2@@std@@PEAVAbstractParameter@karto@@@std@@@serialization@boost@@@serialization@boost@@@8 	 DATA
	??_R0?AV?$singleton@V?$extended_type_info_typeid@U?$pair@$$CBVName@karto@@PEAVSensor@2@@std@@@serialization@boost@@@serialization@boost@@@8 	 DATA
	??_R0?AV?$singleton@V?$extended_type_info_typeid@V?$Parameter@V?$basic_string@DU?$char_traits@D@std@@V?$allocator@D@2@@std@@@karto@@@serialization@boost@@@serialization@boost@@@8 	 DATA
	??_R0?AV?$singleton@V?$extended_type_info_typeid@V?$map@HPEAVObject@karto@@U?$less@H@std@@V?$allocator@U?$pair@$$CBHPEAVObject@karto@@@std@@@4@@std@@@serialization@boost@@@serialization@boost@@@8 	 DATA
	??_R0?AV?$singleton@V?$extended_type_info_typeid@V?$map@V?$basic_string@DU?$char_traits@D@std@@V?$allocator@D@2@@std@@PEAVAbstractParameter@karto@@U?$less@V?$basic_string@DU?$char_traits@D@std@@V?$allocator@D@2@@std@@@2@V?$allocator@U?$pair@$$CBV?$basic_string@DU?$char_traits@D@std@@V?$allocator@D@2@@std@@PEAVAbstractParameter@karto@@@std@@@2@@std@@@serialization@boost@@@serialization@boost@@@8 	 DATA
	??_R0?AV?$singleton@V?$extended_type_info_typeid@V?$map@VName@karto@@PEAVSensor@2@U?$less@VName@karto@@@std@@V?$allocator@U?$pair@$$CBVName@karto@@PEAVSensor@2@@std@@@5@@std@@@serialization@boost@@@serialization@boost@@@8 	 DATA
	??_R0?AV?$singleton@V?$extended_type_info_typeid@V?$vector@PEAVAbstractParameter@karto@@V?$allocator@PEAVAbstractParameter@karto@@@std@@@std@@@serialization@boost@@@serialization@boost@@@8 	 DATA
	??_R0?AV?$singleton@V?$extended_type_info_typeid@V?$vector@PEAVObject@karto@@V?$allocator@PEAVObject@karto@@@std@@@std@@@serialization@boost@@@serialization@boost@@@8 	 DATA
	??_R0?AV?$singleton@V?$extended_type_info_typeid@VAbstractParameter@karto@@@serialization@boost@@@serialization@boost@@@8 	 DATA
	??_R0?AV?$singleton@V?$extended_type_info_typeid@VDataset@karto@@@serialization@boost@@@serialization@boost@@@8 	 DATA
	??_R0?AV?$singleton@V?$extended_type_info_typeid@VDatasetInfo@karto@@@serialization@boost@@@serialization@boost@@@8 	 DATA
	??_R0?AV?$singleton@V?$extended_type_info_typeid@VName@karto@@@serialization@boost@@@serialization@boost@@@8 	 DATA
	??_R0?AV?$singleton@V?$extended_type_info_typeid@VNonCopyable@karto@@@serialization@boost@@@serialization@boost@@@8 	 DATA
	??_R0?AV?$singleton@V?$extended_type_info_typeid@VObject@karto@@@serialization@boost@@@serialization@boost@@@8 	 DATA
	??_R0?AV?$singleton@V?$extended_type_info_typeid@VParameterManager@karto@@@serialization@boost@@@serialization@boost@@@8 	 DATA
	??_R0?AV?$singleton@V?$extended_type_info_typeid@VSensor@karto@@@serialization@boost@@@serialization@boost@@@8 	 DATA
	??_R0?AV?$singleton_wrapper@V?$extended_type_info_typeid@U?$pair@$$CBHPEAVObject@karto@@@std@@@serialization@boost@@@detail@serialization@boost@@@8 	 DATA
	??_R0?AV?$singleton_wrapper@V?$extended_type_info_typeid@U?$pair@$$CBV?$basic_string@DU?$char_traits@D@std@@V?$allocator@D@2@@std@@PEAVAbstractParameter@karto@@@std@@@serialization@boost@@@detail@serialization@boost@@@8 	 DATA
	??_R0?AV?$singleton_wrapper@V?$extended_type_info_typeid@U?$pair@$$CBVName@karto@@PEAVSensor@2@@std@@@serialization@boost@@@detail@serialization@boost@@@8 	 DATA
	??_R0?AV?$singleton_wrapper@V?$extended_type_info_typeid@V?$Parameter@V?$basic_string@DU?$char_traits@D@std@@V?$allocator@D@2@@std@@@karto@@@serialization@boost@@@detail@serialization@boost@@@8 	 DATA
	??_R0?AV?$singleton_wrapper@V?$extended_type_info_typeid@V?$map@HPEAVObject@karto@@U?$less@H@std@@V?$allocator@U?$pair@$$CBHPEAVObject@karto@@@std@@@4@@std@@@serialization@boost@@@detail@serialization@boost@@@8 	 DATA
	??_R0?AV?$singleton_wrapper@V?$extended_type_info_typeid@V?$map@V?$basic_string@DU?$char_traits@D@std@@V?$allocator@D@2@@std@@PEAVAbstractParameter@karto@@U?$less@V?$basic_string@DU?$char_traits@D@std@@V?$allocator@D@2@@std@@@2@V?$allocator@U?$pair@$$CBV?$basic_string@DU?$char_traits@D@std@@V?$allocator@D@2@@std@@PEAVAbstractParameter@karto@@@std@@@2@@std@@@serialization@boost@@@detail@serialization@boost@@@8 	 DATA
	??_R0?AV?$singleton_wrapper@V?$extended_type_info_typeid@V?$map@VName@karto@@PEAVSensor@2@U?$less@VName@karto@@@std@@V?$allocator@U?$pair@$$CBVName@karto@@PEAVSensor@2@@std@@@5@@std@@@serialization@boost@@@detail@serialization@boost@@@8 	 DATA
	??_R0?AV?$singleton_wrapper@V?$extended_type_info_typeid@V?$vector@PEAVAbstractParameter@karto@@V?$allocator@PEAVAbstractParameter@karto@@@std@@@std@@@serialization@boost@@@detail@serialization@boost@@@8 	 DATA
	??_R0?AV?$singleton_wrapper@V?$extended_type_info_typeid@V?$vector@PEAVObject@karto@@V?$allocator@PEAVObject@karto@@@std@@@std@@@serialization@boost@@@detail@serialization@boost@@@8 	 DATA
	??_R0?AV?$singleton_wrapper@V?$extended_type_info_typeid@VAbstractParameter@karto@@@serialization@boost@@@detail@serialization@boost@@@8 	 DATA
	??_R0?AV?$singleton_wrapper@V?$extended_type_info_typeid@VDataset@karto@@@serialization@boost@@@detail@serialization@boost@@@8 	 DATA
	??_R0?AV?$singleton_wrapper@V?$extended_type_info_typeid@VDatasetInfo@karto@@@serialization@boost@@@detail@serialization@boost@@@8 	 DATA
	??_R0?AV?$singleton_wrapper@V?$extended_type_info_typeid@VName@karto@@@serialization@boost@@@detail@serialization@boost@@@8 	 DATA
	??_R0?AV?$singleton_wrapper@V?$extended_type_info_typeid@VNonCopyable@karto@@@serialization@boost@@@detail@serialization@boost@@@8 	 DATA
	??_R0?AV?$singleton_wrapper@V?$extended_type_info_typeid@VObject@karto@@@serialization@boost@@@detail@serialization@boost@@@8 	 DATA
	??_R0?AV?$singleton_wrapper@V?$extended_type_info_typeid@VParameterManager@karto@@@serialization@boost@@@detail@serialization@boost@@@8 	 DATA
	??_R0?AV?$singleton_wrapper@V?$extended_type_info_typeid@VSensor@karto@@@serialization@boost@@@detail@serialization@boost@@@8 	 DATA
	??_R0?AV?$singleton_wrapper@V?$iserializer@Vbinary_iarchive@archive@boost@@U?$pair@$$CBHPEAVObject@karto@@@std@@@detail@archive@boost@@@detail@serialization@boost@@@8 	 DATA
	??_R0?AV?$singleton_wrapper@V?$iserializer@Vbinary_iarchive@archive@boost@@U?$pair@$$CBV?$basic_string@DU?$char_traits@D@std@@V?$allocator@D@2@@std@@PEAVAbstractParameter@karto@@@std@@@detail@archive@boost@@@detail@serialization@boost@@@8 	 DATA
	??_R0?AV?$singleton_wrapper@V?$iserializer@Vbinary_iarchive@archive@boost@@U?$pair@$$CBVName@karto@@PEAVSensor@2@@std@@@detail@archive@boost@@@detail@serialization@boost@@@8 	 DATA
	??_R0?AV?$singleton_wrapper@V?$iserializer@Vbinary_iarchive@archive@boost@@V?$Parameter@V?$basic_string@DU?$char_traits@D@std@@V?$allocator@D@2@@std@@@karto@@@detail@archive@boost@@@detail@serialization@boost@@@8 	 DATA
	??_R0?AV?$singleton_wrapper@V?$iserializer@Vbinary_iarchive@archive@boost@@V?$map@HPEAVObject@karto@@U?$less@H@std@@V?$allocator@U?$pair@$$CBHPEAVObject@karto@@@std@@@4@@std@@@detail@archive@boost@@@detail@serialization@boost@@@8 	 DATA
	??_R0?AV?$singleton_wrapper@V?$iserializer@Vbinary_iarchive@archive@boost@@V?$map@V?$basic_string@DU?$char_traits@D@std@@V?$allocator@D@2@@std@@PEAVAbstractParameter@karto@@U?$less@V?$basic_string@DU?$char_traits@D@std@@V?$allocator@D@2@@std@@@2@V?$allocator@U?$pair@$$CBV?$basic_string@DU?$char_traits@D@std@@V?$allocator@D@2@@std@@PEAVAbstractParameter@karto@@@std@@@2@@std@@@detail@archive@boost@@@detail@serialization@boost@@@8 	 DATA
	??_R0?AV?$singleton_wrapper@V?$iserializer@Vbinary_iarchive@archive@boost@@V?$map@VName@karto@@PEAVSensor@2@U?$less@VName@karto@@@std@@V?$allocator@U?$pair@$$CBVName@karto@@PEAVSensor@2@@std@@@5@@std@@@detail@archive@boost@@@detail@serialization@boost@@@8 	 DATA
	??_R0?AV?$singleton_wrapper@V?$iserializer@Vbinary_iarchive@archive@boost@@V?$vector@PEAVAbstractParameter@karto@@V?$allocator@PEAVAbstractParameter@karto@@@std@@@std@@@detail@archive@boost@@@detail@serialization@boost@@@8 	 DATA
	??_R0?AV?$singleton_wrapper@V?$iserializer@Vbinary_iarchive@archive@boost@@V?$vector@PEAVObject@karto@@V?$allocator@PEAVObject@karto@@@std@@@std@@@detail@archive@boost@@@detail@serialization@boost@@@8 	 DATA
	??_R0?AV?$singleton_wrapper@V?$iserializer@Vbinary_iarchive@archive@boost@@VAbstractParameter@karto@@@detail@archive@boost@@@detail@serialization@boost@@@8 	 DATA
	??_R0?AV?$singleton_wrapper@V?$iserializer@Vbinary_iarchive@archive@boost@@VDataset@karto@@@detail@archive@boost@@@detail@serialization@boost@@@8 	 DATA
	??_R0?AV?$singleton_wrapper@V?$iserializer@Vbinary_iarchive@archive@boost@@VDatasetInfo@karto@@@detail@archive@boost@@@detail@serialization@boost@@@8 	 DATA
	??_R0?AV?$singleton_wrapper@V?$iserializer@Vbinary_iarchive@archive@boost@@VName@karto@@@detail@archive@boost@@@detail@serialization@boost@@@8 	 DATA
	??_R0?AV?$singleton_wrapper@V?$iserializer@Vbinary_iarchive@archive@boost@@VNonCopyable@karto@@@detail@archive@boost@@@detail@serialization@boost@@@8 	 DATA
	??_R0?AV?$singleton_wrapper@V?$iserializer@Vbinary_iarchive@archive@boost@@VObject@karto@@@detail@archive@boost@@@detail@serialization@boost@@@8 	 DATA
	??_R0?AV?$singleton_wrapper@V?$iserializer@Vbinary_iarchive@archive@boost@@VParameterManager@karto@@@detail@archive@boost@@@detail@serialization@boost@@@8 	 DATA
	??_R0?AV?$singleton_wrapper@V?$oserializer@Vbinary_oarchive@archive@boost@@U?$pair@$$CBHPEAVObject@karto@@@std@@@detail@archive@boost@@@detail@serialization@boost@@@8 	 DATA
	??_R0?AV?$singleton_wrapper@V?$oserializer@Vbinary_oarchive@archive@boost@@U?$pair@$$CBV?$basic_string@DU?$char_traits@D@std@@V?$allocator@D@2@@std@@PEAVAbstractParameter@karto@@@std@@@detail@archive@boost@@@detail@serialization@boost@@@8 	 DATA
	??_R0?AV?$singleton_wrapper@V?$oserializer@Vbinary_oarchive@archive@boost@@U?$pair@$$CBVName@karto@@PEAVSensor@2@@std@@@detail@archive@boost@@@detail@serialization@boost@@@8 	 DATA
	??_R0?AV?$singleton_wrapper@V?$oserializer@Vbinary_oarchive@archive@boost@@V?$Parameter@V?$basic_string@DU?$char_traits@D@std@@V?$allocator@D@2@@std@@@karto@@@detail@archive@boost@@@detail@serialization@boost@@@8 	 DATA
	??_R0?AV?$singleton_wrapper@V?$oserializer@Vbinary_oarchive@archive@boost@@V?$map@HPEAVObject@karto@@U?$less@H@std@@V?$allocator@U?$pair@$$CBHPEAVObject@karto@@@std@@@4@@std@@@detail@archive@boost@@@detail@serialization@boost@@@8 	 DATA
	??_R0?AV?$singleton_wrapper@V?$oserializer@Vbinary_oarchive@archive@boost@@V?$map@V?$basic_string@DU?$char_traits@D@std@@V?$allocator@D@2@@std@@PEAVAbstractParameter@karto@@U?$less@V?$basic_string@DU?$char_traits@D@std@@V?$allocator@D@2@@std@@@2@V?$allocator@U?$pair@$$CBV?$basic_string@DU?$char_traits@D@std@@V?$allocator@D@2@@std@@PEAVAbstractParameter@karto@@@std@@@2@@std@@@detail@archive@boost@@@detail@serialization@boost@@@8 	 DATA
	??_R0?AV?$singleton_wrapper@V?$oserializer@Vbinary_oarchive@archive@boost@@V?$map@VName@karto@@PEAVSensor@2@U?$less@VName@karto@@@std@@V?$allocator@U?$pair@$$CBVName@karto@@PEAVSensor@2@@std@@@5@@std@@@detail@archive@boost@@@detail@serialization@boost@@@8 	 DATA
	??_R0?AV?$singleton_wrapper@V?$oserializer@Vbinary_oarchive@archive@boost@@V?$vector@PEAVAbstractParameter@karto@@V?$allocator@PEAVAbstractParameter@karto@@@std@@@std@@@detail@archive@boost@@@detail@serialization@boost@@@8 	 DATA
	??_R0?AV?$singleton_wrapper@V?$oserializer@Vbinary_oarchive@archive@boost@@V?$vector@PEAVObject@karto@@V?$allocator@PEAVObject@karto@@@std@@@std@@@detail@archive@boost@@@detail@serialization@boost@@@8 	 DATA
	??_R0?AV?$singleton_wrapper@V?$oserializer@Vbinary_oarchive@archive@boost@@VAbstractParameter@karto@@@detail@archive@boost@@@detail@serialization@boost@@@8 	 DATA
	??_R0?AV?$singleton_wrapper@V?$oserializer@Vbinary_oarchive@archive@boost@@VDataset@karto@@@detail@archive@boost@@@detail@serialization@boost@@@8 	 DATA
	??_R0?AV?$singleton_wrapper@V?$oserializer@Vbinary_oarchive@archive@boost@@VDatasetInfo@karto@@@detail@archive@boost@@@detail@serialization@boost@@@8 	 DATA
	??_R0?AV?$singleton_wrapper@V?$oserializer@Vbinary_oarchive@archive@boost@@VName@karto@@@detail@archive@boost@@@detail@serialization@boost@@@8 	 DATA
	??_R0?AV?$singleton_wrapper@V?$oserializer@Vbinary_oarchive@archive@boost@@VNonCopyable@karto@@@detail@archive@boost@@@detail@serialization@boost@@@8 	 DATA
	??_R0?AV?$singleton_wrapper@V?$oserializer@Vbinary_oarchive@archive@boost@@VObject@karto@@@detail@archive@boost@@@detail@serialization@boost@@@8 	 DATA
	??_R0?AV?$singleton_wrapper@V?$oserializer@Vbinary_oarchive@archive@boost@@VParameterManager@karto@@@detail@archive@boost@@@detail@serialization@boost@@@8 	 DATA
	??_R0?AV?$singleton_wrapper@V?$pointer_iserializer@Vbinary_iarchive@archive@boost@@VDatasetInfo@karto@@@detail@archive@boost@@@detail@serialization@boost@@@8 	 DATA
	??_R0?AV?$singleton_wrapper@V?$pointer_iserializer@Vbinary_iarchive@archive@boost@@VParameterManager@karto@@@detail@archive@boost@@@detail@serialization@boost@@@8 	 DATA
	??_R0?AV?$singleton_wrapper@V?$pointer_oserializer@Vbinary_oarchive@archive@boost@@VDatasetInfo@karto@@@detail@archive@boost@@@detail@serialization@boost@@@8 	 DATA
	??_R0?AV?$singleton_wrapper@V?$pointer_oserializer@Vbinary_oarchive@archive@boost@@VParameterManager@karto@@@detail@archive@boost@@@detail@serialization@boost@@@8 	 DATA
	??_R0?AV?$singleton_wrapper@V?$void_caster_primitive@V?$Parameter@V?$basic_string@DU?$char_traits@D@std@@V?$allocator@D@2@@std@@@karto@@VAbstractParameter@2@@void_cast_detail@serialization@boost@@@detail@serialization@boost@@@8 	 DATA
	??_R0?AV?$singleton_wrapper@V?$void_caster_primitive@VDatasetInfo@karto@@VObject@2@@void_cast_detail@serialization@boost@@@detail@serialization@boost@@@8 	 DATA
	??_R0?AV?$singleton_wrapper@V?$void_caster_primitive@VObject@karto@@VNonCopyable@2@@void_cast_detail@serialization@boost@@@detail@serialization@boost@@@8 	 DATA
	??_R0?AV?$singleton_wrapper@V?$void_caster_primitive@VParameterManager@karto@@VNonCopyable@2@@void_cast_detail@serialization@boost@@@detail@serialization@boost@@@8 	 DATA
	??_R0?AV?$sp_counted_impl_p@V?$clone_impl@Ubad_alloc_@exception_detail@boost@@@exception_detail@boost@@@detail@boost@@@8 	 DATA
	??_R0?AV?$sp_counted_impl_p@V?$clone_impl@Ubad_exception_@exception_detail@boost@@@exception_detail@boost@@@detail@boost@@@8 	 DATA
	??_R0?AV?$vector@PEAVAbstractParameter@karto@@V?$allocator@PEAVAbstractParameter@karto@@@std@@@std@@@8 	 DATA
	??_R0?AV?$vector@PEAVObject@karto@@V?$allocator@PEAVObject@karto@@@std@@@std@@@8 	 DATA
	??_R0?AV?$void_caster_primitive@V?$Parameter@V?$basic_string@DU?$char_traits@D@std@@V?$allocator@D@2@@std@@@karto@@VAbstractParameter@2@@void_cast_detail@serialization@boost@@@8 	 DATA
	??_R0?AV?$void_caster_primitive@VDatasetInfo@karto@@VObject@2@@void_cast_detail@serialization@boost@@@8 	 DATA
	??_R0?AV?$void_caster_primitive@VObject@karto@@VNonCopyable@2@@void_cast_detail@serialization@boost@@@8 	 DATA
	??_R0?AV?$void_caster_primitive@VParameterManager@karto@@VNonCopyable@2@@void_cast_detail@serialization@boost@@@8 	 DATA
	??_R0?AVAbstractParameter@karto@@@8 	 DATA
	??_R0?AVCollector@collector@libstatistics_collector@@@8 	 DATA
	??_R0?AVDataset@karto@@@8 	 DATA
	??_R0?AVDatasetInfo@karto@@@8 	 DATA
	??_R0?AVIntraProcessBufferBase@buffers@experimental@rclcpp@@@8 	 DATA
	??_R0?AVIntraProcessManager@experimental@rclcpp@@@8 	 DATA
	??_R0?AVLocalizationSlamToolbox@slam_toolbox@@@8 	 DATA
	??_R0?AVMetricDetailsInterface@collector@libstatistics_collector@@@8 	 DATA
	??_R0?AVName@karto@@@8 	 DATA
	??_R0?AVNode@rclcpp@@@8 	 DATA
	??_R0?AVNonCopyable@karto@@@8 	 DATA
	??_R0?AVObject@karto@@@8 	 DATA
	??_R0?AVParameterManager@karto@@@8 	 DATA
	??_R0?AVPublisherBase@rclcpp@@@8 	 DATA
	??_R0?AVQOSEventHandlerBase@rclcpp@@@8 	 DATA
	??_R0?AVRCLErrorBase@exceptions@rclcpp@@@8 	 DATA
	??_R0?AVSensor@karto@@@8 	 DATA
	??_R0?AVSerializedMessage@rclcpp@@@8 	 DATA
	??_R0?AVServiceBase@rclcpp@@@8 	 DATA
	??_R0?AVSlamToolbox@slam_toolbox@@@8 	 DATA
	??_R0?AVSubscriptionBase@rclcpp@@@8 	 DATA
	??_R0?AVSubscriptionIntraProcessBase@experimental@rclcpp@@@8 	 DATA
	??_R0?AVTimerBase@rclcpp@@@8 	 DATA
	??_R0?AVTransformException@tf2@@@8 	 DATA
	??_R0?AVUnsupportedEventTypeException@rclcpp@@@8 	 DATA
	??_R0?AVWaitable@rclcpp@@@8 	 DATA
	??_R0?AV_Ref_count_base@std@@@8 	 DATA
	??_R0?AVarchive_exception@archive@boost@@@8 	 DATA
	??_R0?AVbad_alloc@std@@@8 	 DATA
	??_R0?AVbad_array_new_length@std@@@8 	 DATA
	??_R0?AVbad_cast@std@@@8 	 DATA
	??_R0?AVbad_exception@std@@@8 	 DATA
	??_R0?AVbad_weak_ptr@std@@@8 	 DATA
	??_R0?AVbasic_iserializer@detail@archive@boost@@@8 	 DATA
	??_R0?AVbasic_oserializer@detail@archive@boost@@@8 	 DATA
	??_R0?AVbasic_pointer_iserializer@detail@archive@boost@@@8 	 DATA
	??_R0?AVbasic_pointer_oserializer@detail@archive@boost@@@8 	 DATA
	??_R0?AVbasic_serializer@detail@archive@boost@@@8 	 DATA
	??_R0?AVclone_base@exception_detail@boost@@@8 	 DATA
	??_R0?AVerror_category@system@boost@@@8 	 DATA
	??_R0?AVexception@boost@@@8 	 DATA
	??_R0?AVexception@std@@@8 	 DATA
	??_R0?AVextended_type_info@serialization@boost@@@8 	 DATA
	??_R0?AVextended_type_info_typeid_0@typeid_system@serialization@boost@@@8 	 DATA
	??_R0?AVgeneric_error_category@detail@system@boost@@@8 	 DATA
	??_R0?AVinvalid_argument@std@@@8 	 DATA
	??_R0?AVios_base@std@@@8 	 DATA
	??_R0?AVlock_error@boost@@@8 	 DATA
	??_R0?AVlogic_error@std@@@8 	 DATA
	??_R0?AVnoncopyable@noncopyable_@boost@@@8 	 DATA
	??_R0?AVruntime_error@std@@@8 	 DATA
	??_R0?AVsp_counted_base@detail@boost@@@8 	 DATA
	??_R0?AVsystem_error@system@boost@@@8 	 DATA
	??_R0?AVsystem_error_category@detail@system@boost@@@8 	 DATA
	??_R0?AVthread_exception@boost@@@8 	 DATA
	??_R0?AVthread_resource_error@boost@@@8 	 DATA
	??_R0?AVvoid_caster@void_cast_detail@serialization@boost@@@8 	 DATA
	?_OptionsStorage@?1??__local_stdio_printf_options@@9@4_KA 	 DATA
	?_Psave@?$_Facetptr@V?$ctype@D@std@@@std@@2PEBVfacet@locale@2@EB 	 DATA
	?__rcutils_logging_location@?6??execute@?$QOSEventHandler@V<lambda_3f9548421920b881c8df116e1c596558>@@V?$shared_ptr@Urcl_subscription_t@@@std@@@rclcpp@@UEAAXXZ@4Urcutils_log_location_t@@A 	 DATA
	?__rcutils_logging_location@?6??execute@?$QOSEventHandler@V<lambda_c2318a75abbc27dc766add2e36d9f8d4>@@V?$shared_ptr@Urcl_publisher_t@@@std@@@rclcpp@@UEAAXXZ@4Urcutils_log_location_t@@A 	 DATA
	?__rcutils_logging_location@?6??execute@?$QOSEventHandler@V?$function@$$A6AXAEAUrmw_liveliness_changed_status_t@@@Z@std@@V?$shared_ptr@Urcl_subscription_t@@@2@@rclcpp@@UEAAXXZ@4Urcutils_log_location_t@@A 	 DATA
	?__rcutils_logging_location@?6??execute@?$QOSEventHandler@V?$function@$$A6AXAEAUrmw_liveliness_lost_status_t@@@Z@std@@V?$shared_ptr@Urcl_publisher_t@@@2@@rclcpp@@UEAAXXZ@4Urcutils_log_location_t@@A 	 DATA
	?__rcutils_logging_location@?6??execute@?$QOSEventHandler@V?$function@$$A6AXAEAUrmw_offered_deadline_missed_status_t@@@Z@std@@V?$shared_ptr@Urcl_publisher_t@@@2@@rclcpp@@UEAAXXZ@4Urcutils_log_location_t@@A 	 DATA
	?__rcutils_logging_location@?6??execute@?$QOSEventHandler@V?$function@$$A6AXAEAUrmw_qos_incompatible_event_status_t@@@Z@std@@V?$shared_ptr@Urcl_publisher_t@@@2@@rclcpp@@UEAAXXZ@4Urcutils_log_location_t@@A 	 DATA
	?__rcutils_logging_location@?6??execute@?$QOSEventHandler@V?$function@$$A6AXAEAUrmw_qos_incompatible_event_status_t@@@Z@std@@V?$shared_ptr@Urcl_subscription_t@@@2@@rclcpp@@UEAAXXZ@4Urcutils_log_location_t@@A 	 DATA
	?__rcutils_logging_location@?6??execute@?$QOSEventHandler@V?$function@$$A6AXAEAUrmw_requested_deadline_missed_status_t@@@Z@std@@V?$shared_ptr@Urcl_subscription_t@@@2@@rclcpp@@UEAAXXZ@4Urcutils_log_location_t@@A 	 DATA
	?__rcutils_logging_location@?8???$do_intra_process_publish@U?$MetricsMessage_@V?$allocator@X@std@@@msg@statistics_msgs@@V?$allocator@X@std@@U?$default_delete@U?$MetricsMessage_@V?$allocator@X@std@@@msg@statistics_msgs@@@5@@IntraProcessManager@experimental@rclcpp@@QEAAX_KV?$unique_ptr@U?$MetricsMessage_@V?$allocator@X@std@@@msg@statistics_msgs@@U?$default_delete@U?$MetricsMessage_@V?$allocator@X@std@@@msg@statistics_msgs@@@std@@@std@@V?$shared_ptr@V?$allocator@U?$MetricsMessage_@V?$allocator@X@std@@@msg@statistics_msgs@@@std@@@5@@Z@4Urcutils_log_location_t@@A 	 DATA
	?__rcutils_logging_location@?8???$do_intra_process_publish_and_return_shared@U?$MetricsMessage_@V?$allocator@X@std@@@msg@statistics_msgs@@V?$allocator@X@std@@U?$default_delete@U?$MetricsMessage_@V?$allocator@X@std@@@msg@statistics_msgs@@@5@@IntraProcessManager@experimental@rclcpp@@QEAA?AV?$shared_ptr@$$CBU?$MetricsMessage_@V?$allocator@X@std@@@msg@statistics_msgs@@@std@@_KV?$unique_ptr@U?$MetricsMessage_@V?$allocator@X@std@@@msg@statistics_msgs@@U?$default_delete@U?$MetricsMessage_@V?$allocator@X@std@@@msg@statistics_msgs@@@std@@@5@V?$shared_ptr@V?$allocator@U?$MetricsMessage_@V?$allocator@X@std@@@msg@statistics_msgs@@@std@@@5@@Z@4Urcutils_log_location_t@@A 	 DATA
	?__rcutils_logging_location@?8??dequeue@?$RingBufferImplementation@V?$shared_ptr@$$CBU?$PoseWithCovarianceStamped_@V?$allocator@X@std@@@msg@geometry_msgs@@@std@@@buffers@experimental@rclcpp@@UEAA?AV?$shared_ptr@$$CBU?$PoseWithCovarianceStamped_@V?$allocator@X@std@@@msg@geometry_msgs@@@std@@XZ@4Urcutils_log_location_t@@A 	 DATA
	?__rcutils_logging_location@?8??dequeue@?$RingBufferImplementation@V?$unique_ptr@U?$PoseWithCovarianceStamped_@V?$allocator@X@std@@@msg@geometry_msgs@@U?$default_delete@U?$PoseWithCovarianceStamped_@V?$allocator@X@std@@@msg@geometry_msgs@@@std@@@std@@@buffers@experimental@rclcpp@@UEAA?AV?$unique_ptr@U?$PoseWithCovarianceStamped_@V?$allocator@X@std@@@msg@geometry_msgs@@U?$default_delete@U?$PoseWithCovarianceStamped_@V?$allocator@X@std@@@msg@geometry_msgs@@@std@@@std@@XZ@4Urcutils_log_location_t@@A 	 DATA
	?__rcutils_logging_location@?CB@???R<lambda_4fa184f521fb41f33f9d01b40f5ac9d9>@@QEBA@PEAUrcl_service_t@@@Z@4Urcutils_log_location_t@@A 	 DATA
	?__rcutils_logging_location@?M@???R<lambda_4fa184f521fb41f33f9d01b40f5ac9d9>@@QEBA@PEAUrcl_service_t@@@Z@4Urcutils_log_location_t@@A 	 DATA
	?e@?$exception_ptr_static_exception_object@Ubad_alloc_@exception_detail@boost@@@exception_detail@boost@@2Vexception_ptr@3@B 	 DATA
	?e@?$exception_ptr_static_exception_object@Ubad_exception_@exception_detail@boost@@@exception_detail@boost@@2Vexception_ptr@3@B 	 DATA
	?ep@?1???$get_static_exception_object@Ubad_alloc_@exception_detail@boost@@@exception_detail@boost@@YA?AVexception_ptr@2@XZ@4V32@A 	 DATA
	?ep@?1???$get_static_exception_object@Ubad_exception_@exception_detail@boost@@@exception_detail@boost@@YA?AVexception_ptr@2@XZ@4V32@A 	 DATA
	?is_destroyed_flag@?1??get_is_destroyed@?$singleton_wrapper@V?$archive_serializer_map@Vbinary_oarchive@archive@boost@@@detail@archive@boost@@@detail@serialization@boost@@CAAEA_NXZ@4_NA 	 DATA
	?is_destroyed_flag@?1??get_is_destroyed@?$singleton_wrapper@V?$extended_type_info_typeid@U?$pair@$$CBHPEAVObject@karto@@@std@@@serialization@boost@@@detail@serialization@boost@@CAAEA_NXZ@4_NA 	 DATA
	?is_destroyed_flag@?1??get_is_destroyed@?$singleton_wrapper@V?$extended_type_info_typeid@U?$pair@$$CBV?$basic_string@DU?$char_traits@D@std@@V?$allocator@D@2@@std@@PEAVAbstractParameter@karto@@@std@@@serialization@boost@@@detail@serialization@boost@@CAAEA_NXZ@4_NA 	 DATA
	?is_destroyed_flag@?1??get_is_destroyed@?$singleton_wrapper@V?$extended_type_info_typeid@U?$pair@$$CBVName@karto@@PEAVSensor@2@@std@@@serialization@boost@@@detail@serialization@boost@@CAAEA_NXZ@4_NA 	 DATA
	?is_destroyed_flag@?1??get_is_destroyed@?$singleton_wrapper@V?$extended_type_info_typeid@V?$Parameter@V?$basic_string@DU?$char_traits@D@std@@V?$allocator@D@2@@std@@@karto@@@serialization@boost@@@detail@serialization@boost@@CAAEA_NXZ@4_NA 	 DATA
	?is_destroyed_flag@?1??get_is_destroyed@?$singleton_wrapper@V?$extended_type_info_typeid@V?$map@HPEAVObject@karto@@U?$less@H@std@@V?$allocator@U?$pair@$$CBHPEAVObject@karto@@@std@@@4@@std@@@serialization@boost@@@detail@serialization@boost@@CAAEA_NXZ@4_NA 	 DATA
	?is_destroyed_flag@?1??get_is_destroyed@?$singleton_wrapper@V?$extended_type_info_typeid@V?$map@V?$basic_string@DU?$char_traits@D@std@@V?$allocator@D@2@@std@@PEAVAbstractParameter@karto@@U?$less@V?$basic_string@DU?$char_traits@D@std@@V?$allocator@D@2@@std@@@2@V?$allocator@U?$pair@$$CBV?$basic_string@DU?$char_traits@D@std@@V?$allocator@D@2@@std@@PEAVAbstractParameter@karto@@@std@@@2@@std@@@serialization@boost@@@detail@serialization@boost@@CAAEA_NXZ@4_NA 	 DATA
	?is_destroyed_flag@?1??get_is_destroyed@?$singleton_wrapper@V?$extended_type_info_typeid@V?$map@VName@karto@@PEAVSensor@2@U?$less@VName@karto@@@std@@V?$allocator@U?$pair@$$CBVName@karto@@PEAVSensor@2@@std@@@5@@std@@@serialization@boost@@@detail@serialization@boost@@CAAEA_NXZ@4_NA 	 DATA
	?is_destroyed_flag@?1??get_is_destroyed@?$singleton_wrapper@V?$extended_type_info_typeid@V?$vector@PEAVAbstractParameter@karto@@V?$allocator@PEAVAbstractParameter@karto@@@std@@@std@@@serialization@boost@@@detail@serialization@boost@@CAAEA_NXZ@4_NA 	 DATA
	?is_destroyed_flag@?1??get_is_destroyed@?$singleton_wrapper@V?$extended_type_info_typeid@V?$vector@PEAVObject@karto@@V?$allocator@PEAVObject@karto@@@std@@@std@@@serialization@boost@@@detail@serialization@boost@@CAAEA_NXZ@4_NA 	 DATA
	?is_destroyed_flag@?1??get_is_destroyed@?$singleton_wrapper@V?$extended_type_info_typeid@VAbstractParameter@karto@@@serialization@boost@@@detail@serialization@boost@@CAAEA_NXZ@4_NA 	 DATA
	?is_destroyed_flag@?1??get_is_destroyed@?$singleton_wrapper@V?$extended_type_info_typeid@VDataset@karto@@@serialization@boost@@@detail@serialization@boost@@CAAEA_NXZ@4_NA 	 DATA
	?is_destroyed_flag@?1??get_is_destroyed@?$singleton_wrapper@V?$extended_type_info_typeid@VDatasetInfo@karto@@@serialization@boost@@@detail@serialization@boost@@CAAEA_NXZ@4_NA 	 DATA
	?is_destroyed_flag@?1??get_is_destroyed@?$singleton_wrapper@V?$extended_type_info_typeid@VName@karto@@@serialization@boost@@@detail@serialization@boost@@CAAEA_NXZ@4_NA 	 DATA
	?is_destroyed_flag@?1??get_is_destroyed@?$singleton_wrapper@V?$extended_type_info_typeid@VNonCopyable@karto@@@serialization@boost@@@detail@serialization@boost@@CAAEA_NXZ@4_NA 	 DATA
	?is_destroyed_flag@?1??get_is_destroyed@?$singleton_wrapper@V?$extended_type_info_typeid@VObject@karto@@@serialization@boost@@@detail@serialization@boost@@CAAEA_NXZ@4_NA 	 DATA
	?is_destroyed_flag@?1??get_is_destroyed@?$singleton_wrapper@V?$extended_type_info_typeid@VParameterManager@karto@@@serialization@boost@@@detail@serialization@boost@@CAAEA_NXZ@4_NA 	 DATA
	?is_destroyed_flag@?1??get_is_destroyed@?$singleton_wrapper@V?$extended_type_info_typeid@VSensor@karto@@@serialization@boost@@@detail@serialization@boost@@CAAEA_NXZ@4_NA 	 DATA
	?is_destroyed_flag@?1??get_is_destroyed@?$singleton_wrapper@V?$iserializer@Vbinary_iarchive@archive@boost@@U?$pair@$$CBHPEAVObject@karto@@@std@@@detail@archive@boost@@@detail@serialization@boost@@CAAEA_NXZ@4_NA 	 DATA
	?is_destroyed_flag@?1??get_is_destroyed@?$singleton_wrapper@V?$iserializer@Vbinary_iarchive@archive@boost@@U?$pair@$$CBV?$basic_string@DU?$char_traits@D@std@@V?$allocator@D@2@@std@@PEAVAbstractParameter@karto@@@std@@@detail@archive@boost@@@detail@serialization@boost@@CAAEA_NXZ@4_NA 	 DATA
	?is_destroyed_flag@?1??get_is_destroyed@?$singleton_wrapper@V?$iserializer@Vbinary_iarchive@archive@boost@@U?$pair@$$CBVName@karto@@PEAVSensor@2@@std@@@detail@archive@boost@@@detail@serialization@boost@@CAAEA_NXZ@4_NA 	 DATA
	?is_destroyed_flag@?1??get_is_destroyed@?$singleton_wrapper@V?$iserializer@Vbinary_iarchive@archive@boost@@V?$Parameter@V?$basic_string@DU?$char_traits@D@std@@V?$allocator@D@2@@std@@@karto@@@detail@archive@boost@@@detail@serialization@boost@@CAAEA_NXZ@4_NA 	 DATA
	?is_destroyed_flag@?1??get_is_destroyed@?$singleton_wrapper@V?$iserializer@Vbinary_iarchive@archive@boost@@V?$map@HPEAVObject@karto@@U?$less@H@std@@V?$allocator@U?$pair@$$CBHPEAVObject@karto@@@std@@@4@@std@@@detail@archive@boost@@@detail@serialization@boost@@CAAEA_NXZ@4_NA 	 DATA
	?is_destroyed_flag@?1??get_is_destroyed@?$singleton_wrapper@V?$iserializer@Vbinary_iarchive@archive@boost@@V?$map@V?$basic_string@DU?$char_traits@D@std@@V?$allocator@D@2@@std@@PEAVAbstractParameter@karto@@U?$less@V?$basic_string@DU?$char_traits@D@std@@V?$allocator@D@2@@std@@@2@V?$allocator@U?$pair@$$CBV?$basic_string@DU?$char_traits@D@std@@V?$allocator@D@2@@std@@PEAVAbstractParameter@karto@@@std@@@2@@std@@@detail@archive@boost@@@detail@serialization@boost@@CAAEA_NXZ@4_NA 	 DATA
	?is_destroyed_flag@?1??get_is_destroyed@?$singleton_wrapper@V?$iserializer@Vbinary_iarchive@archive@boost@@V?$map@VName@karto@@PEAVSensor@2@U?$less@VName@karto@@@std@@V?$allocator@U?$pair@$$CBVName@karto@@PEAVSensor@2@@std@@@5@@std@@@detail@archive@boost@@@detail@serialization@boost@@CAAEA_NXZ@4_NA 	 DATA
	?is_destroyed_flag@?1??get_is_destroyed@?$singleton_wrapper@V?$iserializer@Vbinary_iarchive@archive@boost@@V?$vector@PEAVAbstractParameter@karto@@V?$allocator@PEAVAbstractParameter@karto@@@std@@@std@@@detail@archive@boost@@@detail@serialization@boost@@CAAEA_NXZ@4_NA 	 DATA
	?is_destroyed_flag@?1??get_is_destroyed@?$singleton_wrapper@V?$iserializer@Vbinary_iarchive@archive@boost@@V?$vector@PEAVObject@karto@@V?$allocator@PEAVObject@karto@@@std@@@std@@@detail@archive@boost@@@detail@serialization@boost@@CAAEA_NXZ@4_NA 	 DATA
	?is_destroyed_flag@?1??get_is_destroyed@?$singleton_wrapper@V?$iserializer@Vbinary_iarchive@archive@boost@@VAbstractParameter@karto@@@detail@archive@boost@@@detail@serialization@boost@@CAAEA_NXZ@4_NA 	 DATA
	?is_destroyed_flag@?1??get_is_destroyed@?$singleton_wrapper@V?$iserializer@Vbinary_iarchive@archive@boost@@VDataset@karto@@@detail@archive@boost@@@detail@serialization@boost@@CAAEA_NXZ@4_NA 	 DATA
	?is_destroyed_flag@?1??get_is_destroyed@?$singleton_wrapper@V?$iserializer@Vbinary_iarchive@archive@boost@@VDatasetInfo@karto@@@detail@archive@boost@@@detail@serialization@boost@@CAAEA_NXZ@4_NA 	 DATA
	?is_destroyed_flag@?1??get_is_destroyed@?$singleton_wrapper@V?$iserializer@Vbinary_iarchive@archive@boost@@VName@karto@@@detail@archive@boost@@@detail@serialization@boost@@CAAEA_NXZ@4_NA 	 DATA
	?is_destroyed_flag@?1??get_is_destroyed@?$singleton_wrapper@V?$iserializer@Vbinary_iarchive@archive@boost@@VNonCopyable@karto@@@detail@archive@boost@@@detail@serialization@boost@@CAAEA_NXZ@4_NA 	 DATA
	?is_destroyed_flag@?1??get_is_destroyed@?$singleton_wrapper@V?$iserializer@Vbinary_iarchive@archive@boost@@VObject@karto@@@detail@archive@boost@@@detail@serialization@boost@@CAAEA_NXZ@4_NA 	 DATA
	?is_destroyed_flag@?1??get_is_destroyed@?$singleton_wrapper@V?$iserializer@Vbinary_iarchive@archive@boost@@VParameterManager@karto@@@detail@archive@boost@@@detail@serialization@boost@@CAAEA_NXZ@4_NA 	 DATA
	?is_destroyed_flag@?1??get_is_destroyed@?$singleton_wrapper@V?$oserializer@Vbinary_oarchive@archive@boost@@U?$pair@$$CBHPEAVObject@karto@@@std@@@detail@archive@boost@@@detail@serialization@boost@@CAAEA_NXZ@4_NA 	 DATA
	?is_destroyed_flag@?1??get_is_destroyed@?$singleton_wrapper@V?$oserializer@Vbinary_oarchive@archive@boost@@U?$pair@$$CBV?$basic_string@DU?$char_traits@D@std@@V?$allocator@D@2@@std@@PEAVAbstractParameter@karto@@@std@@@detail@archive@boost@@@detail@serialization@boost@@CAAEA_NXZ@4_NA 	 DATA
	?is_destroyed_flag@?1??get_is_destroyed@?$singleton_wrapper@V?$oserializer@Vbinary_oarchive@archive@boost@@U?$pair@$$CBVName@karto@@PEAVSensor@2@@std@@@detail@archive@boost@@@detail@serialization@boost@@CAAEA_NXZ@4_NA 	 DATA
	?is_destroyed_flag@?1??get_is_destroyed@?$singleton_wrapper@V?$oserializer@Vbinary_oarchive@archive@boost@@V?$Parameter@V?$basic_string@DU?$char_traits@D@std@@V?$allocator@D@2@@std@@@karto@@@detail@archive@boost@@@detail@serialization@boost@@CAAEA_NXZ@4_NA 	 DATA
	?is_destroyed_flag@?1??get_is_destroyed@?$singleton_wrapper@V?$oserializer@Vbinary_oarchive@archive@boost@@V?$map@HPEAVObject@karto@@U?$less@H@std@@V?$allocator@U?$pair@$$CBHPEAVObject@karto@@@std@@@4@@std@@@detail@archive@boost@@@detail@serialization@boost@@CAAEA_NXZ@4_NA 	 DATA
	?is_destroyed_flag@?1??get_is_destroyed@?$singleton_wrapper@V?$oserializer@Vbinary_oarchive@archive@boost@@V?$map@V?$basic_string@DU?$char_traits@D@std@@V?$allocator@D@2@@std@@PEAVAbstractParameter@karto@@U?$less@V?$basic_string@DU?$char_traits@D@std@@V?$allocator@D@2@@std@@@2@V?$allocator@U?$pair@$$CBV?$basic_string@DU?$char_traits@D@std@@V?$allocator@D@2@@std@@PEAVAbstractParameter@karto@@@std@@@2@@std@@@detail@archive@boost@@@detail@serialization@boost@@CAAEA_NXZ@4_NA 	 DATA
	?is_destroyed_flag@?1??get_is_destroyed@?$singleton_wrapper@V?$oserializer@Vbinary_oarchive@archive@boost@@V?$map@VName@karto@@PEAVSensor@2@U?$less@VName@karto@@@std@@V?$allocator@U?$pair@$$CBVName@karto@@PEAVSensor@2@@std@@@5@@std@@@detail@archive@boost@@@detail@serialization@boost@@CAAEA_NXZ@4_NA 	 DATA
	?is_destroyed_flag@?1??get_is_destroyed@?$singleton_wrapper@V?$oserializer@Vbinary_oarchive@archive@boost@@V?$vector@PEAVAbstractParameter@karto@@V?$allocator@PEAVAbstractParameter@karto@@@std@@@std@@@detail@archive@boost@@@detail@serialization@boost@@CAAEA_NXZ@4_NA 	 DATA
	?is_destroyed_flag@?1??get_is_destroyed@?$singleton_wrapper@V?$oserializer@Vbinary_oarchive@archive@boost@@V?$vector@PEAVObject@karto@@V?$allocator@PEAVObject@karto@@@std@@@std@@@detail@archive@boost@@@detail@serialization@boost@@CAAEA_NXZ@4_NA 	 DATA
	?is_destroyed_flag@?1??get_is_destroyed@?$singleton_wrapper@V?$oserializer@Vbinary_oarchive@archive@boost@@VAbstractParameter@karto@@@detail@archive@boost@@@detail@serialization@boost@@CAAEA_NXZ@4_NA 	 DATA
	?is_destroyed_flag@?1??get_is_destroyed@?$singleton_wrapper@V?$oserializer@Vbinary_oarchive@archive@boost@@VDataset@karto@@@detail@archive@boost@@@detail@serialization@boost@@CAAEA_NXZ@4_NA 	 DATA
	?is_destroyed_flag@?1??get_is_destroyed@?$singleton_wrapper@V?$oserializer@Vbinary_oarchive@archive@boost@@VDatasetInfo@karto@@@detail@archive@boost@@@detail@serialization@boost@@CAAEA_NXZ@4_NA 	 DATA
	?is_destroyed_flag@?1??get_is_destroyed@?$singleton_wrapper@V?$oserializer@Vbinary_oarchive@archive@boost@@VName@karto@@@detail@archive@boost@@@detail@serialization@boost@@CAAEA_NXZ@4_NA 	 DATA
	?is_destroyed_flag@?1??get_is_destroyed@?$singleton_wrapper@V?$oserializer@Vbinary_oarchive@archive@boost@@VNonCopyable@karto@@@detail@archive@boost@@@detail@serialization@boost@@CAAEA_NXZ@4_NA 	 DATA
	?is_destroyed_flag@?1??get_is_destroyed@?$singleton_wrapper@V?$oserializer@Vbinary_oarchive@archive@boost@@VObject@karto@@@detail@archive@boost@@@detail@serialization@boost@@CAAEA_NXZ@4_NA 	 DATA
	?is_destroyed_flag@?1??get_is_destroyed@?$singleton_wrapper@V?$oserializer@Vbinary_oarchive@archive@boost@@VParameterManager@karto@@@detail@archive@boost@@@detail@serialization@boost@@CAAEA_NXZ@4_NA 	 DATA
	?is_destroyed_flag@?1??get_is_destroyed@?$singleton_wrapper@V?$pointer_iserializer@Vbinary_iarchive@archive@boost@@VDatasetInfo@karto@@@detail@archive@boost@@@detail@serialization@boost@@CAAEA_NXZ@4_NA 	 DATA
	?is_destroyed_flag@?1??get_is_destroyed@?$singleton_wrapper@V?$pointer_iserializer@Vbinary_iarchive@archive@boost@@VParameterManager@karto@@@detail@archive@boost@@@detail@serialization@boost@@CAAEA_NXZ@4_NA 	 DATA
	?is_destroyed_flag@?1??get_is_destroyed@?$singleton_wrapper@V?$pointer_oserializer@Vbinary_oarchive@archive@boost@@VDatasetInfo@karto@@@detail@archive@boost@@@detail@serialization@boost@@CAAEA_NXZ@4_NA 	 DATA
	?is_destroyed_flag@?1??get_is_destroyed@?$singleton_wrapper@V?$pointer_oserializer@Vbinary_oarchive@archive@boost@@VParameterManager@karto@@@detail@archive@boost@@@detail@serialization@boost@@CAAEA_NXZ@4_NA 	 DATA
	?is_destroyed_flag@?1??get_is_destroyed@?$singleton_wrapper@V?$void_caster_primitive@V?$Parameter@V?$basic_string@DU?$char_traits@D@std@@V?$allocator@D@2@@std@@@karto@@VAbstractParameter@2@@void_cast_detail@serialization@boost@@@detail@serialization@boost@@CAAEA_NXZ@4_NA 	 DATA
	?is_destroyed_flag@?1??get_is_destroyed@?$singleton_wrapper@V?$void_caster_primitive@VDatasetInfo@karto@@VObject@2@@void_cast_detail@serialization@boost@@@detail@serialization@boost@@CAAEA_NXZ@4_NA 	 DATA
	?is_destroyed_flag@?1??get_is_destroyed@?$singleton_wrapper@V?$void_caster_primitive@VObject@karto@@VNonCopyable@2@@void_cast_detail@serialization@boost@@@detail@serialization@boost@@CAAEA_NXZ@4_NA 	 DATA
	?is_destroyed_flag@?1??get_is_destroyed@?$singleton_wrapper@V?$void_caster_primitive@VParameterManager@karto@@VNonCopyable@2@@void_cast_detail@serialization@boost@@@detail@serialization@boost@@CAAEA_NXZ@4_NA 	 DATA
	?lock@?1??get_lock@singleton_module@serialization@boost@@AEAAAEA_NXZ@4_NA 	 DATA
	?m_instance@?$singleton@V?$archive_serializer_map@Vbinary_oarchive@archive@boost@@@detail@archive@boost@@@serialization@boost@@0PEAV?$archive_serializer_map@Vbinary_oarchive@archive@boost@@@detail@archive@3@EA 	 DATA
	?m_instance@?$singleton@V?$extended_type_info_typeid@U?$pair@$$CBHPEAVObject@karto@@@std@@@serialization@boost@@@serialization@boost@@0PEAV?$extended_type_info_typeid@U?$pair@$$CBHPEAVObject@karto@@@std@@@23@EA 	 DATA
	?m_instance@?$singleton@V?$extended_type_info_typeid@U?$pair@$$CBV?$basic_string@DU?$char_traits@D@std@@V?$allocator@D@2@@std@@PEAVAbstractParameter@karto@@@std@@@serialization@boost@@@serialization@boost@@0PEAV?$extended_type_info_typeid@U?$pair@$$CBV?$basic_string@DU?$char_traits@D@std@@V?$allocator@D@2@@std@@PEAVAbstractParameter@karto@@@std@@@23@EA 	 DATA
	?m_instance@?$singleton@V?$extended_type_info_typeid@U?$pair@$$CBVName@karto@@PEAVSensor@2@@std@@@serialization@boost@@@serialization@boost@@0PEAV?$extended_type_info_typeid@U?$pair@$$CBVName@karto@@PEAVSensor@2@@std@@@23@EA 	 DATA
	?m_instance@?$singleton@V?$extended_type_info_typeid@V?$Parameter@V?$basic_string@DU?$char_traits@D@std@@V?$allocator@D@2@@std@@@karto@@@serialization@boost@@@serialization@boost@@0PEAV?$extended_type_info_typeid@V?$Parameter@V?$basic_string@DU?$char_traits@D@std@@V?$allocator@D@2@@std@@@karto@@@23@EA 	 DATA
	?m_instance@?$singleton@V?$extended_type_info_typeid@V?$map@HPEAVObject@karto@@U?$less@H@std@@V?$allocator@U?$pair@$$CBHPEAVObject@karto@@@std@@@4@@std@@@serialization@boost@@@serialization@boost@@0PEAV?$extended_type_info_typeid@V?$map@HPEAVObject@karto@@U?$less@H@std@@V?$allocator@U?$pair@$$CBHPEAVObject@karto@@@std@@@4@@std@@@23@EA 	 DATA
	?m_instance@?$singleton@V?$extended_type_info_typeid@V?$map@V?$basic_string@DU?$char_traits@D@std@@V?$allocator@D@2@@std@@PEAVAbstractParameter@karto@@U?$less@V?$basic_string@DU?$char_traits@D@std@@V?$allocator@D@2@@std@@@2@V?$allocator@U?$pair@$$CBV?$basic_string@DU?$char_traits@D@std@@V?$allocator@D@2@@std@@PEAVAbstractParameter@karto@@@std@@@2@@std@@@serialization@boost@@@serialization@boost@@0PEAV?$extended_type_info_typeid@V?$map@V?$basic_string@DU?$char_traits@D@std@@V?$allocator@D@2@@std@@PEAVAbstractParameter@karto@@U?$less@V?$basic_string@DU?$char_traits@D@std@@V?$allocator@D@2@@std@@@2@V?$allocator@U?$pair@$$CBV?$basic_string@DU?$char_traits@D@std@@V?$allocator@D@2@@std@@PEAVAbstractParameter@karto@@@std@@@2@@std@@@23@EA 	 DATA
	?m_instance@?$singleton@V?$extended_type_info_typeid@V?$map@VName@karto@@PEAVSensor@2@U?$less@VName@karto@@@std@@V?$allocator@U?$pair@$$CBVName@karto@@PEAVSensor@2@@std@@@5@@std@@@serialization@boost@@@serialization@boost@@0PEAV?$extended_type_info_typeid@V?$map@VName@karto@@PEAVSensor@2@U?$less@VName@karto@@@std@@V?$allocator@U?$pair@$$CBVName@karto@@PEAVSensor@2@@std@@@5@@std@@@23@EA 	 DATA
	?m_instance@?$singleton@V?$extended_type_info_typeid@V?$vector@PEAVAbstractParameter@karto@@V?$allocator@PEAVAbstractParameter@karto@@@std@@@std@@@serialization@boost@@@serialization@boost@@0PEAV?$extended_type_info_typeid@V?$vector@PEAVAbstractParameter@karto@@V?$allocator@PEAVAbstractParameter@karto@@@std@@@std@@@23@EA 	 DATA
	?m_instance@?$singleton@V?$extended_type_info_typeid@V?$vector@PEAVObject@karto@@V?$allocator@PEAVObject@karto@@@std@@@std@@@serialization@boost@@@serialization@boost@@0PEAV?$extended_type_info_typeid@V?$vector@PEAVObject@karto@@V?$allocator@PEAVObject@karto@@@std@@@std@@@23@EA 	 DATA
	?m_instance@?$singleton@V?$extended_type_info_typeid@VAbstractParameter@karto@@@serialization@boost@@@serialization@boost@@0PEAV?$extended_type_info_typeid@VAbstractParameter@karto@@@23@EA 	 DATA
	?m_instance@?$singleton@V?$extended_type_info_typeid@VDataset@karto@@@serialization@boost@@@serialization@boost@@0PEAV?$extended_type_info_typeid@VDataset@karto@@@23@EA 	 DATA
	?m_instance@?$singleton@V?$extended_type_info_typeid@VDatasetInfo@karto@@@serialization@boost@@@serialization@boost@@0PEAV?$extended_type_info_typeid@VDatasetInfo@karto@@@23@EA 	 DATA
	?m_instance@?$singleton@V?$extended_type_info_typeid@VName@karto@@@serialization@boost@@@serialization@boost@@0PEAV?$extended_type_info_typeid@VName@karto@@@23@EA 	 DATA
	?m_instance@?$singleton@V?$extended_type_info_typeid@VNonCopyable@karto@@@serialization@boost@@@serialization@boost@@0PEAV?$extended_type_info_typeid@VNonCopyable@karto@@@23@EA 	 DATA
	?m_instance@?$singleton@V?$extended_type_info_typeid@VObject@karto@@@serialization@boost@@@serialization@boost@@0PEAV?$extended_type_info_typeid@VObject@karto@@@23@EA 	 DATA
	?m_instance@?$singleton@V?$extended_type_info_typeid@VParameterManager@karto@@@serialization@boost@@@serialization@boost@@0PEAV?$extended_type_info_typeid@VParameterManager@karto@@@23@EA 	 DATA
	?m_instance@?$singleton@V?$extended_type_info_typeid@VSensor@karto@@@serialization@boost@@@serialization@boost@@0PEAV?$extended_type_info_typeid@VSensor@karto@@@23@EA 	 DATA
	?m_instance@?$singleton@V?$iserializer@Vbinary_iarchive@archive@boost@@U?$pair@$$CBHPEAVObject@karto@@@std@@@detail@archive@boost@@@serialization@boost@@0PEAV?$iserializer@Vbinary_iarchive@archive@boost@@U?$pair@$$CBHPEAVObject@karto@@@std@@@detail@archive@3@EA 	 DATA
	?m_instance@?$singleton@V?$iserializer@Vbinary_iarchive@archive@boost@@U?$pair@$$CBV?$basic_string@DU?$char_traits@D@std@@V?$allocator@D@2@@std@@PEAVAbstractParameter@karto@@@std@@@detail@archive@boost@@@serialization@boost@@0PEAV?$iserializer@Vbinary_iarchive@archive@boost@@U?$pair@$$CBV?$basic_string@DU?$char_traits@D@std@@V?$allocator@D@2@@std@@PEAVAbstractParameter@karto@@@std@@@detail@archive@3@EA 	 DATA
	?m_instance@?$singleton@V?$iserializer@Vbinary_iarchive@archive@boost@@U?$pair@$$CBVName@karto@@PEAVSensor@2@@std@@@detail@archive@boost@@@serialization@boost@@0PEAV?$iserializer@Vbinary_iarchive@archive@boost@@U?$pair@$$CBVName@karto@@PEAVSensor@2@@std@@@detail@archive@3@EA 	 DATA
	?m_instance@?$singleton@V?$iserializer@Vbinary_iarchive@archive@boost@@V?$Parameter@V?$basic_string@DU?$char_traits@D@std@@V?$allocator@D@2@@std@@@karto@@@detail@archive@boost@@@serialization@boost@@0PEAV?$iserializer@Vbinary_iarchive@archive@boost@@V?$Parameter@V?$basic_string@DU?$char_traits@D@std@@V?$allocator@D@2@@std@@@karto@@@detail@archive@3@EA 	 DATA
	?m_instance@?$singleton@V?$iserializer@Vbinary_iarchive@archive@boost@@V?$map@HPEAVObject@karto@@U?$less@H@std@@V?$allocator@U?$pair@$$CBHPEAVObject@karto@@@std@@@4@@std@@@detail@archive@boost@@@serialization@boost@@0PEAV?$iserializer@Vbinary_iarchive@archive@boost@@V?$map@HPEAVObject@karto@@U?$less@H@std@@V?$allocator@U?$pair@$$CBHPEAVObject@karto@@@std@@@4@@std@@@detail@archive@3@EA 	 DATA
	?m_instance@?$singleton@V?$iserializer@Vbinary_iarchive@archive@boost@@V?$map@V?$basic_string@DU?$char_traits@D@std@@V?$allocator@D@2@@std@@PEAVAbstractParameter@karto@@U?$less@V?$basic_string@DU?$char_traits@D@std@@V?$allocator@D@2@@std@@@2@V?$allocator@U?$pair@$$CBV?$basic_string@DU?$char_traits@D@std@@V?$allocator@D@2@@std@@PEAVAbstractParameter@karto@@@std@@@2@@std@@@detail@archive@boost@@@serialization@boost@@0PEAV?$iserializer@Vbinary_iarchive@archive@boost@@V?$map@V?$basic_string@DU?$char_traits@D@std@@V?$allocator@D@2@@std@@PEAVAbstractParameter@karto@@U?$less@V?$basic_string@DU?$char_traits@D@std@@V?$allocator@D@2@@std@@@2@V?$allocator@U?$pair@$$CBV?$basic_string@DU?$char_traits@D@std@@V?$allocator@D@2@@std@@PEAVAbstractParameter@karto@@@std@@@2@@std@@@detail@archive@3@EA 	 DATA
	?m_instance@?$singleton@V?$iserializer@Vbinary_iarchive@archive@boost@@V?$map@VName@karto@@PEAVSensor@2@U?$less@VName@karto@@@std@@V?$allocator@U?$pair@$$CBVName@karto@@PEAVSensor@2@@std@@@5@@std@@@detail@archive@boost@@@serialization@boost@@0PEAV?$iserializer@Vbinary_iarchive@archive@boost@@V?$map@VName@karto@@PEAVSensor@2@U?$less@VName@karto@@@std@@V?$allocator@U?$pair@$$CBVName@karto@@PEAVSensor@2@@std@@@5@@std@@@detail@archive@3@EA 	 DATA
	?m_instance@?$singleton@V?$iserializer@Vbinary_iarchive@archive@boost@@V?$vector@PEAVAbstractParameter@karto@@V?$allocator@PEAVAbstractParameter@karto@@@std@@@std@@@detail@archive@boost@@@serialization@boost@@0PEAV?$iserializer@Vbinary_iarchive@archive@boost@@V?$vector@PEAVAbstractParameter@karto@@V?$allocator@PEAVAbstractParameter@karto@@@std@@@std@@@detail@archive@3@EA 	 DATA
	?m_instance@?$singleton@V?$iserializer@Vbinary_iarchive@archive@boost@@V?$vector@PEAVObject@karto@@V?$allocator@PEAVObject@karto@@@std@@@std@@@detail@archive@boost@@@serialization@boost@@0PEAV?$iserializer@Vbinary_iarchive@archive@boost@@V?$vector@PEAVObject@karto@@V?$allocator@PEAVObject@karto@@@std@@@std@@@detail@archive@3@EA 	 DATA
	?m_instance@?$singleton@V?$iserializer@Vbinary_iarchive@archive@boost@@VAbstractParameter@karto@@@detail@archive@boost@@@serialization@boost@@0PEAV?$iserializer@Vbinary_iarchive@archive@boost@@VAbstractParameter@karto@@@detail@archive@3@EA 	 DATA
	?m_instance@?$singleton@V?$iserializer@Vbinary_iarchive@archive@boost@@VDataset@karto@@@detail@archive@boost@@@serialization@boost@@0PEAV?$iserializer@Vbinary_iarchive@archive@boost@@VDataset@karto@@@detail@archive@3@EA 	 DATA
	?m_instance@?$singleton@V?$iserializer@Vbinary_iarchive@archive@boost@@VDatasetInfo@karto@@@detail@archive@boost@@@serialization@boost@@0PEAV?$iserializer@Vbinary_iarchive@archive@boost@@VDatasetInfo@karto@@@detail@archive@3@EA 	 DATA
	?m_instance@?$singleton@V?$iserializer@Vbinary_iarchive@archive@boost@@VName@karto@@@detail@archive@boost@@@serialization@boost@@0PEAV?$iserializer@Vbinary_iarchive@archive@boost@@VName@karto@@@detail@archive@3@EA 	 DATA
	?m_instance@?$singleton@V?$iserializer@Vbinary_iarchive@archive@boost@@VNonCopyable@karto@@@detail@archive@boost@@@serialization@boost@@0PEAV?$iserializer@Vbinary_iarchive@archive@boost@@VNonCopyable@karto@@@detail@archive@3@EA 	 DATA
	?m_instance@?$singleton@V?$iserializer@Vbinary_iarchive@archive@boost@@VObject@karto@@@detail@archive@boost@@@serialization@boost@@0PEAV?$iserializer@Vbinary_iarchive@archive@boost@@VObject@karto@@@detail@archive@3@EA 	 DATA
	?m_instance@?$singleton@V?$iserializer@Vbinary_iarchive@archive@boost@@VParameterManager@karto@@@detail@archive@boost@@@serialization@boost@@0PEAV?$iserializer@Vbinary_iarchive@archive@boost@@VParameterManager@karto@@@detail@archive@3@EA 	 DATA
	?m_instance@?$singleton@V?$oserializer@Vbinary_oarchive@archive@boost@@U?$pair@$$CBHPEAVObject@karto@@@std@@@detail@archive@boost@@@serialization@boost@@0PEAV?$oserializer@Vbinary_oarchive@archive@boost@@U?$pair@$$CBHPEAVObject@karto@@@std@@@detail@archive@3@EA 	 DATA
	?m_instance@?$singleton@V?$oserializer@Vbinary_oarchive@archive@boost@@U?$pair@$$CBV?$basic_string@DU?$char_traits@D@std@@V?$allocator@D@2@@std@@PEAVAbstractParameter@karto@@@std@@@detail@archive@boost@@@serialization@boost@@0PEAV?$oserializer@Vbinary_oarchive@archive@boost@@U?$pair@$$CBV?$basic_string@DU?$char_traits@D@std@@V?$allocator@D@2@@std@@PEAVAbstractParameter@karto@@@std@@@detail@archive@3@EA 	 DATA
	?m_instance@?$singleton@V?$oserializer@Vbinary_oarchive@archive@boost@@U?$pair@$$CBVName@karto@@PEAVSensor@2@@std@@@detail@archive@boost@@@serialization@boost@@0PEAV?$oserializer@Vbinary_oarchive@archive@boost@@U?$pair@$$CBVName@karto@@PEAVSensor@2@@std@@@detail@archive@3@EA 	 DATA
	?m_instance@?$singleton@V?$oserializer@Vbinary_oarchive@archive@boost@@V?$Parameter@V?$basic_string@DU?$char_traits@D@std@@V?$allocator@D@2@@std@@@karto@@@detail@archive@boost@@@serialization@boost@@0PEAV?$oserializer@Vbinary_oarchive@archive@boost@@V?$Parameter@V?$basic_string@DU?$char_traits@D@std@@V?$allocator@D@2@@std@@@karto@@@detail@archive@3@EA 	 DATA
	?m_instance@?$singleton@V?$oserializer@Vbinary_oarchive@archive@boost@@V?$map@HPEAVObject@karto@@U?$less@H@std@@V?$allocator@U?$pair@$$CBHPEAVObject@karto@@@std@@@4@@std@@@detail@archive@boost@@@serialization@boost@@0PEAV?$oserializer@Vbinary_oarchive@archive@boost@@V?$map@HPEAVObject@karto@@U?$less@H@std@@V?$allocator@U?$pair@$$CBHPEAVObject@karto@@@std@@@4@@std@@@detail@archive@3@EA 	 DATA
	?m_instance@?$singleton@V?$oserializer@Vbinary_oarchive@archive@boost@@V?$map@V?$basic_string@DU?$char_traits@D@std@@V?$allocator@D@2@@std@@PEAVAbstractParameter@karto@@U?$less@V?$basic_string@DU?$char_traits@D@std@@V?$allocator@D@2@@std@@@2@V?$allocator@U?$pair@$$CBV?$basic_string@DU?$char_traits@D@std@@V?$allocator@D@2@@std@@PEAVAbstractParameter@karto@@@std@@@2@@std@@@detail@archive@boost@@@serialization@boost@@0PEAV?$oserializer@Vbinary_oarchive@archive@boost@@V?$map@V?$basic_string@DU?$char_traits@D@std@@V?$allocator@D@2@@std@@PEAVAbstractParameter@karto@@U?$less@V?$basic_string@DU?$char_traits@D@std@@V?$allocator@D@2@@std@@@2@V?$allocator@U?$pair@$$CBV?$basic_string@DU?$char_traits@D@std@@V?$allocator@D@2@@std@@PEAVAbstractParameter@karto@@@std@@@2@@std@@@detail@archive@3@EA 	 DATA
	?m_instance@?$singleton@V?$oserializer@Vbinary_oarchive@archive@boost@@V?$map@VName@karto@@PEAVSensor@2@U?$less@VName@karto@@@std@@V?$allocator@U?$pair@$$CBVName@karto@@PEAVSensor@2@@std@@@5@@std@@@detail@archive@boost@@@serialization@boost@@0PEAV?$oserializer@Vbinary_oarchive@archive@boost@@V?$map@VName@karto@@PEAVSensor@2@U?$less@VName@karto@@@std@@V?$allocator@U?$pair@$$CBVName@karto@@PEAVSensor@2@@std@@@5@@std@@@detail@archive@3@EA 	 DATA
	?m_instance@?$singleton@V?$oserializer@Vbinary_oarchive@archive@boost@@V?$vector@PEAVAbstractParameter@karto@@V?$allocator@PEAVAbstractParameter@karto@@@std@@@std@@@detail@archive@boost@@@serialization@boost@@0PEAV?$oserializer@Vbinary_oarchive@archive@boost@@V?$vector@PEAVAbstractParameter@karto@@V?$allocator@PEAVAbstractParameter@karto@@@std@@@std@@@detail@archive@3@EA 	 DATA
	?m_instance@?$singleton@V?$oserializer@Vbinary_oarchive@archive@boost@@V?$vector@PEAVObject@karto@@V?$allocator@PEAVObject@karto@@@std@@@std@@@detail@archive@boost@@@serialization@boost@@0PEAV?$oserializer@Vbinary_oarchive@archive@boost@@V?$vector@PEAVObject@karto@@V?$allocator@PEAVObject@karto@@@std@@@std@@@detail@archive@3@EA 	 DATA
	?m_instance@?$singleton@V?$oserializer@Vbinary_oarchive@archive@boost@@VAbstractParameter@karto@@@detail@archive@boost@@@serialization@boost@@0PEAV?$oserializer@Vbinary_oarchive@archive@boost@@VAbstractParameter@karto@@@detail@archive@3@EA 	 DATA
	?m_instance@?$singleton@V?$oserializer@Vbinary_oarchive@archive@boost@@VDataset@karto@@@detail@archive@boost@@@serialization@boost@@0PEAV?$oserializer@Vbinary_oarchive@archive@boost@@VDataset@karto@@@detail@archive@3@EA 	 DATA
	?m_instance@?$singleton@V?$oserializer@Vbinary_oarchive@archive@boost@@VDatasetInfo@karto@@@detail@archive@boost@@@serialization@boost@@0PEAV?$oserializer@Vbinary_oarchive@archive@boost@@VDatasetInfo@karto@@@detail@archive@3@EA 	 DATA
	?m_instance@?$singleton@V?$oserializer@Vbinary_oarchive@archive@boost@@VName@karto@@@detail@archive@boost@@@serialization@boost@@0PEAV?$oserializer@Vbinary_oarchive@archive@boost@@VName@karto@@@detail@archive@3@EA 	 DATA
	?m_instance@?$singleton@V?$oserializer@Vbinary_oarchive@archive@boost@@VNonCopyable@karto@@@detail@archive@boost@@@serialization@boost@@0PEAV?$oserializer@Vbinary_oarchive@archive@boost@@VNonCopyable@karto@@@detail@archive@3@EA 	 DATA
	?m_instance@?$singleton@V?$oserializer@Vbinary_oarchive@archive@boost@@VObject@karto@@@detail@archive@boost@@@serialization@boost@@0PEAV?$oserializer@Vbinary_oarchive@archive@boost@@VObject@karto@@@detail@archive@3@EA 	 DATA
	?m_instance@?$singleton@V?$oserializer@Vbinary_oarchive@archive@boost@@VParameterManager@karto@@@detail@archive@boost@@@serialization@boost@@0PEAV?$oserializer@Vbinary_oarchive@archive@boost@@VParameterManager@karto@@@detail@archive@3@EA 	 DATA
	?m_instance@?$singleton@V?$pointer_iserializer@Vbinary_iarchive@archive@boost@@VDatasetInfo@karto@@@detail@archive@boost@@@serialization@boost@@0PEAV?$pointer_iserializer@Vbinary_iarchive@archive@boost@@VDatasetInfo@karto@@@detail@archive@3@EA 	 DATA
	?m_instance@?$singleton@V?$pointer_iserializer@Vbinary_iarchive@archive@boost@@VParameterManager@karto@@@detail@archive@boost@@@serialization@boost@@0PEAV?$pointer_iserializer@Vbinary_iarchive@archive@boost@@VParameterManager@karto@@@detail@archive@3@EA 	 DATA
	?m_instance@?$singleton@V?$pointer_oserializer@Vbinary_oarchive@archive@boost@@VDatasetInfo@karto@@@detail@archive@boost@@@serialization@boost@@0PEAV?$pointer_oserializer@Vbinary_oarchive@archive@boost@@VDatasetInfo@karto@@@detail@archive@3@EA 	 DATA
	?m_instance@?$singleton@V?$pointer_oserializer@Vbinary_oarchive@archive@boost@@VParameterManager@karto@@@detail@archive@boost@@@serialization@boost@@0PEAV?$pointer_oserializer@Vbinary_oarchive@archive@boost@@VParameterManager@karto@@@detail@archive@3@EA 	 DATA
	?m_instance@?$singleton@V?$void_caster_primitive@V?$Parameter@V?$basic_string@DU?$char_traits@D@std@@V?$allocator@D@2@@std@@@karto@@VAbstractParameter@2@@void_cast_detail@serialization@boost@@@serialization@boost@@0PEAV?$void_caster_primitive@V?$Parameter@V?$basic_string@DU?$char_traits@D@std@@V?$allocator@D@2@@std@@@karto@@VAbstractParameter@2@@void_cast_detail@23@EA 	 DATA
	?m_instance@?$singleton@V?$void_caster_primitive@VDatasetInfo@karto@@VObject@2@@void_cast_detail@serialization@boost@@@serialization@boost@@0PEAV?$void_caster_primitive@VDatasetInfo@karto@@VObject@2@@void_cast_detail@23@EA 	 DATA
	?m_instance@?$singleton@V?$void_caster_primitive@VObject@karto@@VNonCopyable@2@@void_cast_detail@serialization@boost@@@serialization@boost@@0PEAV?$void_caster_primitive@VObject@karto@@VNonCopyable@2@@void_cast_detail@23@EA 	 DATA
	?m_instance@?$singleton@V?$void_caster_primitive@VParameterManager@karto@@VNonCopyable@2@@void_cast_detail@serialization@boost@@@serialization@boost@@0PEAV?$void_caster_primitive@VParameterManager@karto@@VNonCopyable@2@@void_cast_detail@23@EA 	 DATA
	?t@?1??get_instance@?$singleton@V?$archive_serializer_map@Vbinary_oarchive@archive@boost@@@detail@archive@boost@@@serialization@boost@@CAAEAV?$archive_serializer_map@Vbinary_oarchive@archive@boost@@@detail@archive@4@XZ@4V?$singleton_wrapper@V?$archive_serializer_map@Vbinary_oarchive@archive@boost@@@detail@archive@boost@@@634@A 	 DATA
	?t@?1??get_instance@?$singleton@V?$extended_type_info_typeid@U?$pair@$$CBHPEAVObject@karto@@@std@@@serialization@boost@@@serialization@boost@@CAAEAV?$extended_type_info_typeid@U?$pair@$$CBHPEAVObject@karto@@@std@@@34@XZ@4V?$singleton_wrapper@V?$extended_type_info_typeid@U?$pair@$$CBHPEAVObject@karto@@@std@@@serialization@boost@@@detail@34@A 	 DATA
	?t@?1??get_instance@?$singleton@V?$extended_type_info_typeid@U?$pair@$$CBV?$basic_string@DU?$char_traits@D@std@@V?$allocator@D@2@@std@@PEAVAbstractParameter@karto@@@std@@@serialization@boost@@@serialization@boost@@CAAEAV?$extended_type_info_typeid@U?$pair@$$CBV?$basic_string@DU?$char_traits@D@std@@V?$allocator@D@2@@std@@PEAVAbstractParameter@karto@@@std@@@34@XZ@4V?$singleton_wrapper@V?$extended_type_info_typeid@U?$pair@$$CBV?$basic_string@DU?$char_traits@D@std@@V?$allocator@D@2@@std@@PEAVAbstractParameter@karto@@@std@@@serialization@boost@@@detail@34@A 	 DATA
	?t@?1??get_instance@?$singleton@V?$extended_type_info_typeid@U?$pair@$$CBVName@karto@@PEAVSensor@2@@std@@@serialization@boost@@@serialization@boost@@CAAEAV?$extended_type_info_typeid@U?$pair@$$CBVName@karto@@PEAVSensor@2@@std@@@34@XZ@4V?$singleton_wrapper@V?$extended_type_info_typeid@U?$pair@$$CBVName@karto@@PEAVSensor@2@@std@@@serialization@boost@@@detail@34@A 	 DATA
	?t@?1??get_instance@?$singleton@V?$extended_type_info_typeid@V?$Parameter@V?$basic_string@DU?$char_traits@D@std@@V?$allocator@D@2@@std@@@karto@@@serialization@boost@@@serialization@boost@@CAAEAV?$extended_type_info_typeid@V?$Parameter@V?$basic_string@DU?$char_traits@D@std@@V?$allocator@D@2@@std@@@karto@@@34@XZ@4V?$singleton_wrapper@V?$extended_type_info_typeid@V?$Parameter@V?$basic_string@DU?$char_traits@D@std@@V?$allocator@D@2@@std@@@karto@@@serialization@boost@@@detail@34@A 	 DATA
	?t@?1??get_instance@?$singleton@V?$extended_type_info_typeid@V?$map@HPEAVObject@karto@@U?$less@H@std@@V?$allocator@U?$pair@$$CBHPEAVObject@karto@@@std@@@4@@std@@@serialization@boost@@@serialization@boost@@CAAEAV?$extended_type_info_typeid@V?$map@HPEAVObject@karto@@U?$less@H@std@@V?$allocator@U?$pair@$$CBHPEAVObject@karto@@@std@@@4@@std@@@34@XZ@4V?$singleton_wrapper@V?$extended_type_info_typeid@V?$map@HPEAVObject@karto@@U?$less@H@std@@V?$allocator@U?$pair@$$CBHPEAVObject@karto@@@std@@@4@@std@@@serialization@boost@@@detail@34@A 	 DATA
	?t@?1??get_instance@?$singleton@V?$extended_type_info_typeid@V?$map@V?$basic_string@DU?$char_traits@D@std@@V?$allocator@D@2@@std@@PEAVAbstractParameter@karto@@U?$less@V?$basic_string@DU?$char_traits@D@std@@V?$allocator@D@2@@std@@@2@V?$allocator@U?$pair@$$CBV?$basic_string@DU?$char_traits@D@std@@V?$allocator@D@2@@std@@PEAVAbstractParameter@karto@@@std@@@2@@std@@@serialization@boost@@@serialization@boost@@CAAEAV?$extended_type_info_typeid@V?$map@V?$basic_string@DU?$char_traits@D@std@@V?$allocator@D@2@@std@@PEAVAbstractParameter@karto@@U?$less@V?$basic_string@DU?$char_traits@D@std@@V?$allocator@D@2@@std@@@2@V?$allocator@U?$pair@$$CBV?$basic_string@DU?$char_traits@D@std@@V?$allocator@D@2@@std@@PEAVAbstractParameter@karto@@@std@@@2@@std@@@34@XZ@4V?$singleton_wrapper@V?$extended_type_info_typeid@V?$map@V?$basic_string@DU?$char_traits@D@std@@V?$allocator@D@2@@std@@PEAVAbstractParameter@karto@@U?$less@V?$basic_string@DU?$char_traits@D@std@@V?$allocator@D@2@@std@@@2@V?$allocator@U?$pair@$$CBV?$basic_string@DU?$char_traits@D@std@@V?$allocator@D@2@@std@@PEAVAbstractParameter@karto@@@std@@@2@@std@@@serialization@boost@@@detail@34@A 	 DATA
	?t@?1??get_instance@?$singleton@V?$extended_type_info_typeid@V?$map@VName@karto@@PEAVSensor@2@U?$less@VName@karto@@@std@@V?$allocator@U?$pair@$$CBVName@karto@@PEAVSensor@2@@std@@@5@@std@@@serialization@boost@@@serialization@boost@@CAAEAV?$extended_type_info_typeid@V?$map@VName@karto@@PEAVSensor@2@U?$less@VName@karto@@@std@@V?$allocator@U?$pair@$$CBVName@karto@@PEAVSensor@2@@std@@@5@@std@@@34@XZ@4V?$singleton_wrapper@V?$extended_type_info_typeid@V?$map@VName@karto@@PEAVSensor@2@U?$less@VName@karto@@@std@@V?$allocator@U?$pair@$$CBVName@karto@@PEAVSensor@2@@std@@@5@@std@@@serialization@boost@@@detail@34@A 	 DATA
	?t@?1??get_instance@?$singleton@V?$extended_type_info_typeid@V?$vector@PEAVAbstractParameter@karto@@V?$allocator@PEAVAbstractParameter@karto@@@std@@@std@@@serialization@boost@@@serialization@boost@@CAAEAV?$extended_type_info_typeid@V?$vector@PEAVAbstractParameter@karto@@V?$allocator@PEAVAbstractParameter@karto@@@std@@@std@@@34@XZ@4V?$singleton_wrapper@V?$extended_type_info_typeid@V?$vector@PEAVAbstractParameter@karto@@V?$allocator@PEAVAbstractParameter@karto@@@std@@@std@@@serialization@boost@@@detail@34@A 	 DATA
	?t@?1??get_instance@?$singleton@V?$extended_type_info_typeid@V?$vector@PEAVObject@karto@@V?$allocator@PEAVObject@karto@@@std@@@std@@@serialization@boost@@@serialization@boost@@CAAEAV?$extended_type_info_typeid@V?$vector@PEAVObject@karto@@V?$allocator@PEAVObject@karto@@@std@@@std@@@34@XZ@4V?$singleton_wrapper@V?$extended_type_info_typeid@V?$vector@PEAVObject@karto@@V?$allocator@PEAVObject@karto@@@std@@@std@@@serialization@boost@@@detail@34@A 	 DATA
	?t@?1??get_instance@?$singleton@V?$extended_type_info_typeid@VAbstractParameter@karto@@@serialization@boost@@@serialization@boost@@CAAEAV?$extended_type_info_typeid@VAbstractParameter@karto@@@34@XZ@4V?$singleton_wrapper@V?$extended_type_info_typeid@VAbstractParameter@karto@@@serialization@boost@@@detail@34@A 	 DATA
	?t@?1??get_instance@?$singleton@V?$extended_type_info_typeid@VDataset@karto@@@serialization@boost@@@serialization@boost@@CAAEAV?$extended_type_info_typeid@VDataset@karto@@@34@XZ@4V?$singleton_wrapper@V?$extended_type_info_typeid@VDataset@karto@@@serialization@boost@@@detail@34@A 	 DATA
	?t@?1??get_instance@?$singleton@V?$extended_type_info_typeid@VDatasetInfo@karto@@@serialization@boost@@@serialization@boost@@CAAEAV?$extended_type_info_typeid@VDatasetInfo@karto@@@34@XZ@4V?$singleton_wrapper@V?$extended_type_info_typeid@VDatasetInfo@karto@@@serialization@boost@@@detail@34@A 	 DATA
	?t@?1??get_instance@?$singleton@V?$extended_type_info_typeid@VName@karto@@@serialization@boost@@@serialization@boost@@CAAEAV?$extended_type_info_typeid@VName@karto@@@34@XZ@4V?$singleton_wrapper@V?$extended_type_info_typeid@VName@karto@@@serialization@boost@@@detail@34@A 	 DATA
	?t@?1??get_instance@?$singleton@V?$extended_type_info_typeid@VNonCopyable@karto@@@serialization@boost@@@serialization@boost@@CAAEAV?$extended_type_info_typeid@VNonCopyable@karto@@@34@XZ@4V?$singleton_wrapper@V?$extended_type_info_typeid@VNonCopyable@karto@@@serialization@boost@@@detail@34@A 	 DATA
	?t@?1??get_instance@?$singleton@V?$extended_type_info_typeid@VObject@karto@@@serialization@boost@@@serialization@boost@@CAAEAV?$extended_type_info_typeid@VObject@karto@@@34@XZ@4V?$singleton_wrapper@V?$extended_type_info_typeid@VObject@karto@@@serialization@boost@@@detail@34@A 	 DATA
	?t@?1??get_instance@?$singleton@V?$extended_type_info_typeid@VParameterManager@karto@@@serialization@boost@@@serialization@boost@@CAAEAV?$extended_type_info_typeid@VParameterManager@karto@@@34@XZ@4V?$singleton_wrapper@V?$extended_type_info_typeid@VParameterManager@karto@@@serialization@boost@@@detail@34@A 	 DATA
	?t@?1??get_instance@?$singleton@V?$extended_type_info_typeid@VSensor@karto@@@serialization@boost@@@serialization@boost@@CAAEAV?$extended_type_info_typeid@VSensor@karto@@@34@XZ@4V?$singleton_wrapper@V?$extended_type_info_typeid@VSensor@karto@@@serialization@boost@@@detail@34@A 	 DATA
	?t@?1??get_instance@?$singleton@V?$iserializer@Vbinary_iarchive@archive@boost@@U?$pair@$$CBHPEAVObject@karto@@@std@@@detail@archive@boost@@@serialization@boost@@CAAEAV?$iserializer@Vbinary_iarchive@archive@boost@@U?$pair@$$CBHPEAVObject@karto@@@std@@@detail@archive@4@XZ@4V?$singleton_wrapper@V?$iserializer@Vbinary_iarchive@archive@boost@@U?$pair@$$CBHPEAVObject@karto@@@std@@@detail@archive@boost@@@634@A 	 DATA
	?t@?1??get_instance@?$singleton@V?$iserializer@Vbinary_iarchive@archive@boost@@U?$pair@$$CBV?$basic_string@DU?$char_traits@D@std@@V?$allocator@D@2@@std@@PEAVAbstractParameter@karto@@@std@@@detail@archive@boost@@@serialization@boost@@CAAEAV?$iserializer@Vbinary_iarchive@archive@boost@@U?$pair@$$CBV?$basic_string@DU?$char_traits@D@std@@V?$allocator@D@2@@std@@PEAVAbstractParameter@karto@@@std@@@detail@archive@4@XZ@4V?$singleton_wrapper@V?$iserializer@Vbinary_iarchive@archive@boost@@U?$pair@$$CBV?$basic_string@DU?$char_traits@D@std@@V?$allocator@D@2@@std@@PEAVAbstractParameter@karto@@@std@@@detail@archive@boost@@@634@A 	 DATA
	?t@?1??get_instance@?$singleton@V?$iserializer@Vbinary_iarchive@archive@boost@@U?$pair@$$CBVName@karto@@PEAVSensor@2@@std@@@detail@archive@boost@@@serialization@boost@@CAAEAV?$iserializer@Vbinary_iarchive@archive@boost@@U?$pair@$$CBVName@karto@@PEAVSensor@2@@std@@@detail@archive@4@XZ@4V?$singleton_wrapper@V?$iserializer@Vbinary_iarchive@archive@boost@@U?$pair@$$CBVName@karto@@PEAVSensor@2@@std@@@detail@archive@boost@@@634@A 	 DATA
	?t@?1??get_instance@?$singleton@V?$iserializer@Vbinary_iarchive@archive@boost@@V?$Parameter@V?$basic_string@DU?$char_traits@D@std@@V?$allocator@D@2@@std@@@karto@@@detail@archive@boost@@@serialization@boost@@CAAEAV?$iserializer@Vbinary_iarchive@archive@boost@@V?$Parameter@V?$basic_string@DU?$char_traits@D@std@@V?$allocator@D@2@@std@@@karto@@@detail@archive@4@XZ@4V?$singleton_wrapper@V?$iserializer@Vbinary_iarchive@archive@boost@@V?$Parameter@V?$basic_string@DU?$char_traits@D@std@@V?$allocator@D@2@@std@@@karto@@@detail@archive@boost@@@634@A 	 DATA
	?t@?1??get_instance@?$singleton@V?$iserializer@Vbinary_iarchive@archive@boost@@V?$map@HPEAVObject@karto@@U?$less@H@std@@V?$allocator@U?$pair@$$CBHPEAVObject@karto@@@std@@@4@@std@@@detail@archive@boost@@@serialization@boost@@CAAEAV?$iserializer@Vbinary_iarchive@archive@boost@@V?$map@HPEAVObject@karto@@U?$less@H@std@@V?$allocator@U?$pair@$$CBHPEAVObject@karto@@@std@@@4@@std@@@detail@archive@4@XZ@4V?$singleton_wrapper@V?$iserializer@Vbinary_iarchive@archive@boost@@V?$map@HPEAVObject@karto@@U?$less@H@std@@V?$allocator@U?$pair@$$CBHPEAVObject@karto@@@std@@@4@@std@@@detail@archive@boost@@@634@A 	 DATA
	?t@?1??get_instance@?$singleton@V?$iserializer@Vbinary_iarchive@archive@boost@@V?$map@V?$basic_string@DU?$char_traits@D@std@@V?$allocator@D@2@@std@@PEAVAbstractParameter@karto@@U?$less@V?$basic_string@DU?$char_traits@D@std@@V?$allocator@D@2@@std@@@2@V?$allocator@U?$pair@$$CBV?$basic_string@DU?$char_traits@D@std@@V?$allocator@D@2@@std@@PEAVAbstractParameter@karto@@@std@@@2@@std@@@detail@archive@boost@@@serialization@boost@@CAAEAV?$iserializer@Vbinary_iarchive@archive@boost@@V?$map@V?$basic_string@DU?$char_traits@D@std@@V?$allocator@D@2@@std@@PEAVAbstractParameter@karto@@U?$less@V?$basic_string@DU?$char_traits@D@std@@V?$allocator@D@2@@std@@@2@V?$allocator@U?$pair@$$CBV?$basic_string@DU?$char_traits@D@std@@V?$allocator@D@2@@std@@PEAVAbstractParameter@karto@@@std@@@2@@std@@@detail@archive@4@XZ@4V?$singleton_wrapper@V?$iserializer@Vbinary_iarchive@archive@boost@@V?$map@V?$basic_string@DU?$char_traits@D@std@@V?$allocator@D@2@@std@@PEAVAbstractParameter@karto@@U?$less@V?$basic_string@DU?$char_traits@D@std@@V?$allocator@D@2@@std@@@2@V?$allocator@U?$pair@$$CBV?$basic_string@DU?$char_traits@D@std@@V?$allocator@D@2@@std@@PEAVAbstractParameter@karto@@@std@@@2@@std@@@detail@archive@boost@@@634@A 	 DATA
	?t@?1??get_instance@?$singleton@V?$iserializer@Vbinary_iarchive@archive@boost@@V?$map@VName@karto@@PEAVSensor@2@U?$less@VName@karto@@@std@@V?$allocator@U?$pair@$$CBVName@karto@@PEAVSensor@2@@std@@@5@@std@@@detail@archive@boost@@@serialization@boost@@CAAEAV?$iserializer@Vbinary_iarchive@archive@boost@@V?$map@VName@karto@@PEAVSensor@2@U?$less@VName@karto@@@std@@V?$allocator@U?$pair@$$CBVName@karto@@PEAVSensor@2@@std@@@5@@std@@@detail@archive@4@XZ@4V?$singleton_wrapper@V?$iserializer@Vbinary_iarchive@archive@boost@@V?$map@VName@karto@@PEAVSensor@2@U?$less@VName@karto@@@std@@V?$allocator@U?$pair@$$CBVName@karto@@PEAVSensor@2@@std@@@5@@std@@@detail@archive@boost@@@634@A 	 DATA
	?t@?1??get_instance@?$singleton@V?$iserializer@Vbinary_iarchive@archive@boost@@V?$vector@PEAVAbstractParameter@karto@@V?$allocator@PEAVAbstractParameter@karto@@@std@@@std@@@detail@archive@boost@@@serialization@boost@@CAAEAV?$iserializer@Vbinary_iarchive@archive@boost@@V?$vector@PEAVAbstractParameter@karto@@V?$allocator@PEAVAbstractParameter@karto@@@std@@@std@@@detail@archive@4@XZ@4V?$singleton_wrapper@V?$iserializer@Vbinary_iarchive@archive@boost@@V?$vector@PEAVAbstractParameter@karto@@V?$allocator@PEAVAbstractParameter@karto@@@std@@@std@@@detail@archive@boost@@@634@A 	 DATA
	?t@?1??get_instance@?$singleton@V?$iserializer@Vbinary_iarchive@archive@boost@@V?$vector@PEAVObject@karto@@V?$allocator@PEAVObject@karto@@@std@@@std@@@detail@archive@boost@@@serialization@boost@@CAAEAV?$iserializer@Vbinary_iarchive@archive@boost@@V?$vector@PEAVObject@karto@@V?$allocator@PEAVObject@karto@@@std@@@std@@@detail@archive@4@XZ@4V?$singleton_wrapper@V?$iserializer@Vbinary_iarchive@archive@boost@@V?$vector@PEAVObject@karto@@V?$allocator@PEAVObject@karto@@@std@@@std@@@detail@archive@boost@@@634@A 	 DATA
	?t@?1??get_instance@?$singleton@V?$iserializer@Vbinary_iarchive@archive@boost@@VAbstractParameter@karto@@@detail@archive@boost@@@serialization@boost@@CAAEAV?$iserializer@Vbinary_iarchive@archive@boost@@VAbstractParameter@karto@@@detail@archive@4@XZ@4V?$singleton_wrapper@V?$iserializer@Vbinary_iarchive@archive@boost@@VAbstractParameter@karto@@@detail@archive@boost@@@634@A 	 DATA
	?t@?1??get_instance@?$singleton@V?$iserializer@Vbinary_iarchive@archive@boost@@VDataset@karto@@@detail@archive@boost@@@serialization@boost@@CAAEAV?$iserializer@Vbinary_iarchive@archive@boost@@VDataset@karto@@@detail@archive@4@XZ@4V?$singleton_wrapper@V?$iserializer@Vbinary_iarchive@archive@boost@@VDataset@karto@@@detail@archive@boost@@@634@A 	 DATA
	?t@?1??get_instance@?$singleton@V?$iserializer@Vbinary_iarchive@archive@boost@@VDatasetInfo@karto@@@detail@archive@boost@@@serialization@boost@@CAAEAV?$iserializer@Vbinary_iarchive@archive@boost@@VDatasetInfo@karto@@@detail@archive@4@XZ@4V?$singleton_wrapper@V?$iserializer@Vbinary_iarchive@archive@boost@@VDatasetInfo@karto@@@detail@archive@boost@@@634@A 	 DATA
	?t@?1??get_instance@?$singleton@V?$iserializer@Vbinary_iarchive@archive@boost@@VName@karto@@@detail@archive@boost@@@serialization@boost@@CAAEAV?$iserializer@Vbinary_iarchive@archive@boost@@VName@karto@@@detail@archive@4@XZ@4V?$singleton_wrapper@V?$iserializer@Vbinary_iarchive@archive@boost@@VName@karto@@@detail@archive@boost@@@634@A 	 DATA
	?t@?1??get_instance@?$singleton@V?$iserializer@Vbinary_iarchive@archive@boost@@VNonCopyable@karto@@@detail@archive@boost@@@serialization@boost@@CAAEAV?$iserializer@Vbinary_iarchive@archive@boost@@VNonCopyable@karto@@@detail@archive@4@XZ@4V?$singleton_wrapper@V?$iserializer@Vbinary_iarchive@archive@boost@@VNonCopyable@karto@@@detail@archive@boost@@@634@A 	 DATA
	?t@?1??get_instance@?$singleton@V?$iserializer@Vbinary_iarchive@archive@boost@@VObject@karto@@@detail@archive@boost@@@serialization@boost@@CAAEAV?$iserializer@Vbinary_iarchive@archive@boost@@VObject@karto@@@detail@archive@4@XZ@4V?$singleton_wrapper@V?$iserializer@Vbinary_iarchive@archive@boost@@VObject@karto@@@detail@archive@boost@@@634@A 	 DATA
	?t@?1??get_instance@?$singleton@V?$iserializer@Vbinary_iarchive@archive@boost@@VParameterManager@karto@@@detail@archive@boost@@@serialization@boost@@CAAEAV?$iserializer@Vbinary_iarchive@archive@boost@@VParameterManager@karto@@@detail@archive@4@XZ@4V?$singleton_wrapper@V?$iserializer@Vbinary_iarchive@archive@boost@@VParameterManager@karto@@@detail@archive@boost@@@634@A 	 DATA
	?t@?1??get_instance@?$singleton@V?$oserializer@Vbinary_oarchive@archive@boost@@U?$pair@$$CBHPEAVObject@karto@@@std@@@detail@archive@boost@@@serialization@boost@@CAAEAV?$oserializer@Vbinary_oarchive@archive@boost@@U?$pair@$$CBHPEAVObject@karto@@@std@@@detail@archive@4@XZ@4V?$singleton_wrapper@V?$oserializer@Vbinary_oarchive@archive@boost@@U?$pair@$$CBHPEAVObject@karto@@@std@@@detail@archive@boost@@@634@A 	 DATA
	?t@?1??get_instance@?$singleton@V?$oserializer@Vbinary_oarchive@archive@boost@@U?$pair@$$CBV?$basic_string@DU?$char_traits@D@std@@V?$allocator@D@2@@std@@PEAVAbstractParameter@karto@@@std@@@detail@archive@boost@@@serialization@boost@@CAAEAV?$oserializer@Vbinary_oarchive@archive@boost@@U?$pair@$$CBV?$basic_string@DU?$char_traits@D@std@@V?$allocator@D@2@@std@@PEAVAbstractParameter@karto@@@std@@@detail@archive@4@XZ@4V?$singleton_wrapper@V?$oserializer@Vbinary_oarchive@archive@boost@@U?$pair@$$CBV?$basic_string@DU?$char_traits@D@std@@V?$allocator@D@2@@std@@PEAVAbstractParameter@karto@@@std@@@detail@archive@boost@@@634@A 	 DATA
	?t@?1??get_instance@?$singleton@V?$oserializer@Vbinary_oarchive@archive@boost@@U?$pair@$$CBVName@karto@@PEAVSensor@2@@std@@@detail@archive@boost@@@serialization@boost@@CAAEAV?$oserializer@Vbinary_oarchive@archive@boost@@U?$pair@$$CBVName@karto@@PEAVSensor@2@@std@@@detail@archive@4@XZ@4V?$singleton_wrapper@V?$oserializer@Vbinary_oarchive@archive@boost@@U?$pair@$$CBVName@karto@@PEAVSensor@2@@std@@@detail@archive@boost@@@634@A 	 DATA
	?t@?1??get_instance@?$singleton@V?$oserializer@Vbinary_oarchive@archive@boost@@V?$Parameter@V?$basic_string@DU?$char_traits@D@std@@V?$allocator@D@2@@std@@@karto@@@detail@archive@boost@@@serialization@boost@@CAAEAV?$oserializer@Vbinary_oarchive@archive@boost@@V?$Parameter@V?$basic_string@DU?$char_traits@D@std@@V?$allocator@D@2@@std@@@karto@@@detail@archive@4@XZ@4V?$singleton_wrapper@V?$oserializer@Vbinary_oarchive@archive@boost@@V?$Parameter@V?$basic_string@DU?$char_traits@D@std@@V?$allocator@D@2@@std@@@karto@@@detail@archive@boost@@@634@A 	 DATA
	?t@?1??get_instance@?$singleton@V?$oserializer@Vbinary_oarchive@archive@boost@@V?$map@HPEAVObject@karto@@U?$less@H@std@@V?$allocator@U?$pair@$$CBHPEAVObject@karto@@@std@@@4@@std@@@detail@archive@boost@@@serialization@boost@@CAAEAV?$oserializer@Vbinary_oarchive@archive@boost@@V?$map@HPEAVObject@karto@@U?$less@H@std@@V?$allocator@U?$pair@$$CBHPEAVObject@karto@@@std@@@4@@std@@@detail@archive@4@XZ@4V?$singleton_wrapper@V?$oserializer@Vbinary_oarchive@archive@boost@@V?$map@HPEAVObject@karto@@U?$less@H@std@@V?$allocator@U?$pair@$$CBHPEAVObject@karto@@@std@@@4@@std@@@detail@archive@boost@@@634@A 	 DATA
	?t@?1??get_instance@?$singleton@V?$oserializer@Vbinary_oarchive@archive@boost@@V?$map@V?$basic_string@DU?$char_traits@D@std@@V?$allocator@D@2@@std@@PEAVAbstractParameter@karto@@U?$less@V?$basic_string@DU?$char_traits@D@std@@V?$allocator@D@2@@std@@@2@V?$allocator@U?$pair@$$CBV?$basic_string@DU?$char_traits@D@std@@V?$allocator@D@2@@std@@PEAVAbstractParameter@karto@@@std@@@2@@std@@@detail@archive@boost@@@serialization@boost@@CAAEAV?$oserializer@Vbinary_oarchive@archive@boost@@V?$map@V?$basic_string@DU?$char_traits@D@std@@V?$allocator@D@2@@std@@PEAVAbstractParameter@karto@@U?$less@V?$basic_string@DU?$char_traits@D@std@@V?$allocator@D@2@@std@@@2@V?$allocator@U?$pair@$$CBV?$basic_string@DU?$char_traits@D@std@@V?$allocator@D@2@@std@@PEAVAbstractParameter@karto@@@std@@@2@@std@@@detail@archive@4@XZ@4V?$singleton_wrapper@V?$oserializer@Vbinary_oarchive@archive@boost@@V?$map@V?$basic_string@DU?$char_traits@D@std@@V?$allocator@D@2@@std@@PEAVAbstractParameter@karto@@U?$less@V?$basic_string@DU?$char_traits@D@std@@V?$allocator@D@2@@std@@@2@V?$allocator@U?$pair@$$CBV?$basic_string@DU?$char_traits@D@std@@V?$allocator@D@2@@std@@PEAVAbstractParameter@karto@@@std@@@2@@std@@@detail@archive@boost@@@634@A 	 DATA
	?t@?1??get_instance@?$singleton@V?$oserializer@Vbinary_oarchive@archive@boost@@V?$map@VName@karto@@PEAVSensor@2@U?$less@VName@karto@@@std@@V?$allocator@U?$pair@$$CBVName@karto@@PEAVSensor@2@@std@@@5@@std@@@detail@archive@boost@@@serialization@boost@@CAAEAV?$oserializer@Vbinary_oarchive@archive@boost@@V?$map@VName@karto@@PEAVSensor@2@U?$less@VName@karto@@@std@@V?$allocator@U?$pair@$$CBVName@karto@@PEAVSensor@2@@std@@@5@@std@@@detail@archive@4@XZ@4V?$singleton_wrapper@V?$oserializer@Vbinary_oarchive@archive@boost@@V?$map@VName@karto@@PEAVSensor@2@U?$less@VName@karto@@@std@@V?$allocator@U?$pair@$$CBVName@karto@@PEAVSensor@2@@std@@@5@@std@@@detail@archive@boost@@@634@A 	 DATA
	?t@?1??get_instance@?$singleton@V?$oserializer@Vbinary_oarchive@archive@boost@@V?$vector@PEAVAbstractParameter@karto@@V?$allocator@PEAVAbstractParameter@karto@@@std@@@std@@@detail@archive@boost@@@serialization@boost@@CAAEAV?$oserializer@Vbinary_oarchive@archive@boost@@V?$vector@PEAVAbstractParameter@karto@@V?$allocator@PEAVAbstractParameter@karto@@@std@@@std@@@detail@archive@4@XZ@4V?$singleton_wrapper@V?$oserializer@Vbinary_oarchive@archive@boost@@V?$vector@PEAVAbstractParameter@karto@@V?$allocator@PEAVAbstractParameter@karto@@@std@@@std@@@detail@archive@boost@@@634@A 	 DATA
	?t@?1??get_instance@?$singleton@V?$oserializer@Vbinary_oarchive@archive@boost@@V?$vector@PEAVObject@karto@@V?$allocator@PEAVObject@karto@@@std@@@std@@@detail@archive@boost@@@serialization@boost@@CAAEAV?$oserializer@Vbinary_oarchive@archive@boost@@V?$vector@PEAVObject@karto@@V?$allocator@PEAVObject@karto@@@std@@@std@@@detail@archive@4@XZ@4V?$singleton_wrapper@V?$oserializer@Vbinary_oarchive@archive@boost@@V?$vector@PEAVObject@karto@@V?$allocator@PEAVObject@karto@@@std@@@std@@@detail@archive@boost@@@634@A 	 DATA
	?t@?1??get_instance@?$singleton@V?$oserializer@Vbinary_oarchive@archive@boost@@VAbstractParameter@karto@@@detail@archive@boost@@@serialization@boost@@CAAEAV?$oserializer@Vbinary_oarchive@archive@boost@@VAbstractParameter@karto@@@detail@archive@4@XZ@4V?$singleton_wrapper@V?$oserializer@Vbinary_oarchive@archive@boost@@VAbstractParameter@karto@@@detail@archive@boost@@@634@A 	 DATA
	?t@?1??get_instance@?$singleton@V?$oserializer@Vbinary_oarchive@archive@boost@@VDataset@karto@@@detail@archive@boost@@@serialization@boost@@CAAEAV?$oserializer@Vbinary_oarchive@archive@boost@@VDataset@karto@@@detail@archive@4@XZ@4V?$singleton_wrapper@V?$oserializer@Vbinary_oarchive@archive@boost@@VDataset@karto@@@detail@archive@boost@@@634@A 	 DATA
	?t@?1??get_instance@?$singleton@V?$oserializer@Vbinary_oarchive@archive@boost@@VDatasetInfo@karto@@@detail@archive@boost@@@serialization@boost@@CAAEAV?$oserializer@Vbinary_oarchive@archive@boost@@VDatasetInfo@karto@@@detail@archive@4@XZ@4V?$singleton_wrapper@V?$oserializer@Vbinary_oarchive@archive@boost@@VDatasetInfo@karto@@@detail@archive@boost@@@634@A 	 DATA
	?t@?1??get_instance@?$singleton@V?$oserializer@Vbinary_oarchive@archive@boost@@VName@karto@@@detail@archive@boost@@@serialization@boost@@CAAEAV?$oserializer@Vbinary_oarchive@archive@boost@@VName@karto@@@detail@archive@4@XZ@4V?$singleton_wrapper@V?$oserializer@Vbinary_oarchive@archive@boost@@VName@karto@@@detail@archive@boost@@@634@A 	 DATA
	?t@?1??get_instance@?$singleton@V?$oserializer@Vbinary_oarchive@archive@boost@@VNonCopyable@karto@@@detail@archive@boost@@@serialization@boost@@CAAEAV?$oserializer@Vbinary_oarchive@archive@boost@@VNonCopyable@karto@@@detail@archive@4@XZ@4V?$singleton_wrapper@V?$oserializer@Vbinary_oarchive@archive@boost@@VNonCopyable@karto@@@detail@archive@boost@@@634@A 	 DATA
	?t@?1??get_instance@?$singleton@V?$oserializer@Vbinary_oarchive@archive@boost@@VObject@karto@@@detail@archive@boost@@@serialization@boost@@CAAEAV?$oserializer@Vbinary_oarchive@archive@boost@@VObject@karto@@@detail@archive@4@XZ@4V?$singleton_wrapper@V?$oserializer@Vbinary_oarchive@archive@boost@@VObject@karto@@@detail@archive@boost@@@634@A 	 DATA
	?t@?1??get_instance@?$singleton@V?$oserializer@Vbinary_oarchive@archive@boost@@VParameterManager@karto@@@detail@archive@boost@@@serialization@boost@@CAAEAV?$oserializer@Vbinary_oarchive@archive@boost@@VParameterManager@karto@@@detail@archive@4@XZ@4V?$singleton_wrapper@V?$oserializer@Vbinary_oarchive@archive@boost@@VParameterManager@karto@@@detail@archive@boost@@@634@A 	 DATA
	?t@?1??get_instance@?$singleton@V?$pointer_iserializer@Vbinary_iarchive@archive@boost@@VDatasetInfo@karto@@@detail@archive@boost@@@serialization@boost@@CAAEAV?$pointer_iserializer@Vbinary_iarchive@archive@boost@@VDatasetInfo@karto@@@detail@archive@4@XZ@4V?$singleton_wrapper@V?$pointer_iserializer@Vbinary_iarchive@archive@boost@@VDatasetInfo@karto@@@detail@archive@boost@@@634@A 	 DATA
	?t@?1??get_instance@?$singleton@V?$pointer_iserializer@Vbinary_iarchive@archive@boost@@VParameterManager@karto@@@detail@archive@boost@@@serialization@boost@@CAAEAV?$pointer_iserializer@Vbinary_iarchive@archive@boost@@VParameterManager@karto@@@detail@archive@4@XZ@4V?$singleton_wrapper@V?$pointer_iserializer@Vbinary_iarchive@archive@boost@@VParameterManager@karto@@@detail@archive@boost@@@634@A 	 DATA
	?t@?1??get_instance@?$singleton@V?$pointer_oserializer@Vbinary_oarchive@archive@boost@@VDatasetInfo@karto@@@detail@archive@boost@@@serialization@boost@@CAAEAV?$pointer_oserializer@Vbinary_oarchive@archive@boost@@VDatasetInfo@karto@@@detail@archive@4@XZ@4V?$singleton_wrapper@V?$pointer_oserializer@Vbinary_oarchive@archive@boost@@VDatasetInfo@karto@@@detail@archive@boost@@@634@A 	 DATA
	?t@?1??get_instance@?$singleton@V?$pointer_oserializer@Vbinary_oarchive@archive@boost@@VParameterManager@karto@@@detail@archive@boost@@@serialization@boost@@CAAEAV?$pointer_oserializer@Vbinary_oarchive@archive@boost@@VParameterManager@karto@@@detail@archive@4@XZ@4V?$singleton_wrapper@V?$pointer_oserializer@Vbinary_oarchive@archive@boost@@VParameterManager@karto@@@detail@archive@boost@@@634@A 	 DATA
	?t@?1??get_instance@?$singleton@V?$void_caster_primitive@V?$Parameter@V?$basic_string@DU?$char_traits@D@std@@V?$allocator@D@2@@std@@@karto@@VAbstractParameter@2@@void_cast_detail@serialization@boost@@@serialization@boost@@CAAEAV?$void_caster_primitive@V?$Parameter@V?$basic_string@DU?$char_traits@D@std@@V?$allocator@D@2@@std@@@karto@@VAbstractParameter@2@@void_cast_detail@34@XZ@4V?$singleton_wrapper@V?$void_caster_primitive@V?$Parameter@V?$basic_string@DU?$char_traits@D@std@@V?$allocator@D@2@@std@@@karto@@VAbstractParameter@2@@void_cast_detail@serialization@boost@@@detail@34@A 	 DATA
	?t@?1??get_instance@?$singleton@V?$void_caster_primitive@VDatasetInfo@karto@@VObject@2@@void_cast_detail@serialization@boost@@@serialization@boost@@CAAEAV?$void_caster_primitive@VDatasetInfo@karto@@VObject@2@@void_cast_detail@34@XZ@4V?$singleton_wrapper@V?$void_caster_primitive@VDatasetInfo@karto@@VObject@2@@void_cast_detail@serialization@boost@@@detail@34@A 	 DATA
	?t@?1??get_instance@?$singleton@V?$void_caster_primitive@VObject@karto@@VNonCopyable@2@@void_cast_detail@serialization@boost@@@serialization@boost@@CAAEAV?$void_caster_primitive@VObject@karto@@VNonCopyable@2@@void_cast_detail@34@XZ@4V?$singleton_wrapper@V?$void_caster_primitive@VObject@karto@@VNonCopyable@2@@void_cast_detail@serialization@boost@@@detail@34@A 	 DATA
	?t@?1??get_instance@?$singleton@V?$void_caster_primitive@VParameterManager@karto@@VNonCopyable@2@@void_cast_detail@serialization@boost@@@serialization@boost@@CAAEAV?$void_caster_primitive@VParameterManager@karto@@VNonCopyable@2@@void_cast_detail@34@XZ@4V?$singleton_wrapper@V?$void_caster_primitive@VParameterManager@karto@@VNonCopyable@2@@void_cast_detail@serialization@boost@@@detail@34@A 	 DATA
	??$?0P6AHPEAUrcl_event_t@@PEBUrcl_publisher_t@@W4rcl_publisher_event_type_t@@@ZW42@@?$QOSEventHandler@V<lambda_c2318a75abbc27dc766add2e36d9f8d4>@@V?$shared_ptr@Urcl_publisher_t@@@std@@@rclcpp@@QEAA@AEBV<lambda_c2318a75abbc27dc766add2e36d9f8d4>@@P6AHPEAUrcl_event_t@@PEBUrcl_publisher_t@@W4rcl_publisher_event_type_t@@@ZV?$shared_ptr@Urcl_publisher_t@@@std@@3@Z
	??$?0P6AHPEAUrcl_event_t@@PEBUrcl_publisher_t@@W4rcl_publisher_event_type_t@@@ZW42@@?$QOSEventHandler@V?$function@$$A6AXAEAUrmw_liveliness_lost_status_t@@@Z@std@@V?$shared_ptr@Urcl_publisher_t@@@2@@rclcpp@@QEAA@AEBV?$function@$$A6AXAEAUrmw_liveliness_lost_status_t@@@Z@std@@P6AHPEAUrcl_event_t@@PEBUrcl_publisher_t@@W4rcl_publisher_event_type_t@@@ZV?$shared_ptr@Urcl_publisher_t@@@3@3@Z
	??$?0P6AHPEAUrcl_event_t@@PEBUrcl_publisher_t@@W4rcl_publisher_event_type_t@@@ZW42@@?$QOSEventHandler@V?$function@$$A6AXAEAUrmw_offered_deadline_missed_status_t@@@Z@std@@V?$shared_ptr@Urcl_publisher_t@@@2@@rclcpp@@QEAA@AEBV?$function@$$A6AXAEAUrmw_offered_deadline_missed_status_t@@@Z@std@@P6AHPEAUrcl_event_t@@PEBUrcl_publisher_t@@W4rcl_publisher_event_type_t@@@ZV?$shared_ptr@Urcl_publisher_t@@@3@3@Z
	??$?0P6AHPEAUrcl_event_t@@PEBUrcl_publisher_t@@W4rcl_publisher_event_type_t@@@ZW42@@?$QOSEventHandler@V?$function@$$A6AXAEAUrmw_qos_incompatible_event_status_t@@@Z@std@@V?$shared_ptr@Urcl_publisher_t@@@2@@rclcpp@@QEAA@AEBV?$function@$$A6AXAEAUrmw_qos_incompatible_event_status_t@@@Z@std@@P6AHPEAUrcl_event_t@@PEBUrcl_publisher_t@@W4rcl_publisher_event_type_t@@@ZV?$shared_ptr@Urcl_publisher_t@@@3@3@Z
	??$?0P6AHPEAUrcl_event_t@@PEBUrcl_subscription_t@@W4rcl_subscription_event_type_t@@@ZW42@@?$QOSEventHandler@V<lambda_3f9548421920b881c8df116e1c596558>@@V?$shared_ptr@Urcl_subscription_t@@@std@@@rclcpp@@QEAA@AEBV<lambda_3f9548421920b881c8df116e1c596558>@@P6AHPEAUrcl_event_t@@PEBUrcl_subscription_t@@W4rcl_subscription_event_type_t@@@ZV?$shared_ptr@Urcl_subscription_t@@@std@@3@Z
	??$?0P6AHPEAUrcl_event_t@@PEBUrcl_subscription_t@@W4rcl_subscription_event_type_t@@@ZW42@@?$QOSEventHandler@V?$function@$$A6AXAEAUrmw_liveliness_changed_status_t@@@Z@std@@V?$shared_ptr@Urcl_subscription_t@@@2@@rclcpp@@QEAA@AEBV?$function@$$A6AXAEAUrmw_liveliness_changed_status_t@@@Z@std@@P6AHPEAUrcl_event_t@@PEBUrcl_subscription_t@@W4rcl_subscription_event_type_t@@@ZV?$shared_ptr@Urcl_subscription_t@@@3@3@Z
	??$?0P6AHPEAUrcl_event_t@@PEBUrcl_subscription_t@@W4rcl_subscription_event_type_t@@@ZW42@@?$QOSEventHandler@V?$function@$$A6AXAEAUrmw_qos_incompatible_event_status_t@@@Z@std@@V?$shared_ptr@Urcl_subscription_t@@@2@@rclcpp@@QEAA@AEBV?$function@$$A6AXAEAUrmw_qos_incompatible_event_status_t@@@Z@std@@P6AHPEAUrcl_event_t@@PEBUrcl_subscription_t@@W4rcl_subscription_event_type_t@@@ZV?$shared_ptr@Urcl_subscription_t@@@3@3@Z
	??$?0P6AHPEAUrcl_event_t@@PEBUrcl_subscription_t@@W4rcl_subscription_event_type_t@@@ZW42@@?$QOSEventHandler@V?$function@$$A6AXAEAUrmw_requested_deadline_missed_status_t@@@Z@std@@V?$shared_ptr@Urcl_subscription_t@@@2@@rclcpp@@QEAA@AEBV?$function@$$A6AXAEAUrmw_requested_deadline_missed_status_t@@@Z@std@@P6AHPEAUrcl_event_t@@PEBUrcl_subscription_t@@W4rcl_subscription_event_type_t@@@ZV?$shared_ptr@Urcl_subscription_t@@@3@3@Z
	??$?0U?$PoseWithCovarianceStamped_@V?$allocator@X@std@@@msg@geometry_msgs@@U?$default_delete@U?$PoseWithCovarianceStamped_@V?$allocator@X@std@@@msg@geometry_msgs@@@std@@$0A@@?$shared_ptr@$$CBU?$PoseWithCovarianceStamped_@V?$allocator@X@std@@@msg@geometry_msgs@@@std@@QEAA@$$QEAV?$unique_ptr@U?$PoseWithCovarianceStamped_@V?$allocator@X@std@@@msg@geometry_msgs@@U?$default_delete@U?$PoseWithCovarianceStamped_@V?$allocator@X@std@@@msg@geometry_msgs@@@std@@@1@@Z
	??$?0V<lambda_33d3207aa9cfabd17909961fe837b8a9>@@$0A@@?$function@$$A6A?AV?$shared_ptr@VSubscriptionBase@rclcpp@@@std@@PEAVNodeBaseInterface@node_interfaces@rclcpp@@AEBV?$basic_string@DU?$char_traits@D@std@@V?$allocator@D@2@@2@AEBVQoS@5@@Z@std@@QEAA@V<lambda_33d3207aa9cfabd17909961fe837b8a9>@@@Z
	??$?0V?$clone_impl@Ubad_alloc_@exception_detail@boost@@@exception_detail@boost@@@shared_count@detail@boost@@QEAA@PEAV?$clone_impl@Ubad_alloc_@exception_detail@boost@@@exception_detail@2@@Z
	??$?0V?$clone_impl@Ubad_exception_@exception_detail@boost@@@exception_detail@boost@@@shared_count@detail@boost@@QEAA@PEAV?$clone_impl@Ubad_exception_@exception_detail@boost@@@exception_detail@2@@Z
	??$?5$$CBV?$nvp@PEAVAbstractParameter@karto@@@serialization@boost@@@?$interface_iarchive@Vbinary_iarchive@archive@boost@@@detail@archive@boost@@QEAAAEAVbinary_iarchive@23@AEBV?$nvp@PEAVAbstractParameter@karto@@@serialization@3@@Z
	??$?5$$CBV?$nvp@PEAVObject@karto@@@serialization@boost@@@?$interface_iarchive@Vbinary_iarchive@archive@boost@@@detail@archive@boost@@QEAAAEAVbinary_iarchive@23@AEBV?$nvp@PEAVObject@karto@@@serialization@3@@Z
	??$?5$$CBV?$nvp@Vcollection_size_type@serialization@boost@@@serialization@boost@@@?$interface_iarchive@Vbinary_iarchive@archive@boost@@@detail@archive@boost@@QEAAAEAVbinary_iarchive@23@AEBV?$nvp@Vcollection_size_type@serialization@boost@@@serialization@3@@Z
	??$?5$$CBV?$nvp@Vitem_version_type@serialization@boost@@@serialization@boost@@@?$interface_iarchive@Vbinary_iarchive@archive@boost@@@detail@archive@boost@@QEAAAEAVbinary_iarchive@23@AEBV?$nvp@Vitem_version_type@serialization@boost@@@serialization@3@@Z
	??$?5DU?$char_traits@D@std@@V?$allocator@D@1@@std@@YAAEAV?$basic_istream@DU?$char_traits@D@std@@@0@$$QEAV10@AEAV?$basic_string@DU?$char_traits@D@std@@V?$allocator@D@2@@0@@Z
	??$?5DU?$char_traits@D@std@@V?$allocator@D@1@@std@@YAAEAV?$basic_istream@DU?$char_traits@D@std@@@0@AEAV10@AEAV?$basic_string@DU?$char_traits@D@std@@V?$allocator@D@2@@0@@Z
	??$?6DU?$char_traits@D@std@@V?$allocator@D@1@@std@@YAAEAV?$basic_ostream@DU?$char_traits@D@std@@@0@AEAV10@AEBV?$basic_string@DU?$char_traits@D@std@@V?$allocator@D@2@@0@@Z
	??$?6U?$char_traits@D@std@@@std@@YAAEAV?$basic_ostream@DU?$char_traits@D@std@@@0@AEAV10@PEBD@Z
	??$?6V?$nvp@$$CBVitem_version_type@serialization@boost@@@serialization@boost@@@?$interface_oarchive@Vbinary_oarchive@archive@boost@@@detail@archive@boost@@QEAAAEAVbinary_oarchive@23@AEBV?$nvp@$$CBVitem_version_type@serialization@boost@@@serialization@3@@Z
	??$?6V?$nvp@Vcollection_size_type@serialization@boost@@@serialization@boost@@@?$interface_oarchive@Vbinary_oarchive@archive@boost@@@detail@archive@boost@@QEAAAEAVbinary_oarchive@23@AEBV?$nvp@Vcollection_size_type@serialization@boost@@@serialization@3@@Z
	??$?8V?$Publisher@U?$MetricsMessage_@V?$allocator@X@std@@@msg@statistics_msgs@@V?$allocator@X@std@@@rclcpp@@@std@@YA_N$$TAEBV?$shared_ptr@V?$Publisher@U?$MetricsMessage_@V?$allocator@X@std@@@msg@statistics_msgs@@V?$allocator@X@std@@@rclcpp@@@0@@Z
	??$?9$$A6AXV?$shared_ptr@U?$Empty_Request_@V?$allocator@X@std@@@srv@std_srvs@@@std@@V?$shared_ptr@U?$Empty_Response_@V?$allocator@X@std@@@srv@std_srvs@@@1@@Z@std@@YA_NAEBV?$function@$$A6AXV?$shared_ptr@U?$Empty_Request_@V?$allocator@X@std@@@srv@std_srvs@@@std@@V?$shared_ptr@U?$Empty_Response_@V?$allocator@X@std@@@srv@std_srvs@@@2@@Z@0@$$T@Z
	??$?9$$A6AXV?$shared_ptr@Urmw_request_id_t@@@std@@V?$shared_ptr@U?$Empty_Request_@V?$allocator@X@std@@@srv@std_srvs@@@1@V?$shared_ptr@U?$Empty_Response_@V?$allocator@X@std@@@srv@std_srvs@@@1@@Z@std@@YA_NAEBV?$function@$$A6AXV?$shared_ptr@Urmw_request_id_t@@@std@@V?$shared_ptr@U?$Empty_Request_@V?$allocator@X@std@@@srv@std_srvs@@@2@V?$shared_ptr@U?$Empty_Response_@V?$allocator@X@std@@@srv@std_srvs@@@2@@Z@0@$$T@Z
	??$?9DU?$char_traits@D@std@@V?$allocator@D@1@@std@@YA_NAEBV?$basic_string@DU?$char_traits@D@std@@V?$allocator@D@2@@0@QEBD@Z
	??$?9V?$SubscriptionTopicStatistics@U?$PoseWithCovarianceStamped_@V?$allocator@X@std@@@msg@geometry_msgs@@@topic_statistics@rclcpp@@@std@@YA_NAEBV?$shared_ptr@V?$SubscriptionTopicStatistics@U?$PoseWithCovarianceStamped_@V?$allocator@X@std@@@msg@geometry_msgs@@@topic_statistics@rclcpp@@@0@$$T@Z
	??$?HDU?$char_traits@D@std@@V?$allocator@D@1@@std@@YA?AV?$basic_string@DU?$char_traits@D@std@@V?$allocator@D@2@@0@$$QEAV10@QEBD@Z
	??$?HDU?$char_traits@D@std@@V?$allocator@D@1@@std@@YA?AV?$basic_string@DU?$char_traits@D@std@@V?$allocator@D@2@@0@QEBD$$QEAV10@@Z
	??$?MDU?$char_traits@D@std@@V?$allocator@D@1@@std@@YA_NAEBV?$basic_string@DU?$char_traits@D@std@@V?$allocator@D@2@@0@0@Z
	??$_Allocate_manually_vector_aligned@U_Default_allocate_traits@std@@@std@@YAPEAX_K@Z
	??$_Atomic_address_as@JU?$_Atomic_padded@H@std@@@std@@YAPECJAEAU?$_Atomic_padded@H@0@@Z
	??$_Construct_in_place@V?$SubscriptionTopicStatistics@U?$PoseWithCovarianceStamped_@V?$allocator@X@std@@@msg@geometry_msgs@@@topic_statistics@rclcpp@@PEBDAEAV?$shared_ptr@V?$Publisher@U?$MetricsMessage_@V?$allocator@X@std@@@msg@statistics_msgs@@V?$allocator@X@std@@@rclcpp@@@std@@@std@@YAXAEAV?$SubscriptionTopicStatistics@U?$PoseWithCovarianceStamped_@V?$allocator@X@std@@@msg@geometry_msgs@@@topic_statistics@rclcpp@@$$QEAPEBDAEAV?$shared_ptr@V?$Publisher@U?$MetricsMessage_@V?$allocator@X@std@@@msg@statistics_msgs@@V?$allocator@X@std@@@rclcpp@@@0@@Z
	??$_Copy_backward_memmove@PEA_KPEA_K@std@@YAPEA_KPEA_K00@Z
	??$_Copy_memmove@PEAPEAVAbstractParameter@karto@@PEAPEAV12@@std@@YAPEAPEAVAbstractParameter@karto@@PEAPEAV12@00@Z
	??$_Copy_memmove@PEAPEAVObject@karto@@PEAPEAV12@@std@@YAPEAPEAVObject@karto@@PEAPEAV12@00@Z
	??$_Copy_memmove@PEA_KPEA_K@std@@YAPEA_KPEA_K00@Z
	??$_Copy_memmove@PEB_KPEA_K@std@@YAPEA_KPEB_K0PEA_K@Z
	??$_Destroy_range@V?$allocator@V?$shared_ptr@$$CBU?$PoseWithCovarianceStamped_@V?$allocator@X@std@@@msg@geometry_msgs@@@std@@@std@@@std@@YAXPEAV?$shared_ptr@$$CBU?$PoseWithCovarianceStamped_@V?$allocator@X@std@@@msg@geometry_msgs@@@0@QEAV10@AEAV?$allocator@V?$shared_ptr@$$CBU?$PoseWithCovarianceStamped_@V?$allocator@X@std@@@msg@geometry_msgs@@@std@@@0@@Z
	??$_Destroy_range@V?$allocator@V?$shared_ptr@VQOSEventHandlerBase@rclcpp@@@std@@@std@@@std@@YAXPEAV?$shared_ptr@VQOSEventHandlerBase@rclcpp@@@0@QEAV10@AEAV?$allocator@V?$shared_ptr@VQOSEventHandlerBase@rclcpp@@@std@@@0@@Z
	??$_Emplace_reallocate@AEAV?$shared_ptr@V?$QOSEventHandler@V<lambda_3f9548421920b881c8df116e1c596558>@@V?$shared_ptr@Urcl_subscription_t@@@std@@@rclcpp@@@std@@@?$vector@V?$shared_ptr@VQOSEventHandlerBase@rclcpp@@@std@@V?$allocator@V?$shared_ptr@VQOSEventHandlerBase@rclcpp@@@std@@@2@@std@@QEAAPEAV?$shared_ptr@VQOSEventHandlerBase@rclcpp@@@1@QEAV21@AEAV?$shared_ptr@V?$QOSEventHandler@V<lambda_3f9548421920b881c8df116e1c596558>@@V?$shared_ptr@Urcl_subscription_t@@@std@@@rclcpp@@@1@@Z
	??$_Emplace_reallocate@AEAV?$shared_ptr@V?$QOSEventHandler@V<lambda_c2318a75abbc27dc766add2e36d9f8d4>@@V?$shared_ptr@Urcl_publisher_t@@@std@@@rclcpp@@@std@@@?$vector@V?$shared_ptr@VQOSEventHandlerBase@rclcpp@@@std@@V?$allocator@V?$shared_ptr@VQOSEventHandlerBase@rclcpp@@@std@@@2@@std@@QEAAPEAV?$shared_ptr@VQOSEventHandlerBase@rclcpp@@@1@QEAV21@AEAV?$shared_ptr@V?$QOSEventHandler@V<lambda_c2318a75abbc27dc766add2e36d9f8d4>@@V?$shared_ptr@Urcl_publisher_t@@@std@@@rclcpp@@@1@@Z
	??$_Emplace_reallocate@AEAV?$shared_ptr@V?$QOSEventHandler@V?$function@$$A6AXAEAUrmw_liveliness_changed_status_t@@@Z@std@@V?$shared_ptr@Urcl_subscription_t@@@2@@rclcpp@@@std@@@?$vector@V?$shared_ptr@VQOSEventHandlerBase@rclcpp@@@std@@V?$allocator@V?$shared_ptr@VQOSEventHandlerBase@rclcpp@@@std@@@2@@std@@QEAAPEAV?$shared_ptr@VQOSEventHandlerBase@rclcpp@@@1@QEAV21@AEAV?$shared_ptr@V?$QOSEventHandler@V?$function@$$A6AXAEAUrmw_liveliness_changed_status_t@@@Z@std@@V?$shared_ptr@Urcl_subscription_t@@@2@@rclcpp@@@1@@Z
	??$_Emplace_reallocate@AEAV?$shared_ptr@V?$QOSEventHandler@V?$function@$$A6AXAEAUrmw_liveliness_lost_status_t@@@Z@std@@V?$shared_ptr@Urcl_publisher_t@@@2@@rclcpp@@@std@@@?$vector@V?$shared_ptr@VQOSEventHandlerBase@rclcpp@@@std@@V?$allocator@V?$shared_ptr@VQOSEventHandlerBase@rclcpp@@@std@@@2@@std@@QEAAPEAV?$shared_ptr@VQOSEventHandlerBase@rclcpp@@@1@QEAV21@AEAV?$shared_ptr@V?$QOSEventHandler@V?$function@$$A6AXAEAUrmw_liveliness_lost_status_t@@@Z@std@@V?$shared_ptr@Urcl_publisher_t@@@2@@rclcpp@@@1@@Z
	??$_Emplace_reallocate@AEAV?$shared_ptr@V?$QOSEventHandler@V?$function@$$A6AXAEAUrmw_offered_deadline_missed_status_t@@@Z@std@@V?$shared_ptr@Urcl_publisher_t@@@2@@rclcpp@@@std@@@?$vector@V?$shared_ptr@VQOSEventHandlerBase@rclcpp@@@std@@V?$allocator@V?$shared_ptr@VQOSEventHandlerBase@rclcpp@@@std@@@2@@std@@QEAAPEAV?$shared_ptr@VQOSEventHandlerBase@rclcpp@@@1@QEAV21@AEAV?$shared_ptr@V?$QOSEventHandler@V?$function@$$A6AXAEAUrmw_offered_deadline_missed_status_t@@@Z@std@@V?$shared_ptr@Urcl_publisher_t@@@2@@rclcpp@@@1@@Z
	??$_Emplace_reallocate@AEAV?$shared_ptr@V?$QOSEventHandler@V?$function@$$A6AXAEAUrmw_qos_incompatible_event_status_t@@@Z@std@@V?$shared_ptr@Urcl_publisher_t@@@2@@rclcpp@@@std@@@?$vector@V?$shared_ptr@VQOSEventHandlerBase@rclcpp@@@std@@V?$allocator@V?$shared_ptr@VQOSEventHandlerBase@rclcpp@@@std@@@2@@std@@QEAAPEAV?$shared_ptr@VQOSEventHandlerBase@rclcpp@@@1@QEAV21@AEAV?$shared_ptr@V?$QOSEventHandler@V?$function@$$A6AXAEAUrmw_qos_incompatible_event_status_t@@@Z@std@@V?$shared_ptr@Urcl_publisher_t@@@2@@rclcpp@@@1@@Z
	??$_Emplace_reallocate@AEAV?$shared_ptr@V?$QOSEventHandler@V?$function@$$A6AXAEAUrmw_qos_incompatible_event_status_t@@@Z@std@@V?$shared_ptr@Urcl_subscription_t@@@2@@rclcpp@@@std@@@?$vector@V?$shared_ptr@VQOSEventHandlerBase@rclcpp@@@std@@V?$allocator@V?$shared_ptr@VQOSEventHandlerBase@rclcpp@@@std@@@2@@std@@QEAAPEAV?$shared_ptr@VQOSEventHandlerBase@rclcpp@@@1@QEAV21@AEAV?$shared_ptr@V?$QOSEventHandler@V?$function@$$A6AXAEAUrmw_qos_incompatible_event_status_t@@@Z@std@@V?$shared_ptr@Urcl_subscription_t@@@2@@rclcpp@@@1@@Z
	??$_Emplace_reallocate@AEAV?$shared_ptr@V?$QOSEventHandler@V?$function@$$A6AXAEAUrmw_requested_deadline_missed_status_t@@@Z@std@@V?$shared_ptr@Urcl_subscription_t@@@2@@rclcpp@@@std@@@?$vector@V?$shared_ptr@VQOSEventHandlerBase@rclcpp@@@std@@V?$allocator@V?$shared_ptr@VQOSEventHandlerBase@rclcpp@@@std@@@2@@std@@QEAAPEAV?$shared_ptr@VQOSEventHandlerBase@rclcpp@@@1@QEAV21@AEAV?$shared_ptr@V?$QOSEventHandler@V?$function@$$A6AXAEAUrmw_requested_deadline_missed_status_t@@@Z@std@@V?$shared_ptr@Urcl_subscription_t@@@2@@rclcpp@@@1@@Z
	??$_Emplace_reallocate@AEBU?$MetricsMessage_@V?$allocator@X@std@@@msg@statistics_msgs@@@?$vector@U?$MetricsMessage_@V?$allocator@X@std@@@msg@statistics_msgs@@V?$allocator@U?$MetricsMessage_@V?$allocator@X@std@@@msg@statistics_msgs@@@std@@@std@@QEAAPEAU?$MetricsMessage_@V?$allocator@X@std@@@msg@statistics_msgs@@QEAU234@AEBU234@@Z
	??$_Emplace_reallocate@V?$unique_ptr@V?$ReceivedMessageAgeCollector@U?$PoseWithCovarianceStamped_@V?$allocator@X@std@@@msg@geometry_msgs@@@topic_statistics_collector@libstatistics_collector@@U?$default_delete@V?$ReceivedMessageAgeCollector@U?$PoseWithCovarianceStamped_@V?$allocator@X@std@@@msg@geometry_msgs@@@topic_statistics_collector@libstatistics_collector@@@std@@@std@@@?$vector@V?$unique_ptr@V?$TopicStatisticsCollector@U?$PoseWithCovarianceStamped_@V?$allocator@X@std@@@msg@geometry_msgs@@@topic_statistics_collector@libstatistics_collector@@U?$default_delete@V?$TopicStatisticsCollector@U?$PoseWithCovarianceStamped_@V?$allocator@X@std@@@msg@geometry_msgs@@@topic_statistics_collector@libstatistics_collector@@@std@@@std@@V?$allocator@V?$unique_ptr@V?$TopicStatisticsCollector@U?$PoseWithCovarianceStamped_@V?$allocator@X@std@@@msg@geometry_msgs@@@topic_statistics_collector@libstatistics_collector@@U?$default_delete@V?$TopicStatisticsCollector@U?$PoseWithCovarianceStamped_@V?$allocator@X@std@@@msg@geometry_msgs@@@topic_statistics_collector@libstatistics_collector@@@std@@@std@@@2@@std@@QEAAPEAV?$unique_ptr@V?$TopicStatisticsCollector@U?$PoseWithCovarianceStamped_@V?$allocator@X@std@@@msg@geometry_msgs@@@topic_statistics_collector@libstatistics_collector@@U?$default_delete@V?$TopicStatisticsCollector@U?$PoseWithCovarianceStamped_@V?$allocator@X@std@@@msg@geometry_msgs@@@topic_statistics_collector@libstatistics_collector@@@std@@@1@QEAV21@$$QEAV?$unique_ptr@V?$ReceivedMessageAgeCollector@U?$PoseWithCovarianceStamped_@V?$allocator@X@std@@@msg@geometry_msgs@@@topic_statistics_collector@libstatistics_collector@@U?$default_delete@V?$ReceivedMessageAgeCollector@U?$PoseWithCovarianceStamped_@V?$allocator@X@std@@@msg@geometry_msgs@@@topic_statistics_collector@libstatistics_collector@@@std@@@1@@Z
	??$_Emplace_reallocate@V?$unique_ptr@V?$ReceivedMessagePeriodCollector@U?$PoseWithCovarianceStamped_@V?$allocator@X@std@@@msg@geometry_msgs@@@topic_statistics_collector@libstatistics_collector@@U?$default_delete@V?$ReceivedMessagePeriodCollector@U?$PoseWithCovarianceStamped_@V?$allocator@X@std@@@msg@geometry_msgs@@@topic_statistics_collector@libstatistics_collector@@@std@@@std@@@?$vector@V?$unique_ptr@V?$TopicStatisticsCollector@U?$PoseWithCovarianceStamped_@V?$allocator@X@std@@@msg@geometry_msgs@@@topic_statistics_collector@libstatistics_collector@@U?$default_delete@V?$TopicStatisticsCollector@U?$PoseWithCovarianceStamped_@V?$allocator@X@std@@@msg@geometry_msgs@@@topic_statistics_collector@libstatistics_collector@@@std@@@std@@V?$allocator@V?$unique_ptr@V?$TopicStatisticsCollector@U?$PoseWithCovarianceStamped_@V?$allocator@X@std@@@msg@geometry_msgs@@@topic_statistics_collector@libstatistics_collector@@U?$default_delete@V?$TopicStatisticsCollector@U?$PoseWithCovarianceStamped_@V?$allocator@X@std@@@msg@geometry_msgs@@@topic_statistics_collector@libstatistics_collector@@@std@@@std@@@2@@std@@QEAAPEAV?$unique_ptr@V?$TopicStatisticsCollector@U?$PoseWithCovarianceStamped_@V?$allocator@X@std@@@msg@geometry_msgs@@@topic_statistics_collector@libstatistics_collector@@U?$default_delete@V?$TopicStatisticsCollector@U?$PoseWithCovarianceStamped_@V?$allocator@X@std@@@msg@geometry_msgs@@@topic_statistics_collector@libstatistics_collector@@@std@@@1@QEAV21@$$QEAV?$unique_ptr@V?$ReceivedMessagePeriodCollector@U?$PoseWithCovarianceStamped_@V?$allocator@X@std@@@msg@geometry_msgs@@@topic_statistics_collector@libstatistics_collector@@U?$default_delete@V?$ReceivedMessagePeriodCollector@U?$PoseWithCovarianceStamped_@V?$allocator@X@std@@@msg@geometry_msgs@@@topic_statistics_collector@libstatistics_collector@@@std@@@1@@Z
	??$_Erase_tree@V?$allocator@U?$_Tree_node@U?$pair@$$CBHPEAVObject@karto@@@std@@PEAX@std@@@std@@@?$_Tree_val@U?$_Tree_simple_types@U?$pair@$$CBHPEAVObject@karto@@@std@@@std@@@std@@QEAAXAEAV?$allocator@U?$_Tree_node@U?$pair@$$CBHPEAVObject@karto@@@std@@PEAX@std@@@1@PEAU?$_Tree_node@U?$pair@$$CBHPEAVObject@karto@@@std@@PEAX@1@@Z
	??$_Erase_tree@V?$allocator@U?$_Tree_node@U?$pair@$$CBV?$basic_string@DU?$char_traits@D@std@@V?$allocator@D@2@@std@@PEAVAbstractParameter@karto@@@std@@PEAX@std@@@std@@@?$_Tree_val@U?$_Tree_simple_types@U?$pair@$$CBV?$basic_string@DU?$char_traits@D@std@@V?$allocator@D@2@@std@@PEAVAbstractParameter@karto@@@std@@@std@@@std@@QEAAXAEAV?$allocator@U?$_Tree_node@U?$pair@$$CBV?$basic_string@DU?$char_traits@D@std@@V?$allocator@D@2@@std@@PEAVAbstractParameter@karto@@@std@@PEAX@std@@@1@PEAU?$_Tree_node@U?$pair@$$CBV?$basic_string@DU?$char_traits@D@std@@V?$allocator@D@2@@std@@PEAVAbstractParameter@karto@@@std@@PEAX@1@@Z
	??$_Erase_tree@V?$allocator@U?$_Tree_node@U?$pair@$$CBVName@karto@@PEAVSensor@2@@std@@PEAX@std@@@std@@@?$_Tree_val@U?$_Tree_simple_types@U?$pair@$$CBVName@karto@@PEAVSensor@2@@std@@@std@@@std@@QEAAXAEAV?$allocator@U?$_Tree_node@U?$pair@$$CBVName@karto@@PEAVSensor@2@@std@@PEAX@std@@@1@PEAU?$_Tree_node@U?$pair@$$CBVName@karto@@PEAVSensor@2@@std@@PEAX@1@@Z
	??$_Fill_zero_memset@PEAN@std@@YAXPEAN_K@Z
	??$_Find_hint@H@?$_Tree@V?$_Tmap_traits@HPEAVObject@karto@@U?$less@H@std@@V?$allocator@U?$pair@$$CBHPEAVObject@karto@@@std@@@4@$0A@@std@@@std@@IEBA?AU?$_Tree_find_hint_result@PEAU?$_Tree_node@U?$pair@$$CBHPEAVObject@karto@@@std@@PEAX@std@@@1@QEAU?$_Tree_node@U?$pair@$$CBHPEAVObject@karto@@@std@@PEAX@1@AEBH@Z
	??$_Find_hint@V?$basic_string@DU?$char_traits@D@std@@V?$allocator@D@2@@std@@@?$_Tree@V?$_Tmap_traits@V?$basic_string@DU?$char_traits@D@std@@V?$allocator@D@2@@std@@PEAVAbstractParameter@karto@@U?$less@V?$basic_string@DU?$char_traits@D@std@@V?$allocator@D@2@@std@@@2@V?$allocator@U?$pair@$$CBV?$basic_string@DU?$char_traits@D@std@@V?$allocator@D@2@@std@@PEAVAbstractParameter@karto@@@std@@@2@$0A@@std@@@std@@IEBA?AU?$_Tree_find_hint_result@PEAU?$_Tree_node@U?$pair@$$CBV?$basic_string@DU?$char_traits@D@std@@V?$allocator@D@2@@std@@PEAVAbstractParameter@karto@@@std@@PEAX@std@@@1@QEAU?$_Tree_node@U?$pair@$$CBV?$basic_string@DU?$char_traits@D@std@@V?$allocator@D@2@@std@@PEAVAbstractParameter@karto@@@std@@PEAX@1@AEBV?$basic_string@DU?$char_traits@D@std@@V?$allocator@D@2@@1@@Z
	??$_Find_hint@VName@karto@@@?$_Tree@V?$_Tmap_traits@VName@karto@@PEAVSensor@2@U?$less@VName@karto@@@std@@V?$allocator@U?$pair@$$CBVName@karto@@PEAVSensor@2@@std@@@5@$0A@@std@@@std@@IEBA?AU?$_Tree_find_hint_result@PEAU?$_Tree_node@U?$pair@$$CBVName@karto@@PEAVSensor@2@@std@@PEAX@std@@@1@QEAU?$_Tree_node@U?$pair@$$CBVName@karto@@PEAVSensor@2@@std@@PEAX@1@AEBVName@karto@@@Z
	??$_Find_last@Vtype_index@std@@@?$_Hash@V?$_Umap_traits@Vtype_index@std@@V?$shared_ptr@X@2@V?$_Uhash_compare@Vtype_index@std@@U?$hash@Vtype_index@std@@@2@U?$equal_to@Vtype_index@std@@@2@@2@V?$allocator@U?$pair@$$CBVtype_index@std@@V?$shared_ptr@X@2@@std@@@2@$0A@@std@@@std@@IEBA?AU?$_Hash_find_last_result@PEAU?$_List_node@U?$pair@$$CBVtype_index@std@@V?$shared_ptr@X@2@@std@@PEAX@std@@@1@AEBVtype_index@1@_K@Z
	??$_Find_lower_bound@VName@karto@@@?$_Tree@V?$_Tmap_traits@VName@karto@@PEAVSensor@2@U?$less@VName@karto@@@std@@V?$allocator@U?$pair@$$CBVName@karto@@PEAVSensor@2@@std@@@5@$0A@@std@@@std@@IEBA?AU?$_Tree_find_result@PEAU?$_Tree_node@U?$pair@$$CBVName@karto@@PEAVSensor@2@@std@@PEAX@std@@@1@AEBVName@karto@@@Z
	??$_Fnv1a_append_value@PEAVQOSEventHandlerBase@rclcpp@@@std@@YA_K_KAEBQEAVQOSEventHandlerBase@rclcpp@@@Z
	??$_Fnv1a_append_value@_K@std@@YA_K_KAEB_K@Z
	??$_Getvals@_W@?$time_get@DV?$istreambuf_iterator@DU?$char_traits@D@std@@@std@@@std@@IEAAX_WAEBV_Locinfo@1@@Z
	??$_Getvals@_W@?$time_get@_WV?$istreambuf_iterator@_WU?$char_traits@_W@std@@@std@@@std@@IEAAX_WAEBV_Locinfo@1@@Z
	??$_Global_new@V?$_Func_impl_no_alloc@V<lambda_33d3207aa9cfabd17909961fe837b8a9>@@V?$shared_ptr@VSubscriptionBase@rclcpp@@@std@@PEAVNodeBaseInterface@node_interfaces@rclcpp@@AEBV?$basic_string@DU?$char_traits@D@std@@V?$allocator@D@2@@3@AEBVQoS@6@@std@@AEBV<lambda_33d3207aa9cfabd17909961fe837b8a9>@@@std@@YAPEAV?$_Func_impl_no_alloc@V<lambda_33d3207aa9cfabd17909961fe837b8a9>@@V?$shared_ptr@VSubscriptionBase@rclcpp@@@std@@PEAVNodeBaseInterface@node_interfaces@rclcpp@@AEBV?$basic_string@DU?$char_traits@D@std@@V?$allocator@D@2@@3@AEBVQoS@6@@0@AEBV<lambda_33d3207aa9cfabd17909961fe837b8a9>@@@Z
	??$_Global_new@V?$_Func_impl_no_alloc@V<lambda_33d3207aa9cfabd17909961fe837b8a9>@@V?$shared_ptr@VSubscriptionBase@rclcpp@@@std@@PEAVNodeBaseInterface@node_interfaces@rclcpp@@AEBV?$basic_string@DU?$char_traits@D@std@@V?$allocator@D@2@@3@AEBVQoS@6@@std@@V<lambda_33d3207aa9cfabd17909961fe837b8a9>@@@std@@YAPEAV?$_Func_impl_no_alloc@V<lambda_33d3207aa9cfabd17909961fe837b8a9>@@V?$shared_ptr@VSubscriptionBase@rclcpp@@@std@@PEAVNodeBaseInterface@node_interfaces@rclcpp@@AEBV?$basic_string@DU?$char_traits@D@std@@V?$allocator@D@2@@3@AEBVQoS@6@@0@$$QEAV<lambda_33d3207aa9cfabd17909961fe837b8a9>@@@Z
	??$_Global_new@V?$_Func_impl_no_alloc@V<lambda_83c40cceffae39b19729e050b3a9ba8e>@@V?$shared_ptr@VPublisherBase@rclcpp@@@std@@PEAVNodeBaseInterface@node_interfaces@rclcpp@@AEBV?$basic_string@DU?$char_traits@D@std@@V?$allocator@D@2@@3@AEBVQoS@6@@std@@AEBV<lambda_83c40cceffae39b19729e050b3a9ba8e>@@@std@@YAPEAV?$_Func_impl_no_alloc@V<lambda_83c40cceffae39b19729e050b3a9ba8e>@@V?$shared_ptr@VPublisherBase@rclcpp@@@std@@PEAVNodeBaseInterface@node_interfaces@rclcpp@@AEBV?$basic_string@DU?$char_traits@D@std@@V?$allocator@D@2@@3@AEBVQoS@6@@0@AEBV<lambda_83c40cceffae39b19729e050b3a9ba8e>@@@Z
	??$_Global_new@V?$_Func_impl_no_alloc@V<lambda_83c40cceffae39b19729e050b3a9ba8e>@@V?$shared_ptr@VPublisherBase@rclcpp@@@std@@PEAVNodeBaseInterface@node_interfaces@rclcpp@@AEBV?$basic_string@DU?$char_traits@D@std@@V?$allocator@D@2@@3@AEBVQoS@6@@std@@V<lambda_83c40cceffae39b19729e050b3a9ba8e>@@@std@@YAPEAV?$_Func_impl_no_alloc@V<lambda_83c40cceffae39b19729e050b3a9ba8e>@@V?$shared_ptr@VPublisherBase@rclcpp@@@std@@PEAVNodeBaseInterface@node_interfaces@rclcpp@@AEBV?$basic_string@DU?$char_traits@D@std@@V?$allocator@D@2@@3@AEBVQoS@6@@0@$$QEAV<lambda_83c40cceffae39b19729e050b3a9ba8e>@@@Z
	??$_Hash_representation@PEAVQOSEventHandlerBase@rclcpp@@@std@@YA_KAEBQEAVQOSEventHandlerBase@rclcpp@@@Z
	??$_Hash_representation@_K@std@@YA_KAEB_K@Z
	??$_Insert_range@PEB_K@?$vector@_KV?$allocator@_K@std@@@std@@AEAAXV?$_Vector_const_iterator@V?$_Vector_val@U?$_Simple_types@_K@std@@@std@@@1@PEB_K1Uforward_iterator_tag@1@@Z
	??$_Insert_string@DU?$char_traits@D@std@@_K@std@@YAAEAV?$basic_ostream@DU?$char_traits@D@std@@@0@AEAV10@QEBD_K@Z
	??$_Integral_to_string@D_J@std@@YA?AV?$basic_string@DU?$char_traits@D@std@@V?$allocator@D@2@@0@_J@Z
	??$_Is_all_bits_zero@N@std@@YA_NAEBN@Z
	??$_Maklocstr@D@std@@YAPEADPEBDPEADAEBU_Cvtvec@@@Z
	??$_Move_unchecked@PEA_KPEA_K@std@@YAPEA_KPEA_K00@Z
	??$_Reallocate_grow_by@V<lambda_319d5e083f45f90dcdce5dce53cbb275>@@D@?$basic_string@DU?$char_traits@D@std@@V?$allocator@D@2@@std@@AEAAAEAV01@_KV<lambda_319d5e083f45f90dcdce5dce53cbb275>@@D@Z
	??$_Reallocate_grow_by@V<lambda_65e615be2a453ca0576c979606f46740>@@PEBD_K@?$basic_string@DU?$char_traits@D@std@@V?$allocator@D@2@@std@@AEAAAEAV01@_KV<lambda_65e615be2a453ca0576c979606f46740>@@PEBD_K@Z
	??$_Reallocate_grow_by@V<lambda_e1befb086ad3257e3f042a63030725f7>@@_KD@?$basic_string@DU?$char_traits@D@std@@V?$allocator@D@2@@std@@AEAAAEAV01@_KV<lambda_e1befb086ad3257e3f042a63030725f7>@@_KD@Z
	??$_Reallocate_grow_by@V<lambda_f3a66ab6a0570788f31503db83886f49>@@_KPEBD_K@?$basic_string@DU?$char_traits@D@std@@V?$allocator@D@2@@std@@AEAAAEAV01@_KV<lambda_f3a66ab6a0570788f31503db83886f49>@@_KPEBD2@Z
	??$_Resize_reallocate@U_Value_init_tag@std@@@?$vector@PEAVAbstractParameter@karto@@V?$allocator@PEAVAbstractParameter@karto@@@std@@@std@@AEAAX_KAEBU_Value_init_tag@1@@Z
	??$_Resize_reallocate@U_Value_init_tag@std@@@?$vector@PEAVObject@karto@@V?$allocator@PEAVObject@karto@@@std@@@std@@AEAAX_KAEBU_Value_init_tag@1@@Z
	??$_Test_callable@V<lambda_33d3207aa9cfabd17909961fe837b8a9>@@@std@@YA_NAEBV<lambda_33d3207aa9cfabd17909961fe837b8a9>@@@Z
	??$_Test_callable@V<lambda_83c40cceffae39b19729e050b3a9ba8e>@@@std@@YA_NAEBV<lambda_83c40cceffae39b19729e050b3a9ba8e>@@@Z
	??$_Test_callable@V?$_Binder@U_Unforced@std@@P8LocalizationSlamToolbox@slam_toolbox@@EAAXV?$shared_ptr@U?$PoseWithCovarianceStamped_@V?$allocator@X@std@@@msg@geometry_msgs@@@2@@ZPEAV34@AEBU?$_Ph@$00@2@@std@@@std@@YA_NAEBV?$_Binder@U_Unforced@std@@P8LocalizationSlamToolbox@slam_toolbox@@EAAXV?$shared_ptr@U?$PoseWithCovarianceStamped_@V?$allocator@X@std@@@msg@geometry_msgs@@@2@@ZPEAV34@AEBU?$_Ph@$00@2@@0@@Z
	??$_Test_callable@V?$_Binder@U_Unforced@std@@P8LocalizationSlamToolbox@slam_toolbox@@EAA_NV?$shared_ptr@Urmw_request_id_t@@@2@V?$shared_ptr@U?$Empty_Request_@V?$allocator@X@std@@@srv@std_srvs@@@2@V?$shared_ptr@U?$Empty_Response_@V?$allocator@X@std@@@srv@std_srvs@@@2@@ZPEAV34@AEBU?$_Ph@$00@2@AEBU?$_Ph@$01@2@AEBU?$_Ph@$02@2@@std@@@std@@YA_NAEBV?$_Binder@U_Unforced@std@@P8LocalizationSlamToolbox@slam_toolbox@@EAA_NV?$shared_ptr@Urmw_request_id_t@@@2@V?$shared_ptr@U?$Empty_Request_@V?$allocator@X@std@@@srv@std_srvs@@@2@V?$shared_ptr@U?$Empty_Response_@V?$allocator@X@std@@@srv@std_srvs@@@2@@ZPEAV34@AEBU?$_Ph@$00@2@AEBU?$_Ph@$01@2@AEBU?$_Ph@$02@2@@0@@Z
	??$_Try_emplace@AEBVtype_index@std@@$$V@?$_Hash@V?$_Umap_traits@Vtype_index@std@@V?$shared_ptr@X@2@V?$_Uhash_compare@Vtype_index@std@@U?$hash@Vtype_index@std@@@2@U?$equal_to@Vtype_index@std@@@2@@2@V?$allocator@U?$pair@$$CBVtype_index@std@@V?$shared_ptr@X@2@@std@@@2@$0A@@std@@@std@@IEAA?AU?$pair@PEAU?$_List_node@U?$pair@$$CBVtype_index@std@@V?$shared_ptr@X@2@@std@@PEAX@std@@_N@1@AEBVtype_index@1@@Z
	??$_UIntegral_to_buff@D_K@std@@YAPEADPEAD_K@Z
	??$_Uninitialized_move@PEAU?$MetricsMessage_@V?$allocator@X@std@@@msg@statistics_msgs@@V?$allocator@U?$MetricsMessage_@V?$allocator@X@std@@@msg@statistics_msgs@@@std@@@std@@YAPEAU?$MetricsMessage_@V?$allocator@X@std@@@msg@statistics_msgs@@QEAU123@0PEAU123@AEAV?$allocator@U?$MetricsMessage_@V?$allocator@X@std@@@msg@statistics_msgs@@@0@@Z
	??$_Zero_range@PEAPEAVAbstractParameter@karto@@@std@@YAPEAPEAVAbstractParameter@karto@@QEAPEAV12@0@Z
	??$_Zero_range@PEAPEAVObject@karto@@@std@@YAPEAPEAVObject@karto@@QEAPEAV12@0@Z
	??$add_event_handler@V<lambda_3f9548421920b881c8df116e1c596558>@@@SubscriptionBase@rclcpp@@IEAAXAEBV<lambda_3f9548421920b881c8df116e1c596558>@@W4rcl_subscription_event_type_t@@@Z
	??$add_event_handler@V?$function@$$A6AXAEAUrmw_liveliness_changed_status_t@@@Z@std@@@SubscriptionBase@rclcpp@@IEAAXAEBV?$function@$$A6AXAEAUrmw_liveliness_changed_status_t@@@Z@std@@W4rcl_subscription_event_type_t@@@Z
	??$add_event_handler@V?$function@$$A6AXAEAUrmw_qos_incompatible_event_status_t@@@Z@std@@@SubscriptionBase@rclcpp@@IEAAXAEBV?$function@$$A6AXAEAUrmw_qos_incompatible_event_status_t@@@Z@std@@W4rcl_subscription_event_type_t@@@Z
	??$add_event_handler@V?$function@$$A6AXAEAUrmw_requested_deadline_missed_status_t@@@Z@std@@@SubscriptionBase@rclcpp@@IEAAXAEBV?$function@$$A6AXAEAUrmw_requested_deadline_missed_status_t@@@Z@std@@W4rcl_subscription_event_type_t@@@Z
	??$add_owned_msg_to_buffers@U?$MetricsMessage_@V?$allocator@X@std@@@msg@statistics_msgs@@V?$allocator@X@std@@U?$default_delete@U?$MetricsMessage_@V?$allocator@X@std@@@msg@statistics_msgs@@@5@@IntraProcessManager@experimental@rclcpp@@AEAAXV?$unique_ptr@U?$MetricsMessage_@V?$allocator@X@std@@@msg@statistics_msgs@@U?$default_delete@U?$MetricsMessage_@V?$allocator@X@std@@@msg@statistics_msgs@@@std@@@std@@V?$vector@_KV?$allocator@_K@std@@@4@V?$shared_ptr@V?$allocator@U?$MetricsMessage_@V?$allocator@X@std@@@msg@statistics_msgs@@@std@@@4@@Z
	??$add_shared_msg_to_buffers@U?$MetricsMessage_@V?$allocator@X@std@@@msg@statistics_msgs@@@IntraProcessManager@experimental@rclcpp@@AEAAXV?$shared_ptr@$$CBU?$MetricsMessage_@V?$allocator@X@std@@@msg@statistics_msgs@@@std@@V?$vector@_KV?$allocator@_K@std@@@4@@Z
	??$allocate_shared@U?$MetricsMessage_@V?$allocator@X@std@@@msg@statistics_msgs@@V?$allocator@U?$MetricsMessage_@V?$allocator@X@std@@@msg@statistics_msgs@@@std@@AEAU123@@std@@YA?AV?$shared_ptr@U?$MetricsMessage_@V?$allocator@X@std@@@msg@statistics_msgs@@@0@AEBV?$allocator@U?$MetricsMessage_@V?$allocator@X@std@@@msg@statistics_msgs@@@0@AEAU?$MetricsMessage_@V?$allocator@X@std@@@msg@statistics_msgs@@@Z
	??$base_object@VAbstractParameter@karto@@V?$Parameter@V?$basic_string@DU?$char_traits@D@std@@V?$allocator@D@2@@std@@@2@@serialization@boost@@YAAEAVAbstractParameter@karto@@AEAV?$Parameter@V?$basic_string@DU?$char_traits@D@std@@V?$allocator@D@2@@std@@@3@@Z
	??$base_object@VNonCopyable@karto@@VObject@2@@serialization@boost@@YAAEAVNonCopyable@karto@@AEAVObject@3@@Z
	??$base_object@VNonCopyable@karto@@VParameterManager@2@@serialization@boost@@YAAEAVNonCopyable@karto@@AEAVParameterManager@3@@Z
	??$base_object@VObject@karto@@VDatasetInfo@2@@serialization@boost@@YAAEAVObject@karto@@AEAVDatasetInfo@3@@Z
	??$checked_delete@V?$clone_impl@Ubad_alloc_@exception_detail@boost@@@exception_detail@boost@@@boost@@YAXPEAV?$clone_impl@Ubad_alloc_@exception_detail@boost@@@exception_detail@0@@Z
	??$checked_delete@V?$clone_impl@Ubad_exception_@exception_detail@boost@@@exception_detail@boost@@@boost@@YAXPEAV?$clone_impl@Ubad_exception_@exception_detail@boost@@@exception_detail@0@@Z
	??$collection_load_impl@Vbinary_iarchive@archive@boost@@V?$vector@PEAVAbstractParameter@karto@@V?$allocator@PEAVAbstractParameter@karto@@@std@@@std@@@stl@serialization@boost@@YAXAEAVbinary_iarchive@archive@2@AEAV?$vector@PEAVAbstractParameter@karto@@V?$allocator@PEAVAbstractParameter@karto@@@std@@@std@@Vcollection_size_type@12@Vitem_version_type@12@@Z
	??$collection_load_impl@Vbinary_iarchive@archive@boost@@V?$vector@PEAVObject@karto@@V?$allocator@PEAVObject@karto@@@std@@@std@@@stl@serialization@boost@@YAXAEAVbinary_iarchive@archive@2@AEAV?$vector@PEAVObject@karto@@V?$allocator@PEAVObject@karto@@@std@@@std@@Vcollection_size_type@12@Vitem_version_type@12@@Z
	??$create_intra_process_buffer@U?$PoseWithCovarianceStamped_@V?$allocator@X@std@@@msg@geometry_msgs@@V?$allocator@X@std@@U?$default_delete@U?$PoseWithCovarianceStamped_@V?$allocator@X@std@@@msg@geometry_msgs@@@5@@experimental@rclcpp@@YA?AV?$unique_ptr@V?$IntraProcessBuffer@U?$PoseWithCovarianceStamped_@V?$allocator@X@std@@@msg@geometry_msgs@@V?$allocator@X@std@@U?$default_delete@U?$PoseWithCovarianceStamped_@V?$allocator@X@std@@@msg@geometry_msgs@@@5@@buffers@experimental@rclcpp@@U?$default_delete@V?$IntraProcessBuffer@U?$PoseWithCovarianceStamped_@V?$allocator@X@std@@@msg@geometry_msgs@@V?$allocator@X@std@@U?$default_delete@U?$PoseWithCovarianceStamped_@V?$allocator@X@std@@@msg@geometry_msgs@@@5@@buffers@experimental@rclcpp@@@std@@@std@@W4IntraProcessBufferType@1@Urmw_qos_profile_t@@V?$shared_ptr@V?$allocator@X@std@@@3@@Z
	??$create_publisher@U?$MetricsMessage_@V?$allocator@X@std@@@msg@statistics_msgs@@V?$allocator@X@std@@V?$Publisher@U?$MetricsMessage_@V?$allocator@X@std@@@msg@statistics_msgs@@V?$allocator@X@std@@@rclcpp@@VNode@7@@rclcpp@@YA?AV?$shared_ptr@V?$Publisher@U?$MetricsMessage_@V?$allocator@X@std@@@msg@statistics_msgs@@V?$allocator@X@std@@@rclcpp@@@std@@AEAVNode@0@AEBV?$basic_string@DU?$char_traits@D@std@@V?$allocator@D@2@@2@AEBVQoS@0@AEBU?$PublisherOptionsWithAllocator@V?$allocator@X@std@@@0@@Z
	??$create_publisher_factory@U?$MetricsMessage_@V?$allocator@X@std@@@msg@statistics_msgs@@V?$allocator@X@std@@V?$Publisher@U?$MetricsMessage_@V?$allocator@X@std@@@msg@statistics_msgs@@V?$allocator@X@std@@@rclcpp@@@rclcpp@@YA?AUPublisherFactory@0@AEBU?$PublisherOptionsWithAllocator@V?$allocator@X@std@@@0@@Z
	??$create_service@UEmpty@srv@std_srvs@@V?$_Binder@U_Unforced@std@@P8LocalizationSlamToolbox@slam_toolbox@@EAA_NV?$shared_ptr@Urmw_request_id_t@@@2@V?$shared_ptr@U?$Empty_Request_@V?$allocator@X@std@@@srv@std_srvs@@@2@V?$shared_ptr@U?$Empty_Response_@V?$allocator@X@std@@@srv@std_srvs@@@2@@ZPEAV34@AEBU?$_Ph@$00@2@AEBU?$_Ph@$01@2@AEBU?$_Ph@$02@2@@std@@@Node@rclcpp@@QEAA?AV?$shared_ptr@V?$Service@UEmpty@srv@std_srvs@@@rclcpp@@@std@@AEBV?$basic_string@DU?$char_traits@D@std@@V?$allocator@D@2@@3@$$QEAV?$_Binder@U_Unforced@std@@P8LocalizationSlamToolbox@slam_toolbox@@EAA_NV?$shared_ptr@Urmw_request_id_t@@@2@V?$shared_ptr@U?$Empty_Request_@V?$allocator@X@std@@@srv@std_srvs@@@2@V?$shared_ptr@U?$Empty_Response_@V?$allocator@X@std@@@srv@std_srvs@@@2@@ZPEAV34@AEBU?$_Ph@$00@2@AEBU?$_Ph@$01@2@AEBU?$_Ph@$02@2@@3@AEBUrmw_qos_profile_t@@V?$shared_ptr@VCallbackGroup@rclcpp@@@3@@Z
	??$create_service@UEmpty@srv@std_srvs@@V?$_Binder@U_Unforced@std@@P8LocalizationSlamToolbox@slam_toolbox@@EAA_NV?$shared_ptr@Urmw_request_id_t@@@2@V?$shared_ptr@U?$Empty_Request_@V?$allocator@X@std@@@srv@std_srvs@@@2@V?$shared_ptr@U?$Empty_Response_@V?$allocator@X@std@@@srv@std_srvs@@@2@@ZPEAV34@AEBU?$_Ph@$00@2@AEBU?$_Ph@$01@2@AEBU?$_Ph@$02@2@@std@@@rclcpp@@YA?AV?$shared_ptr@V?$Service@UEmpty@srv@std_srvs@@@rclcpp@@@std@@V?$shared_ptr@VNodeBaseInterface@node_interfaces@rclcpp@@@2@V?$shared_ptr@VNodeServicesInterface@node_interfaces@rclcpp@@@2@AEBV?$basic_string@DU?$char_traits@D@std@@V?$allocator@D@2@@2@$$QEAV?$_Binder@U_Unforced@std@@P8LocalizationSlamToolbox@slam_toolbox@@EAA_NV?$shared_ptr@Urmw_request_id_t@@@2@V?$shared_ptr@U?$Empty_Request_@V?$allocator@X@std@@@srv@std_srvs@@@2@V?$shared_ptr@U?$Empty_Response_@V?$allocator@X@std@@@srv@std_srvs@@@2@@ZPEAV34@AEBU?$_Ph@$00@2@AEBU?$_Ph@$01@2@AEBU?$_Ph@$02@2@@2@AEBUrmw_qos_profile_t@@V?$shared_ptr@VCallbackGroup@rclcpp@@@2@@Z
	??$create_subscription@U?$PoseWithCovarianceStamped_@V?$allocator@X@std@@@msg@geometry_msgs@@V?$_Binder@U_Unforced@std@@P8LocalizationSlamToolbox@slam_toolbox@@EAAXV?$shared_ptr@U?$PoseWithCovarianceStamped_@V?$allocator@X@std@@@msg@geometry_msgs@@@2@@ZPEAV34@AEBU?$_Ph@$00@2@@std@@V?$allocator@X@5@U123@V?$Subscription@U?$PoseWithCovarianceStamped_@V?$allocator@X@std@@@msg@geometry_msgs@@V?$allocator@X@std@@V?$MessageMemoryStrategy@U?$PoseWithCovarianceStamped_@V?$allocator@X@std@@@msg@geometry_msgs@@V?$allocator@X@std@@@message_memory_strategy@rclcpp@@@rclcpp@@V?$MessageMemoryStrategy@U?$PoseWithCovarianceStamped_@V?$allocator@X@std@@@msg@geometry_msgs@@V?$allocator@X@std@@@message_memory_strategy@8@@Node@rclcpp@@QEAA?AV?$shared_ptr@V?$Subscription@U?$PoseWithCovarianceStamped_@V?$allocator@X@std@@@msg@geometry_msgs@@V?$allocator@X@std@@V?$MessageMemoryStrategy@U?$PoseWithCovarianceStamped_@V?$allocator@X@std@@@msg@geometry_msgs@@V?$allocator@X@std@@@message_memory_strategy@rclcpp@@@rclcpp@@@std@@AEBV?$basic_string@DU?$char_traits@D@std@@V?$allocator@D@2@@3@AEBVQoS@1@$$QEAV?$_Binder@U_Unforced@std@@P8LocalizationSlamToolbox@slam_toolbox@@EAAXV?$shared_ptr@U?$PoseWithCovarianceStamped_@V?$allocator@X@std@@@msg@geometry_msgs@@@2@@ZPEAV34@AEBU?$_Ph@$00@2@@3@AEBU?$SubscriptionOptionsWithAllocator@V?$allocator@X@std@@@1@V?$shared_ptr@V?$MessageMemoryStrategy@U?$PoseWithCovarianceStamped_@V?$allocator@X@std@@@msg@geometry_msgs@@V?$allocator@X@std@@@message_memory_strategy@rclcpp@@@3@@Z
	??$create_subscription@U?$PoseWithCovarianceStamped_@V?$allocator@X@std@@@msg@geometry_msgs@@V?$_Binder@U_Unforced@std@@P8LocalizationSlamToolbox@slam_toolbox@@EAAXV?$shared_ptr@U?$PoseWithCovarianceStamped_@V?$allocator@X@std@@@msg@geometry_msgs@@@2@@ZPEAV34@AEBU?$_Ph@$00@2@@std@@V?$allocator@X@5@U123@V?$Subscription@U?$PoseWithCovarianceStamped_@V?$allocator@X@std@@@msg@geometry_msgs@@V?$allocator@X@std@@V?$MessageMemoryStrategy@U?$PoseWithCovarianceStamped_@V?$allocator@X@std@@@msg@geometry_msgs@@V?$allocator@X@std@@@message_memory_strategy@rclcpp@@@rclcpp@@V?$MessageMemoryStrategy@U?$PoseWithCovarianceStamped_@V?$allocator@X@std@@@msg@geometry_msgs@@V?$allocator@X@std@@@message_memory_strategy@8@AEAVNode@8@@rclcpp@@YA?AV?$shared_ptr@V?$Subscription@U?$PoseWithCovarianceStamped_@V?$allocator@X@std@@@msg@geometry_msgs@@V?$allocator@X@std@@V?$MessageMemoryStrategy@U?$PoseWithCovarianceStamped_@V?$allocator@X@std@@@msg@geometry_msgs@@V?$allocator@X@std@@@message_memory_strategy@rclcpp@@@rclcpp@@@std@@AEAVNode@0@AEBV?$basic_string@DU?$char_traits@D@std@@V?$allocator@D@2@@2@AEBVQoS@0@$$QEAV?$_Binder@U_Unforced@std@@P8LocalizationSlamToolbox@slam_toolbox@@EAAXV?$shared_ptr@U?$PoseWithCovarianceStamped_@V?$allocator@X@std@@@msg@geometry_msgs@@@2@@ZPEAV34@AEBU?$_Ph@$00@2@@2@AEBU?$SubscriptionOptionsWithAllocator@V?$allocator@X@std@@@0@V?$shared_ptr@V?$MessageMemoryStrategy@U?$PoseWithCovarianceStamped_@V?$allocator@X@std@@@msg@geometry_msgs@@V?$allocator@X@std@@@message_memory_strategy@rclcpp@@@2@@Z
	??$create_subscription_factory@U?$PoseWithCovarianceStamped_@V?$allocator@X@std@@@msg@geometry_msgs@@V?$_Binder@U_Unforced@std@@P8LocalizationSlamToolbox@slam_toolbox@@EAAXV?$shared_ptr@U?$PoseWithCovarianceStamped_@V?$allocator@X@std@@@msg@geometry_msgs@@@2@@ZPEAV34@AEBU?$_Ph@$00@2@@std@@V?$allocator@X@5@U123@V?$Subscription@U?$PoseWithCovarianceStamped_@V?$allocator@X@std@@@msg@geometry_msgs@@V?$allocator@X@std@@V?$MessageMemoryStrategy@U?$PoseWithCovarianceStamped_@V?$allocator@X@std@@@msg@geometry_msgs@@V?$allocator@X@std@@@message_memory_strategy@rclcpp@@@rclcpp@@V?$MessageMemoryStrategy@U?$PoseWithCovarianceStamped_@V?$allocator@X@std@@@msg@geometry_msgs@@V?$allocator@X@std@@@message_memory_strategy@8@@rclcpp@@YA?AUSubscriptionFactory@0@$$QEAV?$_Binder@U_Unforced@std@@P8LocalizationSlamToolbox@slam_toolbox@@EAAXV?$shared_ptr@U?$PoseWithCovarianceStamped_@V?$allocator@X@std@@@msg@geometry_msgs@@@2@@ZPEAV34@AEBU?$_Ph@$00@2@@std@@AEBU?$SubscriptionOptionsWithAllocator@V?$allocator@X@std@@@0@V?$shared_ptr@V?$MessageMemoryStrategy@U?$PoseWithCovarianceStamped_@V?$allocator@X@std@@@msg@geometry_msgs@@V?$allocator@X@std@@@message_memory_strategy@rclcpp@@@3@V?$shared_ptr@V?$SubscriptionTopicStatistics@U?$PoseWithCovarianceStamped_@V?$allocator@X@std@@@msg@geometry_msgs@@@topic_statistics@rclcpp@@@3@@Z
	??$create_wall_timer@_JU?$ratio@$00$0DLJKMKAA@@std@@V<lambda_dc0acc6c162c69a79de61b136908d558>@@@rclcpp@@YA?AV?$shared_ptr@V?$WallTimer@V<lambda_dc0acc6c162c69a79de61b136908d558>@@$0A@@rclcpp@@@std@@V?$duration@_JU?$ratio@$00$0DLJKMKAA@@std@@@chrono@2@V<lambda_dc0acc6c162c69a79de61b136908d558>@@V?$shared_ptr@VCallbackGroup@rclcpp@@@2@PEAVNodeBaseInterface@node_interfaces@0@PEAVNodeTimersInterface@80@@Z
	??$doTransform@U?$TransformStamped_@V?$allocator@X@std@@@msg@geometry_msgs@@@tf2@@YAXAEBU?$TransformStamped_@V?$allocator@X@std@@@msg@geometry_msgs@@AEAU123@0@Z
	??$do_intra_process_publish@U?$MetricsMessage_@V?$allocator@X@std@@@msg@statistics_msgs@@V?$allocator@X@std@@U?$default_delete@U?$MetricsMessage_@V?$allocator@X@std@@@msg@statistics_msgs@@@5@@IntraProcessManager@experimental@rclcpp@@QEAAX_KV?$unique_ptr@U?$MetricsMessage_@V?$allocator@X@std@@@msg@statistics_msgs@@U?$default_delete@U?$MetricsMessage_@V?$allocator@X@std@@@msg@statistics_msgs@@@std@@@std@@V?$shared_ptr@V?$allocator@U?$MetricsMessage_@V?$allocator@X@std@@@msg@statistics_msgs@@@std@@@4@@Z
	??$do_intra_process_publish_and_return_shared@U?$MetricsMessage_@V?$allocator@X@std@@@msg@statistics_msgs@@V?$allocator@X@std@@U?$default_delete@U?$MetricsMessage_@V?$allocator@X@std@@@msg@statistics_msgs@@@5@@IntraProcessManager@experimental@rclcpp@@QEAA?AV?$shared_ptr@$$CBU?$MetricsMessage_@V?$allocator@X@std@@@msg@statistics_msgs@@@std@@_KV?$unique_ptr@U?$MetricsMessage_@V?$allocator@X@std@@@msg@statistics_msgs@@U?$default_delete@U?$MetricsMessage_@V?$allocator@X@std@@@msg@statistics_msgs@@@std@@@4@V?$shared_ptr@V?$allocator@U?$MetricsMessage_@V?$allocator@X@std@@@msg@statistics_msgs@@@std@@@4@@Z
	??$dynamic_pointer_cast@V?$Publisher@U?$MetricsMessage_@V?$allocator@X@std@@@msg@statistics_msgs@@V?$allocator@X@std@@@rclcpp@@VPublisherBase@2@@std@@YA?AV?$shared_ptr@V?$Publisher@U?$MetricsMessage_@V?$allocator@X@std@@@msg@statistics_msgs@@V?$allocator@X@std@@@rclcpp@@@0@AEBV?$shared_ptr@VPublisherBase@rclcpp@@@0@@Z
	??$dynamic_pointer_cast@V?$Subscription@U?$PoseWithCovarianceStamped_@V?$allocator@X@std@@@msg@geometry_msgs@@V?$allocator@X@std@@V?$MessageMemoryStrategy@U?$PoseWithCovarianceStamped_@V?$allocator@X@std@@@msg@geometry_msgs@@V?$allocator@X@std@@@message_memory_strategy@rclcpp@@@rclcpp@@VSubscriptionBase@2@@std@@YA?AV?$shared_ptr@V?$Subscription@U?$PoseWithCovarianceStamped_@V?$allocator@X@std@@@msg@geometry_msgs@@V?$allocator@X@std@@V?$MessageMemoryStrategy@U?$PoseWithCovarianceStamped_@V?$allocator@X@std@@@msg@geometry_msgs@@V?$allocator@X@std@@@message_memory_strategy@rclcpp@@@rclcpp@@@0@AEBV?$shared_ptr@VSubscriptionBase@rclcpp@@@0@@Z
	??$dynamic_pointer_cast@VServiceBase@rclcpp@@V?$Service@UEmpty@srv@std_srvs@@@2@@std@@YA?AV?$shared_ptr@VServiceBase@rclcpp@@@0@AEBV?$shared_ptr@V?$Service@UEmpty@srv@std_srvs@@@rclcpp@@@0@@Z
	??$dynamic_pointer_cast@VSubscriptionBase@rclcpp@@V?$Subscription@U?$PoseWithCovarianceStamped_@V?$allocator@X@std@@@msg@geometry_msgs@@V?$allocator@X@std@@V?$MessageMemoryStrategy@U?$PoseWithCovarianceStamped_@V?$allocator@X@std@@@msg@geometry_msgs@@V?$allocator@X@std@@@message_memory_strategy@rclcpp@@@2@@std@@YA?AV?$shared_ptr@VSubscriptionBase@rclcpp@@@0@AEBV?$shared_ptr@V?$Subscription@U?$PoseWithCovarianceStamped_@V?$allocator@X@std@@@msg@geometry_msgs@@V?$allocator@X@std@@V?$MessageMemoryStrategy@U?$PoseWithCovarianceStamped_@V?$allocator@X@std@@@msg@geometry_msgs@@V?$allocator@X@std@@@message_memory_strategy@rclcpp@@@rclcpp@@@0@@Z
	??$emplace@U?$pair@PEAV?$QOSEventHandler@V<lambda_3f9548421920b881c8df116e1c596558>@@V?$shared_ptr@Urcl_subscription_t@@@std@@@rclcpp@@_N@std@@@?$_Hash@V?$_Umap_traits@PEAVQOSEventHandlerBase@rclcpp@@U?$atomic@_N@std@@V?$_Uhash_compare@PEAVQOSEventHandlerBase@rclcpp@@U?$hash@PEAVQOSEventHandlerBase@rclcpp@@@std@@U?$equal_to@PEAVQOSEventHandlerBase@rclcpp@@@4@@4@V?$allocator@U?$pair@QEAVQOSEventHandlerBase@rclcpp@@U?$atomic@_N@std@@@std@@@4@$0A@@std@@@std@@QEAA?AU?$pair@V?$_List_iterator@V?$_List_val@U?$_List_simple_types@U?$pair@QEAVQOSEventHandlerBase@rclcpp@@U?$atomic@_N@std@@@std@@@std@@@std@@@std@@_N@1@$$QEAU?$pair@PEAV?$QOSEventHandler@V<lambda_3f9548421920b881c8df116e1c596558>@@V?$shared_ptr@Urcl_subscription_t@@@std@@@rclcpp@@_N@1@@Z
	??$emplace@U?$pair@PEAV?$QOSEventHandler@V?$function@$$A6AXAEAUrmw_liveliness_changed_status_t@@@Z@std@@V?$shared_ptr@Urcl_subscription_t@@@2@@rclcpp@@_N@std@@@?$_Hash@V?$_Umap_traits@PEAVQOSEventHandlerBase@rclcpp@@U?$atomic@_N@std@@V?$_Uhash_compare@PEAVQOSEventHandlerBase@rclcpp@@U?$hash@PEAVQOSEventHandlerBase@rclcpp@@@std@@U?$equal_to@PEAVQOSEventHandlerBase@rclcpp@@@4@@4@V?$allocator@U?$pair@QEAVQOSEventHandlerBase@rclcpp@@U?$atomic@_N@std@@@std@@@4@$0A@@std@@@std@@QEAA?AU?$pair@V?$_List_iterator@V?$_List_val@U?$_List_simple_types@U?$pair@QEAVQOSEventHandlerBase@rclcpp@@U?$atomic@_N@std@@@std@@@std@@@std@@@std@@_N@1@$$QEAU?$pair@PEAV?$QOSEventHandler@V?$function@$$A6AXAEAUrmw_liveliness_changed_status_t@@@Z@std@@V?$shared_ptr@Urcl_subscription_t@@@2@@rclcpp@@_N@1@@Z
	??$emplace@U?$pair@PEAV?$QOSEventHandler@V?$function@$$A6AXAEAUrmw_qos_incompatible_event_status_t@@@Z@std@@V?$shared_ptr@Urcl_subscription_t@@@2@@rclcpp@@_N@std@@@?$_Hash@V?$_Umap_traits@PEAVQOSEventHandlerBase@rclcpp@@U?$atomic@_N@std@@V?$_Uhash_compare@PEAVQOSEventHandlerBase@rclcpp@@U?$hash@PEAVQOSEventHandlerBase@rclcpp@@@std@@U?$equal_to@PEAVQOSEventHandlerBase@rclcpp@@@4@@4@V?$allocator@U?$pair@QEAVQOSEventHandlerBase@rclcpp@@U?$atomic@_N@std@@@std@@@4@$0A@@std@@@std@@QEAA?AU?$pair@V?$_List_iterator@V?$_List_val@U?$_List_simple_types@U?$pair@QEAVQOSEventHandlerBase@rclcpp@@U?$atomic@_N@std@@@std@@@std@@@std@@@std@@_N@1@$$QEAU?$pair@PEAV?$QOSEventHandler@V?$function@$$A6AXAEAUrmw_qos_incompatible_event_status_t@@@Z@std@@V?$shared_ptr@Urcl_subscription_t@@@2@@rclcpp@@_N@1@@Z
	??$emplace@U?$pair@PEAV?$QOSEventHandler@V?$function@$$A6AXAEAUrmw_requested_deadline_missed_status_t@@@Z@std@@V?$shared_ptr@Urcl_subscription_t@@@2@@rclcpp@@_N@std@@@?$_Hash@V?$_Umap_traits@PEAVQOSEventHandlerBase@rclcpp@@U?$atomic@_N@std@@V?$_Uhash_compare@PEAVQOSEventHandlerBase@rclcpp@@U?$hash@PEAVQOSEventHandlerBase@rclcpp@@@std@@U?$equal_to@PEAVQOSEventHandlerBase@rclcpp@@@4@@4@V?$allocator@U?$pair@QEAVQOSEventHandlerBase@rclcpp@@U?$atomic@_N@std@@@std@@@4@$0A@@std@@@std@@QEAA?AU?$pair@V?$_List_iterator@V?$_List_val@U?$_List_simple_types@U?$pair@QEAVQOSEventHandlerBase@rclcpp@@U?$atomic@_N@std@@@std@@@std@@@std@@@std@@_N@1@$$QEAU?$pair@PEAV?$QOSEventHandler@V?$function@$$A6AXAEAUrmw_requested_deadline_missed_status_t@@@Z@std@@V?$shared_ptr@Urcl_subscription_t@@@2@@rclcpp@@_N@1@@Z
	??$execute_impl@U?$PoseWithCovarianceStamped_@V?$allocator@X@std@@@msg@geometry_msgs@@@?$SubscriptionIntraProcess@U?$PoseWithCovarianceStamped_@V?$allocator@X@std@@@msg@geometry_msgs@@V?$allocator@X@std@@U?$default_delete@U?$PoseWithCovarianceStamped_@V?$allocator@X@std@@@msg@geometry_msgs@@@5@U123@@experimental@rclcpp@@AEAAXXZ
	??$factory@U?$pair@$$CBHPEAVObject@karto@@@std@@$00@serialization@boost@@YAPEAU?$pair@$$CBHPEAVObject@karto@@@std@@PEAD@Z
	??$factory@U?$pair@$$CBHPEAVObject@karto@@@std@@$01@serialization@boost@@YAPEAU?$pair@$$CBHPEAVObject@karto@@@std@@PEAD@Z
	??$factory@U?$pair@$$CBHPEAVObject@karto@@@std@@$02@serialization@boost@@YAPEAU?$pair@$$CBHPEAVObject@karto@@@std@@PEAD@Z
	??$factory@U?$pair@$$CBHPEAVObject@karto@@@std@@$03@serialization@boost@@YAPEAU?$pair@$$CBHPEAVObject@karto@@@std@@PEAD@Z
	??$factory@U?$pair@$$CBHPEAVObject@karto@@@std@@$0A@@serialization@boost@@YAPEAU?$pair@$$CBHPEAVObject@karto@@@std@@PEAD@Z
	??$factory@U?$pair@$$CBV?$basic_string@DU?$char_traits@D@std@@V?$allocator@D@2@@std@@PEAVAbstractParameter@karto@@@std@@$00@serialization@boost@@YAPEAU?$pair@$$CBV?$basic_string@DU?$char_traits@D@std@@V?$allocator@D@2@@std@@PEAVAbstractParameter@karto@@@std@@PEAD@Z
	??$factory@U?$pair@$$CBV?$basic_string@DU?$char_traits@D@std@@V?$allocator@D@2@@std@@PEAVAbstractParameter@karto@@@std@@$01@serialization@boost@@YAPEAU?$pair@$$CBV?$basic_string@DU?$char_traits@D@std@@V?$allocator@D@2@@std@@PEAVAbstractParameter@karto@@@std@@PEAD@Z
	??$factory@U?$pair@$$CBV?$basic_string@DU?$char_traits@D@std@@V?$allocator@D@2@@std@@PEAVAbstractParameter@karto@@@std@@$02@serialization@boost@@YAPEAU?$pair@$$CBV?$basic_string@DU?$char_traits@D@std@@V?$allocator@D@2@@std@@PEAVAbstractParameter@karto@@@std@@PEAD@Z
	??$factory@U?$pair@$$CBV?$basic_string@DU?$char_traits@D@std@@V?$allocator@D@2@@std@@PEAVAbstractParameter@karto@@@std@@$03@serialization@boost@@YAPEAU?$pair@$$CBV?$basic_string@DU?$char_traits@D@std@@V?$allocator@D@2@@std@@PEAVAbstractParameter@karto@@@std@@PEAD@Z
	??$factory@U?$pair@$$CBV?$basic_string@DU?$char_traits@D@std@@V?$allocator@D@2@@std@@PEAVAbstractParameter@karto@@@std@@$0A@@serialization@boost@@YAPEAU?$pair@$$CBV?$basic_string@DU?$char_traits@D@std@@V?$allocator@D@2@@std@@PEAVAbstractParameter@karto@@@std@@PEAD@Z
	??$factory@U?$pair@$$CBVName@karto@@PEAVSensor@2@@std@@$00@serialization@boost@@YAPEAU?$pair@$$CBVName@karto@@PEAVSensor@2@@std@@PEAD@Z
	??$factory@U?$pair@$$CBVName@karto@@PEAVSensor@2@@std@@$01@serialization@boost@@YAPEAU?$pair@$$CBVName@karto@@PEAVSensor@2@@std@@PEAD@Z
	??$factory@U?$pair@$$CBVName@karto@@PEAVSensor@2@@std@@$02@serialization@boost@@YAPEAU?$pair@$$CBVName@karto@@PEAVSensor@2@@std@@PEAD@Z
	??$factory@U?$pair@$$CBVName@karto@@PEAVSensor@2@@std@@$03@serialization@boost@@YAPEAU?$pair@$$CBVName@karto@@PEAVSensor@2@@std@@PEAD@Z
	??$factory@U?$pair@$$CBVName@karto@@PEAVSensor@2@@std@@$0A@@serialization@boost@@YAPEAU?$pair@$$CBVName@karto@@PEAVSensor@2@@std@@PEAD@Z
	??$factory@V?$Parameter@V?$basic_string@DU?$char_traits@D@std@@V?$allocator@D@2@@std@@@karto@@$00@serialization@boost@@YAPEAV?$Parameter@V?$basic_string@DU?$char_traits@D@std@@V?$allocator@D@2@@std@@@karto@@PEAD@Z
	??$factory@V?$Parameter@V?$basic_string@DU?$char_traits@D@std@@V?$allocator@D@2@@std@@@karto@@$01@serialization@boost@@YAPEAV?$Parameter@V?$basic_string@DU?$char_traits@D@std@@V?$allocator@D@2@@std@@@karto@@PEAD@Z
	??$factory@V?$Parameter@V?$basic_string@DU?$char_traits@D@std@@V?$allocator@D@2@@std@@@karto@@$02@serialization@boost@@YAPEAV?$Parameter@V?$basic_string@DU?$char_traits@D@std@@V?$allocator@D@2@@std@@@karto@@PEAD@Z
	??$factory@V?$Parameter@V?$basic_string@DU?$char_traits@D@std@@V?$allocator@D@2@@std@@@karto@@$03@serialization@boost@@YAPEAV?$Parameter@V?$basic_string@DU?$char_traits@D@std@@V?$allocator@D@2@@std@@@karto@@PEAD@Z
	??$factory@V?$Parameter@V?$basic_string@DU?$char_traits@D@std@@V?$allocator@D@2@@std@@@karto@@$0A@@serialization@boost@@YAPEAV?$Parameter@V?$basic_string@DU?$char_traits@D@std@@V?$allocator@D@2@@std@@@karto@@PEAD@Z
	??$factory@V?$map@HPEAVObject@karto@@U?$less@H@std@@V?$allocator@U?$pair@$$CBHPEAVObject@karto@@@std@@@4@@std@@$00@serialization@boost@@YAPEAV?$map@HPEAVObject@karto@@U?$less@H@std@@V?$allocator@U?$pair@$$CBHPEAVObject@karto@@@std@@@4@@std@@PEAD@Z
	??$factory@V?$map@HPEAVObject@karto@@U?$less@H@std@@V?$allocator@U?$pair@$$CBHPEAVObject@karto@@@std@@@4@@std@@$01@serialization@boost@@YAPEAV?$map@HPEAVObject@karto@@U?$less@H@std@@V?$allocator@U?$pair@$$CBHPEAVObject@karto@@@std@@@4@@std@@PEAD@Z
	??$factory@V?$map@HPEAVObject@karto@@U?$less@H@std@@V?$allocator@U?$pair@$$CBHPEAVObject@karto@@@std@@@4@@std@@$02@serialization@boost@@YAPEAV?$map@HPEAVObject@karto@@U?$less@H@std@@V?$allocator@U?$pair@$$CBHPEAVObject@karto@@@std@@@4@@std@@PEAD@Z
	??$factory@V?$map@HPEAVObject@karto@@U?$less@H@std@@V?$allocator@U?$pair@$$CBHPEAVObject@karto@@@std@@@4@@std@@$03@serialization@boost@@YAPEAV?$map@HPEAVObject@karto@@U?$less@H@std@@V?$allocator@U?$pair@$$CBHPEAVObject@karto@@@std@@@4@@std@@PEAD@Z
	??$factory@V?$map@HPEAVObject@karto@@U?$less@H@std@@V?$allocator@U?$pair@$$CBHPEAVObject@karto@@@std@@@4@@std@@$0A@@serialization@boost@@YAPEAV?$map@HPEAVObject@karto@@U?$less@H@std@@V?$allocator@U?$pair@$$CBHPEAVObject@karto@@@std@@@4@@std@@PEAD@Z
	??$factory@V?$map@V?$basic_string@DU?$char_traits@D@std@@V?$allocator@D@2@@std@@PEAVAbstractParameter@karto@@U?$less@V?$basic_string@DU?$char_traits@D@std@@V?$allocator@D@2@@std@@@2@V?$allocator@U?$pair@$$CBV?$basic_string@DU?$char_traits@D@std@@V?$allocator@D@2@@std@@PEAVAbstractParameter@karto@@@std@@@2@@std@@$00@serialization@boost@@YAPEAV?$map@V?$basic_string@DU?$char_traits@D@std@@V?$allocator@D@2@@std@@PEAVAbstractParameter@karto@@U?$less@V?$basic_string@DU?$char_traits@D@std@@V?$allocator@D@2@@std@@@2@V?$allocator@U?$pair@$$CBV?$basic_string@DU?$char_traits@D@std@@V?$allocator@D@2@@std@@PEAVAbstractParameter@karto@@@std@@@2@@std@@PEAD@Z
	??$factory@V?$map@V?$basic_string@DU?$char_traits@D@std@@V?$allocator@D@2@@std@@PEAVAbstractParameter@karto@@U?$less@V?$basic_string@DU?$char_traits@D@std@@V?$allocator@D@2@@std@@@2@V?$allocator@U?$pair@$$CBV?$basic_string@DU?$char_traits@D@std@@V?$allocator@D@2@@std@@PEAVAbstractParameter@karto@@@std@@@2@@std@@$01@serialization@boost@@YAPEAV?$map@V?$basic_string@DU?$char_traits@D@std@@V?$allocator@D@2@@std@@PEAVAbstractParameter@karto@@U?$less@V?$basic_string@DU?$char_traits@D@std@@V?$allocator@D@2@@std@@@2@V?$allocator@U?$pair@$$CBV?$basic_string@DU?$char_traits@D@std@@V?$allocator@D@2@@std@@PEAVAbstractParameter@karto@@@std@@@2@@std@@PEAD@Z
	??$factory@V?$map@V?$basic_string@DU?$char_traits@D@std@@V?$allocator@D@2@@std@@PEAVAbstractParameter@karto@@U?$less@V?$basic_string@DU?$char_traits@D@std@@V?$allocator@D@2@@std@@@2@V?$allocator@U?$pair@$$CBV?$basic_string@DU?$char_traits@D@std@@V?$allocator@D@2@@std@@PEAVAbstractParameter@karto@@@std@@@2@@std@@$02@serialization@boost@@YAPEAV?$map@V?$basic_string@DU?$char_traits@D@std@@V?$allocator@D@2@@std@@PEAVAbstractParameter@karto@@U?$less@V?$basic_string@DU?$char_traits@D@std@@V?$allocator@D@2@@std@@@2@V?$allocator@U?$pair@$$CBV?$basic_string@DU?$char_traits@D@std@@V?$allocator@D@2@@std@@PEAVAbstractParameter@karto@@@std@@@2@@std@@PEAD@Z
	??$factory@V?$map@V?$basic_string@DU?$char_traits@D@std@@V?$allocator@D@2@@std@@PEAVAbstractParameter@karto@@U?$less@V?$basic_string@DU?$char_traits@D@std@@V?$allocator@D@2@@std@@@2@V?$allocator@U?$pair@$$CBV?$basic_string@DU?$char_traits@D@std@@V?$allocator@D@2@@std@@PEAVAbstractParameter@karto@@@std@@@2@@std@@$03@serialization@boost@@YAPEAV?$map@V?$basic_string@DU?$char_traits@D@std@@V?$allocator@D@2@@std@@PEAVAbstractParameter@karto@@U?$less@V?$basic_string@DU?$char_traits@D@std@@V?$allocator@D@2@@std@@@2@V?$allocator@U?$pair@$$CBV?$basic_string@DU?$char_traits@D@std@@V?$allocator@D@2@@std@@PEAVAbstractParameter@karto@@@std@@@2@@std@@PEAD@Z
	??$factory@V?$map@V?$basic_string@DU?$char_traits@D@std@@V?$allocator@D@2@@std@@PEAVAbstractParameter@karto@@U?$less@V?$basic_string@DU?$char_traits@D@std@@V?$allocator@D@2@@std@@@2@V?$allocator@U?$pair@$$CBV?$basic_string@DU?$char_traits@D@std@@V?$allocator@D@2@@std@@PEAVAbstractParameter@karto@@@std@@@2@@std@@$0A@@serialization@boost@@YAPEAV?$map@V?$basic_string@DU?$char_traits@D@std@@V?$allocator@D@2@@std@@PEAVAbstractParameter@karto@@U?$less@V?$basic_string@DU?$char_traits@D@std@@V?$allocator@D@2@@std@@@2@V?$allocator@U?$pair@$$CBV?$basic_string@DU?$char_traits@D@std@@V?$allocator@D@2@@std@@PEAVAbstractParameter@karto@@@std@@@2@@std@@PEAD@Z
	??$factory@V?$map@VName@karto@@PEAVSensor@2@U?$less@VName@karto@@@std@@V?$allocator@U?$pair@$$CBVName@karto@@PEAVSensor@2@@std@@@5@@std@@$00@serialization@boost@@YAPEAV?$map@VName@karto@@PEAVSensor@2@U?$less@VName@karto@@@std@@V?$allocator@U?$pair@$$CBVName@karto@@PEAVSensor@2@@std@@@5@@std@@PEAD@Z
	??$factory@V?$map@VName@karto@@PEAVSensor@2@U?$less@VName@karto@@@std@@V?$allocator@U?$pair@$$CBVName@karto@@PEAVSensor@2@@std@@@5@@std@@$01@serialization@boost@@YAPEAV?$map@VName@karto@@PEAVSensor@2@U?$less@VName@karto@@@std@@V?$allocator@U?$pair@$$CBVName@karto@@PEAVSensor@2@@std@@@5@@std@@PEAD@Z
	??$factory@V?$map@VName@karto@@PEAVSensor@2@U?$less@VName@karto@@@std@@V?$allocator@U?$pair@$$CBVName@karto@@PEAVSensor@2@@std@@@5@@std@@$02@serialization@boost@@YAPEAV?$map@VName@karto@@PEAVSensor@2@U?$less@VName@karto@@@std@@V?$allocator@U?$pair@$$CBVName@karto@@PEAVSensor@2@@std@@@5@@std@@PEAD@Z
	??$factory@V?$map@VName@karto@@PEAVSensor@2@U?$less@VName@karto@@@std@@V?$allocator@U?$pair@$$CBVName@karto@@PEAVSensor@2@@std@@@5@@std@@$03@serialization@boost@@YAPEAV?$map@VName@karto@@PEAVSensor@2@U?$less@VName@karto@@@std@@V?$allocator@U?$pair@$$CBVName@karto@@PEAVSensor@2@@std@@@5@@std@@PEAD@Z
	??$factory@V?$map@VName@karto@@PEAVSensor@2@U?$less@VName@karto@@@std@@V?$allocator@U?$pair@$$CBVName@karto@@PEAVSensor@2@@std@@@5@@std@@$0A@@serialization@boost@@YAPEAV?$map@VName@karto@@PEAVSensor@2@U?$less@VName@karto@@@std@@V?$allocator@U?$pair@$$CBVName@karto@@PEAVSensor@2@@std@@@5@@std@@PEAD@Z
	??$factory@V?$vector@PEAVAbstractParameter@karto@@V?$allocator@PEAVAbstractParameter@karto@@@std@@@std@@$00@serialization@boost@@YAPEAV?$vector@PEAVAbstractParameter@karto@@V?$allocator@PEAVAbstractParameter@karto@@@std@@@std@@PEAD@Z
	??$factory@V?$vector@PEAVAbstractParameter@karto@@V?$allocator@PEAVAbstractParameter@karto@@@std@@@std@@$01@serialization@boost@@YAPEAV?$vector@PEAVAbstractParameter@karto@@V?$allocator@PEAVAbstractParameter@karto@@@std@@@std@@PEAD@Z
	??$factory@V?$vector@PEAVAbstractParameter@karto@@V?$allocator@PEAVAbstractParameter@karto@@@std@@@std@@$02@serialization@boost@@YAPEAV?$vector@PEAVAbstractParameter@karto@@V?$allocator@PEAVAbstractParameter@karto@@@std@@@std@@PEAD@Z
	??$factory@V?$vector@PEAVAbstractParameter@karto@@V?$allocator@PEAVAbstractParameter@karto@@@std@@@std@@$03@serialization@boost@@YAPEAV?$vector@PEAVAbstractParameter@karto@@V?$allocator@PEAVAbstractParameter@karto@@@std@@@std@@PEAD@Z
	??$factory@V?$vector@PEAVAbstractParameter@karto@@V?$allocator@PEAVAbstractParameter@karto@@@std@@@std@@$0A@@serialization@boost@@YAPEAV?$vector@PEAVAbstractParameter@karto@@V?$allocator@PEAVAbstractParameter@karto@@@std@@@std@@PEAD@Z
	??$factory@V?$vector@PEAVObject@karto@@V?$allocator@PEAVObject@karto@@@std@@@std@@$00@serialization@boost@@YAPEAV?$vector@PEAVObject@karto@@V?$allocator@PEAVObject@karto@@@std@@@std@@PEAD@Z
	??$factory@V?$vector@PEAVObject@karto@@V?$allocator@PEAVObject@karto@@@std@@@std@@$01@serialization@boost@@YAPEAV?$vector@PEAVObject@karto@@V?$allocator@PEAVObject@karto@@@std@@@std@@PEAD@Z
	??$factory@V?$vector@PEAVObject@karto@@V?$allocator@PEAVObject@karto@@@std@@@std@@$02@serialization@boost@@YAPEAV?$vector@PEAVObject@karto@@V?$allocator@PEAVObject@karto@@@std@@@std@@PEAD@Z
	??$factory@V?$vector@PEAVObject@karto@@V?$allocator@PEAVObject@karto@@@std@@@std@@$03@serialization@boost@@YAPEAV?$vector@PEAVObject@karto@@V?$allocator@PEAVObject@karto@@@std@@@std@@PEAD@Z
	??$factory@V?$vector@PEAVObject@karto@@V?$allocator@PEAVObject@karto@@@std@@@std@@$0A@@serialization@boost@@YAPEAV?$vector@PEAVObject@karto@@V?$allocator@PEAVObject@karto@@@std@@@std@@PEAD@Z
	??$factory@VAbstractParameter@karto@@$00@serialization@boost@@YAPEAVAbstractParameter@karto@@PEAD@Z
	??$factory@VAbstractParameter@karto@@$01@serialization@boost@@YAPEAVAbstractParameter@karto@@PEAD@Z
	??$factory@VAbstractParameter@karto@@$02@serialization@boost@@YAPEAVAbstractParameter@karto@@PEAD@Z
	??$factory@VAbstractParameter@karto@@$03@serialization@boost@@YAPEAVAbstractParameter@karto@@PEAD@Z
	??$factory@VAbstractParameter@karto@@$0A@@serialization@boost@@YAPEAVAbstractParameter@karto@@PEAD@Z
	??$factory@VDataset@karto@@$00@serialization@boost@@YAPEAVDataset@karto@@PEAD@Z
	??$factory@VDataset@karto@@$01@serialization@boost@@YAPEAVDataset@karto@@PEAD@Z
	??$factory@VDataset@karto@@$02@serialization@boost@@YAPEAVDataset@karto@@PEAD@Z
	??$factory@VDataset@karto@@$03@serialization@boost@@YAPEAVDataset@karto@@PEAD@Z
	??$factory@VDataset@karto@@$0A@@serialization@boost@@YAPEAVDataset@karto@@PEAD@Z
	??$factory@VDatasetInfo@karto@@$00@serialization@boost@@YAPEAVDatasetInfo@karto@@PEAD@Z
	??$factory@VDatasetInfo@karto@@$01@serialization@boost@@YAPEAVDatasetInfo@karto@@PEAD@Z
	??$factory@VDatasetInfo@karto@@$02@serialization@boost@@YAPEAVDatasetInfo@karto@@PEAD@Z
	??$factory@VDatasetInfo@karto@@$03@serialization@boost@@YAPEAVDatasetInfo@karto@@PEAD@Z
	??$factory@VDatasetInfo@karto@@$0A@@serialization@boost@@YAPEAVDatasetInfo@karto@@PEAD@Z
	??$factory@VName@karto@@$00@serialization@boost@@YAPEAVName@karto@@PEAD@Z
	??$factory@VName@karto@@$01@serialization@boost@@YAPEAVName@karto@@PEAD@Z
	??$factory@VName@karto@@$02@serialization@boost@@YAPEAVName@karto@@PEAD@Z
	??$factory@VName@karto@@$03@serialization@boost@@YAPEAVName@karto@@PEAD@Z
	??$factory@VName@karto@@$0A@@serialization@boost@@YAPEAVName@karto@@PEAD@Z
	??$factory@VNonCopyable@karto@@$00@serialization@boost@@YAPEAVNonCopyable@karto@@PEAD@Z
	??$factory@VNonCopyable@karto@@$01@serialization@boost@@YAPEAVNonCopyable@karto@@PEAD@Z
	??$factory@VNonCopyable@karto@@$02@serialization@boost@@YAPEAVNonCopyable@karto@@PEAD@Z
	??$factory@VNonCopyable@karto@@$03@serialization@boost@@YAPEAVNonCopyable@karto@@PEAD@Z
	??$factory@VNonCopyable@karto@@$0A@@serialization@boost@@YAPEAVNonCopyable@karto@@PEAD@Z
	??$factory@VObject@karto@@$00@serialization@boost@@YAPEAVObject@karto@@PEAD@Z
	??$factory@VObject@karto@@$01@serialization@boost@@YAPEAVObject@karto@@PEAD@Z
	??$factory@VObject@karto@@$02@serialization@boost@@YAPEAVObject@karto@@PEAD@Z
	??$factory@VObject@karto@@$03@serialization@boost@@YAPEAVObject@karto@@PEAD@Z
	??$factory@VObject@karto@@$0A@@serialization@boost@@YAPEAVObject@karto@@PEAD@Z
	??$factory@VParameterManager@karto@@$00@serialization@boost@@YAPEAVParameterManager@karto@@PEAD@Z
	??$factory@VParameterManager@karto@@$01@serialization@boost@@YAPEAVParameterManager@karto@@PEAD@Z
	??$factory@VParameterManager@karto@@$02@serialization@boost@@YAPEAVParameterManager@karto@@PEAD@Z
	??$factory@VParameterManager@karto@@$03@serialization@boost@@YAPEAVParameterManager@karto@@PEAD@Z
	??$factory@VParameterManager@karto@@$0A@@serialization@boost@@YAPEAVParameterManager@karto@@PEAD@Z
	??$factory@VSensor@karto@@$00@serialization@boost@@YAPEAVSensor@karto@@PEAD@Z
	??$factory@VSensor@karto@@$01@serialization@boost@@YAPEAVSensor@karto@@PEAD@Z
	??$factory@VSensor@karto@@$02@serialization@boost@@YAPEAVSensor@karto@@PEAD@Z
	??$factory@VSensor@karto@@$03@serialization@boost@@YAPEAVSensor@karto@@PEAD@Z
	??$factory@VSensor@karto@@$0A@@serialization@boost@@YAPEAVSensor@karto@@PEAD@Z
	??$fill@PEAV?$_List_unchecked_iterator@V?$_List_val@U?$_List_simple_types@U?$pair@$$CBVtype_index@std@@V?$shared_ptr@X@2@@std@@@std@@@std@@@std@@V12@@std@@YAXQEAV?$_List_unchecked_iterator@V?$_List_val@U?$_List_simple_types@U?$pair@$$CBVtype_index@std@@V?$shared_ptr@X@2@@std@@@std@@@std@@@0@0AEBV10@@Z
	??$fill@PEAV?$_List_unchecked_iterator@V?$_List_val@U?$_List_simple_types@U?$pair@QEAVQOSEventHandlerBase@rclcpp@@U?$atomic@_N@std@@@std@@@std@@@std@@@std@@V12@@std@@YAXQEAV?$_List_unchecked_iterator@V?$_List_val@U?$_List_simple_types@U?$pair@QEAVQOSEventHandlerBase@rclcpp@@U?$atomic@_N@std@@@std@@@std@@@std@@@0@0AEBV10@@Z
	??$find@X@?$_Hash@V?$_Umap_traits@_KUSplittedSubscriptions@IntraProcessManager@experimental@rclcpp@@V?$_Uhash_compare@_KU?$hash@_K@std@@U?$equal_to@_K@2@@std@@V?$allocator@U?$pair@$$CB_KUSplittedSubscriptions@IntraProcessManager@experimental@rclcpp@@@std@@@6@$0A@@std@@@std@@QEAA?AV?$_List_iterator@V?$_List_val@U?$_List_simple_types@U?$pair@$$CB_KUSplittedSubscriptions@IntraProcessManager@experimental@rclcpp@@@std@@@std@@@std@@@1@AEB_K@Z
	??$getYaw@U?$Quaternion_@V?$allocator@X@std@@@msg@geometry_msgs@@@tf2@@YANAEBU?$Quaternion_@V?$allocator@X@std@@@msg@geometry_msgs@@@Z
	??$get_node_topics_interface_from_pointer@PEAVNode@rclcpp@@$0A@@detail@node_interfaces@rclcpp@@YA?AV?$shared_ptr@VNodeTopicsInterface@node_interfaces@rclcpp@@@std@@PEAVNode@2@@Z
	??$get_rcl_allocator@DV?$allocator@D@std@@$0A@@allocator@rclcpp@@YA?AUrcutils_allocator_t@@AEAV?$allocator@D@std@@@Z
	??$get_rcl_allocator@U?$MetricsMessage_@V?$allocator@X@std@@@msg@statistics_msgs@@V?$allocator@U?$MetricsMessage_@V?$allocator@X@std@@@msg@statistics_msgs@@@std@@$0A@@allocator@rclcpp@@YA?AUrcutils_allocator_t@@AEAV?$allocator@U?$MetricsMessage_@V?$allocator@X@std@@@msg@statistics_msgs@@@std@@@Z
	??$get_rcl_allocator@U?$PoseWithCovarianceStamped_@V?$allocator@X@std@@@msg@geometry_msgs@@V?$allocator@U?$PoseWithCovarianceStamped_@V?$allocator@X@std@@@msg@geometry_msgs@@@std@@$0A@@allocator@rclcpp@@YA?AUrcutils_allocator_t@@AEAV?$allocator@U?$PoseWithCovarianceStamped_@V?$allocator@X@std@@@msg@geometry_msgs@@@std@@@Z
	??$get_static_exception_object@Ubad_alloc_@exception_detail@boost@@@exception_detail@boost@@YA?AVexception_ptr@1@XZ
	??$get_static_exception_object@Ubad_exception_@exception_detail@boost@@@exception_detail@boost@@YA?AVexception_ptr@1@XZ
	??$get_sub_context@VIntraProcessManager@experimental@rclcpp@@$$V@Context@rclcpp@@QEAA?AV?$shared_ptr@VIntraProcessManager@experimental@rclcpp@@@std@@XZ
	??$load@Vbinary_iarchive@archive@boost@@H@serialization@boost@@YAXAEAVbinary_iarchive@archive@1@AEAV?$nvp@H@01@I@Z
	??$load@Vbinary_iarchive@archive@boost@@PEAVAbstractParameter@karto@@@serialization@boost@@YAXAEAVbinary_iarchive@archive@1@AEAV?$nvp@PEAVAbstractParameter@karto@@@01@I@Z
	??$load@Vbinary_iarchive@archive@boost@@PEAVDatasetInfo@karto@@@serialization@boost@@YAXAEAVbinary_iarchive@archive@1@AEAV?$nvp@PEAVDatasetInfo@karto@@@01@I@Z
	??$load@Vbinary_iarchive@archive@boost@@PEAVObject@karto@@@serialization@boost@@YAXAEAVbinary_iarchive@archive@1@AEAV?$nvp@PEAVObject@karto@@@01@I@Z
	??$load@Vbinary_iarchive@archive@boost@@PEAVParameterManager@karto@@@serialization@boost@@YAXAEAVbinary_iarchive@archive@1@AEAV?$nvp@PEAVParameterManager@karto@@@01@I@Z
	??$load@Vbinary_iarchive@archive@boost@@PEAVSensor@karto@@@serialization@boost@@YAXAEAVbinary_iarchive@archive@1@AEAV?$nvp@PEAVSensor@karto@@@01@I@Z
	??$load@Vbinary_iarchive@archive@boost@@U?$pair@$$CBHPEAVObject@karto@@@std@@@serialization@boost@@YAXAEAVbinary_iarchive@archive@1@AEAV?$nvp@U?$pair@$$CBHPEAVObject@karto@@@std@@@01@I@Z
	??$load@Vbinary_iarchive@archive@boost@@U?$pair@$$CBV?$basic_string@DU?$char_traits@D@std@@V?$allocator@D@2@@std@@PEAVAbstractParameter@karto@@@std@@@serialization@boost@@YAXAEAVbinary_iarchive@archive@1@AEAV?$nvp@U?$pair@$$CBV?$basic_string@DU?$char_traits@D@std@@V?$allocator@D@2@@std@@PEAVAbstractParameter@karto@@@std@@@01@I@Z
	??$load@Vbinary_iarchive@archive@boost@@U?$pair@$$CBVName@karto@@PEAVSensor@2@@std@@@serialization@boost@@YAXAEAVbinary_iarchive@archive@1@AEAV?$nvp@U?$pair@$$CBVName@karto@@PEAVSensor@2@@std@@@01@I@Z
	??$load@Vbinary_iarchive@archive@boost@@V?$Parameter@V?$basic_string@DU?$char_traits@D@std@@V?$allocator@D@2@@std@@@karto@@@serialization@boost@@YAXAEAVbinary_iarchive@archive@1@AEAV?$nvp@V?$Parameter@V?$basic_string@DU?$char_traits@D@std@@V?$allocator@D@2@@std@@@karto@@@01@I@Z
	??$load@Vbinary_iarchive@archive@boost@@V?$basic_string@DU?$char_traits@D@std@@V?$allocator@D@2@@std@@@serialization@boost@@YAXAEAVbinary_iarchive@archive@1@AEAV?$nvp@V?$basic_string@DU?$char_traits@D@std@@V?$allocator@D@2@@std@@@01@I@Z
	??$load@Vbinary_iarchive@archive@boost@@V?$map@HPEAVObject@karto@@U?$less@H@std@@V?$allocator@U?$pair@$$CBHPEAVObject@karto@@@std@@@4@@std@@@serialization@boost@@YAXAEAVbinary_iarchive@archive@1@AEAV?$nvp@V?$map@HPEAVObject@karto@@U?$less@H@std@@V?$allocator@U?$pair@$$CBHPEAVObject@karto@@@std@@@4@@std@@@01@I@Z
	??$load@Vbinary_iarchive@archive@boost@@V?$map@V?$basic_string@DU?$char_traits@D@std@@V?$allocator@D@2@@std@@PEAVAbstractParameter@karto@@U?$less@V?$basic_string@DU?$char_traits@D@std@@V?$allocator@D@2@@std@@@2@V?$allocator@U?$pair@$$CBV?$basic_string@DU?$char_traits@D@std@@V?$allocator@D@2@@std@@PEAVAbstractParameter@karto@@@std@@@2@@std@@@serialization@boost@@YAXAEAVbinary_iarchive@archive@1@AEAV?$nvp@V?$map@V?$basic_string@DU?$char_traits@D@std@@V?$allocator@D@2@@std@@PEAVAbstractParameter@karto@@U?$less@V?$basic_string@DU?$char_traits@D@std@@V?$allocator@D@2@@std@@@2@V?$allocator@U?$pair@$$CBV?$basic_string@DU?$char_traits@D@std@@V?$allocator@D@2@@std@@PEAVAbstractParameter@karto@@@std@@@2@@std@@@01@I@Z
	??$load@Vbinary_iarchive@archive@boost@@V?$map@VName@karto@@PEAVSensor@2@U?$less@VName@karto@@@std@@V?$allocator@U?$pair@$$CBVName@karto@@PEAVSensor@2@@std@@@5@@std@@@serialization@boost@@YAXAEAVbinary_iarchive@archive@1@AEAV?$nvp@V?$map@VName@karto@@PEAVSensor@2@U?$less@VName@karto@@@std@@V?$allocator@U?$pair@$$CBVName@karto@@PEAVSensor@2@@std@@@5@@std@@@01@I@Z
	??$load@Vbinary_iarchive@archive@boost@@V?$vector@PEAVAbstractParameter@karto@@V?$allocator@PEAVAbstractParameter@karto@@@std@@@std@@@serialization@boost@@YAXAEAVbinary_iarchive@archive@1@AEAV?$nvp@V?$vector@PEAVAbstractParameter@karto@@V?$allocator@PEAVAbstractParameter@karto@@@std@@@std@@@01@I@Z
	??$load@Vbinary_iarchive@archive@boost@@V?$vector@PEAVObject@karto@@V?$allocator@PEAVObject@karto@@@std@@@std@@@serialization@boost@@YAXAEAVbinary_iarchive@archive@1@AEAV?$nvp@V?$vector@PEAVObject@karto@@V?$allocator@PEAVObject@karto@@@std@@@std@@@01@I@Z
	??$load@Vbinary_iarchive@archive@boost@@VAbstractParameter@karto@@@serialization@boost@@YAXAEAVbinary_iarchive@archive@1@AEAV?$nvp@VAbstractParameter@karto@@@01@I@Z
	??$load@Vbinary_iarchive@archive@boost@@VDatasetInfo@karto@@@serialization@boost@@YAXAEAVbinary_iarchive@archive@1@AEAV?$nvp@VDatasetInfo@karto@@@01@I@Z
	??$load@Vbinary_iarchive@archive@boost@@VName@karto@@@serialization@boost@@YAXAEAVbinary_iarchive@archive@1@AEAV?$nvp@VName@karto@@@01@I@Z
	??$load@Vbinary_iarchive@archive@boost@@VNonCopyable@karto@@@serialization@boost@@YAXAEAVbinary_iarchive@archive@1@AEAV?$nvp@VNonCopyable@karto@@@01@I@Z
	??$load@Vbinary_iarchive@archive@boost@@VObject@karto@@@serialization@boost@@YAXAEAVbinary_iarchive@archive@1@AEAV?$nvp@VObject@karto@@@01@I@Z
	??$load@Vbinary_iarchive@archive@boost@@VParameterManager@karto@@@serialization@boost@@YAXAEAVbinary_iarchive@archive@1@AEAV?$nvp@VParameterManager@karto@@@01@I@Z
	??$load@Vbinary_iarchive@archive@boost@@Vcollection_size_type@serialization@3@@serialization@boost@@YAXAEAVbinary_iarchive@archive@1@AEAV?$nvp@Vcollection_size_type@serialization@boost@@@01@I@Z
	??$load@Vbinary_iarchive@archive@boost@@Vitem_version_type@serialization@3@@serialization@boost@@YAXAEAVbinary_iarchive@archive@1@AEAV?$nvp@Vitem_version_type@serialization@boost@@@01@I@Z
	??$load_map_collection@Vbinary_iarchive@archive@boost@@V?$map@HPEAVObject@karto@@U?$less@H@std@@V?$allocator@U?$pair@$$CBHPEAVObject@karto@@@std@@@4@@std@@@serialization@boost@@YAXAEAVbinary_iarchive@archive@1@AEAV?$map@HPEAVObject@karto@@U?$less@H@std@@V?$allocator@U?$pair@$$CBHPEAVObject@karto@@@std@@@4@@std@@@Z
	??$load_map_collection@Vbinary_iarchive@archive@boost@@V?$map@V?$basic_string@DU?$char_traits@D@std@@V?$allocator@D@2@@std@@PEAVAbstractParameter@karto@@U?$less@V?$basic_string@DU?$char_traits@D@std@@V?$allocator@D@2@@std@@@2@V?$allocator@U?$pair@$$CBV?$basic_string@DU?$char_traits@D@std@@V?$allocator@D@2@@std@@PEAVAbstractParameter@karto@@@std@@@2@@std@@@serialization@boost@@YAXAEAVbinary_iarchive@archive@1@AEAV?$map@V?$basic_string@DU?$char_traits@D@std@@V?$allocator@D@2@@std@@PEAVAbstractParameter@karto@@U?$less@V?$basic_string@DU?$char_traits@D@std@@V?$allocator@D@2@@std@@@2@V?$allocator@U?$pair@$$CBV?$basic_string@DU?$char_traits@D@std@@V?$allocator@D@2@@std@@PEAVAbstractParameter@karto@@@std@@@2@@std@@@Z
	??$load_map_collection@Vbinary_iarchive@archive@boost@@V?$map@VName@karto@@PEAVSensor@2@U?$less@VName@karto@@@std@@V?$allocator@U?$pair@$$CBVName@karto@@PEAVSensor@2@@std@@@5@@std@@@serialization@boost@@YAXAEAVbinary_iarchive@archive@1@AEAV?$map@VName@karto@@PEAVSensor@2@U?$less@VName@karto@@@std@@V?$allocator@U?$pair@$$CBVName@karto@@PEAVSensor@2@@std@@@5@@std@@@Z
	??$make_shared@Urmw_request_id_t@@$$V@std@@YA?AV?$shared_ptr@Urmw_request_id_t@@@0@XZ
	??$make_shared@V?$Subscription@U?$PoseWithCovarianceStamped_@V?$allocator@X@std@@@msg@geometry_msgs@@V?$allocator@X@std@@V?$MessageMemoryStrategy@U?$PoseWithCovarianceStamped_@V?$allocator@X@std@@@msg@geometry_msgs@@V?$allocator@X@std@@@message_memory_strategy@rclcpp@@@rclcpp@@AEAPEAVNodeBaseInterface@node_interfaces@2@AEBUrosidl_message_type_support_t@@AEBV?$basic_string@DU?$char_traits@D@std@@V?$allocator@D@2@@std@@AEBVQoS@2@AEBV?$AnySubscriptionCallback@U?$PoseWithCovarianceStamped_@V?$allocator@X@std@@@msg@geometry_msgs@@V?$allocator@X@std@@@2@AEBU?$SubscriptionOptionsWithAllocator@V?$allocator@X@std@@@2@AEBV?$shared_ptr@V?$MessageMemoryStrategy@U?$PoseWithCovarianceStamped_@V?$allocator@X@std@@@msg@geometry_msgs@@V?$allocator@X@std@@@message_memory_strategy@rclcpp@@@7@AEBV?$shared_ptr@V?$SubscriptionTopicStatistics@U?$PoseWithCovarianceStamped_@V?$allocator@X@std@@@msg@geometry_msgs@@@topic_statistics@rclcpp@@@7@@std@@YA?AV?$shared_ptr@V?$Subscription@U?$PoseWithCovarianceStamped_@V?$allocator@X@std@@@msg@geometry_msgs@@V?$allocator@X@std@@V?$MessageMemoryStrategy@U?$PoseWithCovarianceStamped_@V?$allocator@X@std@@@msg@geometry_msgs@@V?$allocator@X@std@@@message_memory_strategy@rclcpp@@@rclcpp@@@0@AEAPEAVNodeBaseInterface@node_interfaces@rclcpp@@AEBUrosidl_message_type_support_t@@AEBV?$basic_string@DU?$char_traits@D@std@@V?$allocator@D@2@@0@AEBVQoS@4@AEBV?$AnySubscriptionCallback@U?$PoseWithCovarianceStamped_@V?$allocator@X@std@@@msg@geometry_msgs@@V?$allocator@X@std@@@4@AEBU?$SubscriptionOptionsWithAllocator@V?$allocator@X@std@@@4@AEBV?$shared_ptr@V?$MessageMemoryStrategy@U?$PoseWithCovarianceStamped_@V?$allocator@X@std@@@msg@geometry_msgs@@V?$allocator@X@std@@@message_memory_strategy@rclcpp@@@0@AEBV?$shared_ptr@V?$SubscriptionTopicStatistics@U?$PoseWithCovarianceStamped_@V?$allocator@X@std@@@msg@geometry_msgs@@@topic_statistics@rclcpp@@@0@@Z
	??$make_shared@V?$SubscriptionIntraProcess@U?$PoseWithCovarianceStamped_@V?$allocator@X@std@@@msg@geometry_msgs@@V?$allocator@X@std@@U?$default_delete@U?$PoseWithCovarianceStamped_@V?$allocator@X@std@@@msg@geometry_msgs@@@5@U123@@experimental@rclcpp@@AEAV?$AnySubscriptionCallback@U?$PoseWithCovarianceStamped_@V?$allocator@X@std@@@msg@geometry_msgs@@V?$allocator@X@std@@@3@V?$shared_ptr@V?$allocator@X@std@@@std@@AEAV?$shared_ptr@VContext@rclcpp@@@6@PEBDAEAUrmw_qos_profile_t@@W4IntraProcessBufferType@3@@std@@YA?AV?$shared_ptr@V?$SubscriptionIntraProcess@U?$PoseWithCovarianceStamped_@V?$allocator@X@std@@@msg@geometry_msgs@@V?$allocator@X@std@@U?$default_delete@U?$PoseWithCovarianceStamped_@V?$allocator@X@std@@@msg@geometry_msgs@@@5@U123@@experimental@rclcpp@@@0@AEAV?$AnySubscriptionCallback@U?$PoseWithCovarianceStamped_@V?$allocator@X@std@@@msg@geometry_msgs@@V?$allocator@X@std@@@rclcpp@@$$QEAV?$shared_ptr@V?$allocator@X@std@@@0@AEAV?$shared_ptr@VContext@rclcpp@@@0@$$QEAPEBDAEAUrmw_qos_profile_t@@$$QEAW4IntraProcessBufferType@3@@Z
	??$make_shared@VSerializedMessage@rclcpp@@AEA_K@std@@YA?AV?$shared_ptr@VSerializedMessage@rclcpp@@@0@AEA_K@Z
	??$make_unique@V?$ReceivedMessageAgeCollector@U?$PoseWithCovarianceStamped_@V?$allocator@X@std@@@msg@geometry_msgs@@@topic_statistics_collector@libstatistics_collector@@$$V$0A@@std@@YA?AV?$unique_ptr@V?$ReceivedMessageAgeCollector@U?$PoseWithCovarianceStamped_@V?$allocator@X@std@@@msg@geometry_msgs@@@topic_statistics_collector@libstatistics_collector@@U?$default_delete@V?$ReceivedMessageAgeCollector@U?$PoseWithCovarianceStamped_@V?$allocator@X@std@@@msg@geometry_msgs@@@topic_statistics_collector@libstatistics_collector@@@std@@@0@XZ
	??$make_unique@V?$ReceivedMessagePeriodCollector@U?$PoseWithCovarianceStamped_@V?$allocator@X@std@@@msg@geometry_msgs@@@topic_statistics_collector@libstatistics_collector@@$$V$0A@@std@@YA?AV?$unique_ptr@V?$ReceivedMessagePeriodCollector@U?$PoseWithCovarianceStamped_@V?$allocator@X@std@@@msg@geometry_msgs@@@topic_statistics_collector@libstatistics_collector@@U?$default_delete@V?$ReceivedMessagePeriodCollector@U?$PoseWithCovarianceStamped_@V?$allocator@X@std@@@msg@geometry_msgs@@@topic_statistics_collector@libstatistics_collector@@@std@@@0@XZ
	??$make_unique@V?$RingBufferImplementation@V?$shared_ptr@$$CBU?$PoseWithCovarianceStamped_@V?$allocator@X@std@@@msg@geometry_msgs@@@std@@@buffers@experimental@rclcpp@@AEA_K$0A@@std@@YA?AV?$unique_ptr@V?$RingBufferImplementation@V?$shared_ptr@$$CBU?$PoseWithCovarianceStamped_@V?$allocator@X@std@@@msg@geometry_msgs@@@std@@@buffers@experimental@rclcpp@@U?$default_delete@V?$RingBufferImplementation@V?$shared_ptr@$$CBU?$PoseWithCovarianceStamped_@V?$allocator@X@std@@@msg@geometry_msgs@@@std@@@buffers@experimental@rclcpp@@@std@@@0@AEA_K@Z
	??$make_unique@V?$RingBufferImplementation@V?$unique_ptr@U?$PoseWithCovarianceStamped_@V?$allocator@X@std@@@msg@geometry_msgs@@U?$default_delete@U?$PoseWithCovarianceStamped_@V?$allocator@X@std@@@msg@geometry_msgs@@@std@@@std@@@buffers@experimental@rclcpp@@AEA_K$0A@@std@@YA?AV?$unique_ptr@V?$RingBufferImplementation@V?$unique_ptr@U?$PoseWithCovarianceStamped_@V?$allocator@X@std@@@msg@geometry_msgs@@U?$default_delete@U?$PoseWithCovarianceStamped_@V?$allocator@X@std@@@msg@geometry_msgs@@@std@@@std@@@buffers@experimental@rclcpp@@U?$default_delete@V?$RingBufferImplementation@V?$unique_ptr@U?$PoseWithCovarianceStamped_@V?$allocator@X@std@@@msg@geometry_msgs@@U?$default_delete@U?$PoseWithCovarianceStamped_@V?$allocator@X@std@@@msg@geometry_msgs@@@std@@@std@@@buffers@experimental@rclcpp@@@std@@@0@AEA_K@Z
	??$make_unique@V?$TypedIntraProcessBuffer@U?$PoseWithCovarianceStamped_@V?$allocator@X@std@@@msg@geometry_msgs@@V?$allocator@X@std@@U?$default_delete@U?$PoseWithCovarianceStamped_@V?$allocator@X@std@@@msg@geometry_msgs@@@5@V?$shared_ptr@$$CBU?$PoseWithCovarianceStamped_@V?$allocator@X@std@@@msg@geometry_msgs@@@5@@buffers@experimental@rclcpp@@V?$unique_ptr@V?$RingBufferImplementation@V?$shared_ptr@$$CBU?$PoseWithCovarianceStamped_@V?$allocator@X@std@@@msg@geometry_msgs@@@std@@@buffers@experimental@rclcpp@@U?$default_delete@V?$RingBufferImplementation@V?$shared_ptr@$$CBU?$PoseWithCovarianceStamped_@V?$allocator@X@std@@@msg@geometry_msgs@@@std@@@buffers@experimental@rclcpp@@@std@@@std@@AEAV?$shared_ptr@V?$allocator@X@std@@@6@$0A@@std@@YA?AV?$unique_ptr@V?$TypedIntraProcessBuffer@U?$PoseWithCovarianceStamped_@V?$allocator@X@std@@@msg@geometry_msgs@@V?$allocator@X@std@@U?$default_delete@U?$PoseWithCovarianceStamped_@V?$allocator@X@std@@@msg@geometry_msgs@@@5@V?$shared_ptr@$$CBU?$PoseWithCovarianceStamped_@V?$allocator@X@std@@@msg@geometry_msgs@@@5@@buffers@experimental@rclcpp@@U?$default_delete@V?$TypedIntraProcessBuffer@U?$PoseWithCovarianceStamped_@V?$allocator@X@std@@@msg@geometry_msgs@@V?$allocator@X@std@@U?$default_delete@U?$PoseWithCovarianceStamped_@V?$allocator@X@std@@@msg@geometry_msgs@@@5@V?$shared_ptr@$$CBU?$PoseWithCovarianceStamped_@V?$allocator@X@std@@@msg@geometry_msgs@@@5@@buffers@experimental@rclcpp@@@std@@@0@$$QEAV?$unique_ptr@V?$RingBufferImplementation@V?$shared_ptr@$$CBU?$PoseWithCovarianceStamped_@V?$allocator@X@std@@@msg@geometry_msgs@@@std@@@buffers@experimental@rclcpp@@U?$default_delete@V?$RingBufferImplementation@V?$shared_ptr@$$CBU?$PoseWithCovarianceStamped_@V?$allocator@X@std@@@msg@geometry_msgs@@@std@@@buffers@experimental@rclcpp@@@std@@@0@AEAV?$shared_ptr@V?$allocator@X@std@@@0@@Z
	??$make_unique@V?$TypedIntraProcessBuffer@U?$PoseWithCovarianceStamped_@V?$allocator@X@std@@@msg@geometry_msgs@@V?$allocator@X@std@@U?$default_delete@U?$PoseWithCovarianceStamped_@V?$allocator@X@std@@@msg@geometry_msgs@@@5@V?$unique_ptr@U?$PoseWithCovarianceStamped_@V?$allocator@X@std@@@msg@geometry_msgs@@U?$default_delete@U?$PoseWithCovarianceStamped_@V?$allocator@X@std@@@msg@geometry_msgs@@@std@@@5@@buffers@experimental@rclcpp@@V?$unique_ptr@V?$RingBufferImplementation@V?$unique_ptr@U?$PoseWithCovarianceStamped_@V?$allocator@X@std@@@msg@geometry_msgs@@U?$default_delete@U?$PoseWithCovarianceStamped_@V?$allocator@X@std@@@msg@geometry_msgs@@@std@@@std@@@buffers@experimental@rclcpp@@U?$default_delete@V?$RingBufferImplementation@V?$unique_ptr@U?$PoseWithCovarianceStamped_@V?$allocator@X@std@@@msg@geometry_msgs@@U?$default_delete@U?$PoseWithCovarianceStamped_@V?$allocator@X@std@@@msg@geometry_msgs@@@std@@@std@@@buffers@experimental@rclcpp@@@std@@@std@@AEAV?$shared_ptr@V?$allocator@X@std@@@6@$0A@@std@@YA?AV?$unique_ptr@V?$TypedIntraProcessBuffer@U?$PoseWithCovarianceStamped_@V?$allocator@X@std@@@msg@geometry_msgs@@V?$allocator@X@std@@U?$default_delete@U?$PoseWithCovarianceStamped_@V?$allocator@X@std@@@msg@geometry_msgs@@@5@V?$unique_ptr@U?$PoseWithCovarianceStamped_@V?$allocator@X@std@@@msg@geometry_msgs@@U?$default_delete@U?$PoseWithCovarianceStamped_@V?$allocator@X@std@@@msg@geometry_msgs@@@std@@@5@@buffers@experimental@rclcpp@@U?$default_delete@V?$TypedIntraProcessBuffer@U?$PoseWithCovarianceStamped_@V?$allocator@X@std@@@msg@geometry_msgs@@V?$allocator@X@std@@U?$default_delete@U?$PoseWithCovarianceStamped_@V?$allocator@X@std@@@msg@geometry_msgs@@@5@V?$unique_ptr@U?$PoseWithCovarianceStamped_@V?$allocator@X@std@@@msg@geometry_msgs@@U?$default_delete@U?$PoseWithCovarianceStamped_@V?$allocator@X@std@@@msg@geometry_msgs@@@std@@@5@@buffers@experimental@rclcpp@@@std@@@0@$$QEAV?$unique_ptr@V?$RingBufferImplementation@V?$unique_ptr@U?$PoseWithCovarianceStamped_@V?$allocator@X@std@@@msg@geometry_msgs@@U?$default_delete@U?$PoseWithCovarianceStamped_@V?$allocator@X@std@@@msg@geometry_msgs@@@std@@@std@@@buffers@experimental@rclcpp@@U?$default_delete@V?$RingBufferImplementation@V?$unique_ptr@U?$PoseWithCovarianceStamped_@V?$allocator@X@std@@@msg@geometry_msgs@@U?$default_delete@U?$PoseWithCovarianceStamped_@V?$allocator@X@std@@@msg@geometry_msgs@@@std@@@std@@@buffers@experimental@rclcpp@@@std@@@0@AEAV?$shared_ptr@V?$allocator@X@std@@@0@@Z
	??$make_unique@VPose2@karto@@AEANAEANN$0A@@std@@YA?AV?$unique_ptr@VPose2@karto@@U?$default_delete@VPose2@karto@@@std@@@0@AEAN0$$QEAN@Z
	??$resolve_enable_topic_statistics@U?$SubscriptionOptionsWithAllocator@V?$allocator@X@std@@@rclcpp@@VNodeBaseInterface@node_interfaces@2@@detail@rclcpp@@YA_NAEBU?$SubscriptionOptionsWithAllocator@V?$allocator@X@std@@@1@AEBVNodeBaseInterface@node_interfaces@1@@Z
	??$resolve_intra_process_buffer_type@U?$PoseWithCovarianceStamped_@V?$allocator@X@std@@@msg@geometry_msgs@@V?$allocator@X@std@@@detail@rclcpp@@YA?AW4IntraProcessBufferType@1@W421@AEBV?$AnySubscriptionCallback@U?$PoseWithCovarianceStamped_@V?$allocator@X@std@@@msg@geometry_msgs@@V?$allocator@X@std@@@1@@Z
	??$resolve_use_intra_process@U?$PublisherOptionsWithAllocator@V?$allocator@X@std@@@rclcpp@@VNodeBaseInterface@node_interfaces@2@@detail@rclcpp@@YA_NAEBU?$PublisherOptionsWithAllocator@V?$allocator@X@std@@@1@AEBVNodeBaseInterface@node_interfaces@1@@Z
	??$resolve_use_intra_process@U?$SubscriptionOptionsWithAllocator@V?$allocator@X@std@@@rclcpp@@VNodeBaseInterface@node_interfaces@2@@detail@rclcpp@@YA_NAEBU?$SubscriptionOptionsWithAllocator@V?$allocator@X@std@@@1@AEBVNodeBaseInterface@node_interfaces@1@@Z
	??$save@Vbinary_oarchive@archive@boost@@$$CBU?$pair@$$CBHPEAVObject@karto@@@std@@@serialization@boost@@YAXAEAVbinary_oarchive@archive@1@AEBV?$nvp@$$CBU?$pair@$$CBHPEAVObject@karto@@@std@@@01@I@Z
	??$save@Vbinary_oarchive@archive@boost@@$$CBU?$pair@$$CBV?$basic_string@DU?$char_traits@D@std@@V?$allocator@D@2@@std@@PEAVAbstractParameter@karto@@@std@@@serialization@boost@@YAXAEAVbinary_oarchive@archive@1@AEBV?$nvp@$$CBU?$pair@$$CBV?$basic_string@DU?$char_traits@D@std@@V?$allocator@D@2@@std@@PEAVAbstractParameter@karto@@@std@@@01@I@Z
	??$save@Vbinary_oarchive@archive@boost@@$$CBU?$pair@$$CBVName@karto@@PEAVSensor@2@@std@@@serialization@boost@@YAXAEAVbinary_oarchive@archive@1@AEBV?$nvp@$$CBU?$pair@$$CBVName@karto@@PEAVSensor@2@@std@@@01@I@Z
	??$save@Vbinary_oarchive@archive@boost@@$$CBVitem_version_type@serialization@3@@serialization@boost@@YAXAEAVbinary_oarchive@archive@1@AEBV?$nvp@$$CBVitem_version_type@serialization@boost@@@01@I@Z
	??$save@Vbinary_oarchive@archive@boost@@H@serialization@boost@@YAXAEAVbinary_oarchive@archive@1@AEBV?$nvp@H@01@I@Z
	??$save@Vbinary_oarchive@archive@boost@@PEAVAbstractParameter@karto@@@serialization@boost@@YAXAEAVbinary_oarchive@archive@1@AEBV?$nvp@PEAVAbstractParameter@karto@@@01@I@Z
	??$save@Vbinary_oarchive@archive@boost@@PEAVDatasetInfo@karto@@@serialization@boost@@YAXAEAVbinary_oarchive@archive@1@AEBV?$nvp@PEAVDatasetInfo@karto@@@01@I@Z
	??$save@Vbinary_oarchive@archive@boost@@PEAVObject@karto@@@serialization@boost@@YAXAEAVbinary_oarchive@archive@1@AEBV?$nvp@PEAVObject@karto@@@01@I@Z
	??$save@Vbinary_oarchive@archive@boost@@PEAVParameterManager@karto@@@serialization@boost@@YAXAEAVbinary_oarchive@archive@1@AEBV?$nvp@PEAVParameterManager@karto@@@01@I@Z
	??$save@Vbinary_oarchive@archive@boost@@PEAVSensor@karto@@@serialization@boost@@YAXAEAVbinary_oarchive@archive@1@AEBV?$nvp@PEAVSensor@karto@@@01@I@Z
	??$save@Vbinary_oarchive@archive@boost@@QEAVAbstractParameter@karto@@@serialization@boost@@YAXAEAVbinary_oarchive@archive@1@AEBV?$nvp@QEAVAbstractParameter@karto@@@01@I@Z
	??$save@Vbinary_oarchive@archive@boost@@QEAVDatasetInfo@karto@@@archive@boost@@YAXAEAVbinary_oarchive@01@AEBQEAVDatasetInfo@karto@@@Z
	??$save@Vbinary_oarchive@archive@boost@@QEAVObject@karto@@@serialization@boost@@YAXAEAVbinary_oarchive@archive@1@AEBV?$nvp@QEAVObject@karto@@@01@I@Z
	??$save@Vbinary_oarchive@archive@boost@@QEAVParameterManager@karto@@@archive@boost@@YAXAEAVbinary_oarchive@01@AEBQEAVParameterManager@karto@@@Z
	??$save@Vbinary_oarchive@archive@boost@@V?$Parameter@V?$basic_string@DU?$char_traits@D@std@@V?$allocator@D@2@@std@@@karto@@@serialization@boost@@YAXAEAVbinary_oarchive@archive@1@AEBV?$nvp@V?$Parameter@V?$basic_string@DU?$char_traits@D@std@@V?$allocator@D@2@@std@@@karto@@@01@I@Z
	??$save@Vbinary_oarchive@archive@boost@@V?$basic_string@DU?$char_traits@D@std@@V?$allocator@D@2@@std@@@serialization@boost@@YAXAEAVbinary_oarchive@archive@1@AEBV?$nvp@V?$basic_string@DU?$char_traits@D@std@@V?$allocator@D@2@@std@@@01@I@Z
	??$save@Vbinary_oarchive@archive@boost@@V?$map@HPEAVObject@karto@@U?$less@H@std@@V?$allocator@U?$pair@$$CBHPEAVObject@karto@@@std@@@4@@std@@@serialization@boost@@YAXAEAVbinary_oarchive@archive@1@AEBV?$nvp@V?$map@HPEAVObject@karto@@U?$less@H@std@@V?$allocator@U?$pair@$$CBHPEAVObject@karto@@@std@@@4@@std@@@01@I@Z
	??$save@Vbinary_oarchive@archive@boost@@V?$map@V?$basic_string@DU?$char_traits@D@std@@V?$allocator@D@2@@std@@PEAVAbstractParameter@karto@@U?$less@V?$basic_string@DU?$char_traits@D@std@@V?$allocator@D@2@@std@@@2@V?$allocator@U?$pair@$$CBV?$basic_string@DU?$char_traits@D@std@@V?$allocator@D@2@@std@@PEAVAbstractParameter@karto@@@std@@@2@@std@@@serialization@boost@@YAXAEAVbinary_oarchive@archive@1@AEBV?$nvp@V?$map@V?$basic_string@DU?$char_traits@D@std@@V?$allocator@D@2@@std@@PEAVAbstractParameter@karto@@U?$less@V?$basic_string@DU?$char_traits@D@std@@V?$allocator@D@2@@std@@@2@V?$allocator@U?$pair@$$CBV?$basic_string@DU?$char_traits@D@std@@V?$allocator@D@2@@std@@PEAVAbstractParameter@karto@@@std@@@2@@std@@@01@I@Z
	??$save@Vbinary_oarchive@archive@boost@@V?$map@VName@karto@@PEAVSensor@2@U?$less@VName@karto@@@std@@V?$allocator@U?$pair@$$CBVName@karto@@PEAVSensor@2@@std@@@5@@std@@@serialization@boost@@YAXAEAVbinary_oarchive@archive@1@AEBV?$nvp@V?$map@VName@karto@@PEAVSensor@2@U?$less@VName@karto@@@std@@V?$allocator@U?$pair@$$CBVName@karto@@PEAVSensor@2@@std@@@5@@std@@@01@I@Z
	??$save@Vbinary_oarchive@archive@boost@@V?$vector@PEAVAbstractParameter@karto@@V?$allocator@PEAVAbstractParameter@karto@@@std@@@std@@@serialization@boost@@YAXAEAVbinary_oarchive@archive@1@AEBV?$nvp@V?$vector@PEAVAbstractParameter@karto@@V?$allocator@PEAVAbstractParameter@karto@@@std@@@std@@@01@I@Z
	??$save@Vbinary_oarchive@archive@boost@@V?$vector@PEAVObject@karto@@V?$allocator@PEAVObject@karto@@@std@@@std@@@serialization@boost@@YAXAEAVbinary_oarchive@archive@1@AEBV?$nvp@V?$vector@PEAVObject@karto@@V?$allocator@PEAVObject@karto@@@std@@@std@@@01@I@Z
	??$save@Vbinary_oarchive@archive@boost@@VAbstractParameter@karto@@@serialization@boost@@YAXAEAVbinary_oarchive@archive@1@AEBV?$nvp@VAbstractParameter@karto@@@01@I@Z
	??$save@Vbinary_oarchive@archive@boost@@VDatasetInfo@karto@@@serialization@boost@@YAXAEAVbinary_oarchive@archive@1@AEBV?$nvp@VDatasetInfo@karto@@@01@I@Z
	??$save@Vbinary_oarchive@archive@boost@@VName@karto@@@serialization@boost@@YAXAEAVbinary_oarchive@archive@1@AEBV?$nvp@VName@karto@@@01@I@Z
	??$save@Vbinary_oarchive@archive@boost@@VNonCopyable@karto@@@serialization@boost@@YAXAEAVbinary_oarchive@archive@1@AEBV?$nvp@VNonCopyable@karto@@@01@I@Z
	??$save@Vbinary_oarchive@archive@boost@@VObject@karto@@@serialization@boost@@YAXAEAVbinary_oarchive@archive@1@AEBV?$nvp@VObject@karto@@@01@I@Z
	??$save@Vbinary_oarchive@archive@boost@@VParameterManager@karto@@@serialization@boost@@YAXAEAVbinary_oarchive@archive@1@AEBV?$nvp@VParameterManager@karto@@@01@I@Z
	??$save@Vbinary_oarchive@archive@boost@@Vcollection_size_type@serialization@3@@serialization@boost@@YAXAEAVbinary_oarchive@archive@1@AEBV?$nvp@Vcollection_size_type@serialization@boost@@@01@I@Z
	??$save_override@QEAVAbstractParameter@karto@@@?$common_oarchive@Vbinary_oarchive@archive@boost@@@detail@archive@boost@@IEAAXAEBQEAVAbstractParameter@karto@@@Z
	??$save_override@QEAVObject@karto@@@?$common_oarchive@Vbinary_oarchive@archive@boost@@@detail@archive@boost@@IEAAXAEBQEAVObject@karto@@@Z
	??$save_override@QEAVSensor@karto@@@?$common_oarchive@Vbinary_oarchive@archive@boost@@@detail@archive@boost@@IEAAXAEBQEAVSensor@karto@@@Z
	??$serialize@Vbinary_iarchive@archive@boost@@@Dataset@karto@@AEAAXAEAVbinary_iarchive@archive@boost@@I@Z
	??$serialize@Vbinary_iarchive@archive@boost@@@Object@karto@@AEAAXAEAVbinary_iarchive@archive@boost@@I@Z
	??$set_allocator_for_deleter@U?$MetricsMessage_@V?$allocator@X@std@@@msg@statistics_msgs@@U123@@allocator@rclcpp@@YAXPEAU?$default_delete@U?$MetricsMessage_@V?$allocator@X@std@@@msg@statistics_msgs@@@std@@PEAV?$allocator@U?$MetricsMessage_@V?$allocator@X@std@@@msg@statistics_msgs@@@3@@Z
	??$set_allocator_for_deleter@U?$PoseWithCovarianceStamped_@V?$allocator@X@std@@@msg@geometry_msgs@@U123@@allocator@rclcpp@@YAXPEAU?$default_delete@U?$PoseWithCovarianceStamped_@V?$allocator@X@std@@@msg@geometry_msgs@@@std@@PEAV?$allocator@U?$PoseWithCovarianceStamped_@V?$allocator@X@std@@@msg@geometry_msgs@@@3@@Z
	??$smart_cast@PEBV?$Parameter@V?$basic_string@DU?$char_traits@D@std@@V?$allocator@D@2@@std@@@karto@@PEBVAbstractParameter@2@@serialization@boost@@YAPEBV?$Parameter@V?$basic_string@DU?$char_traits@D@std@@V?$allocator@D@2@@std@@@karto@@PEBVAbstractParameter@3@@Z
	??$smart_cast@PEBVAbstractParameter@karto@@PEBV?$Parameter@V?$basic_string@DU?$char_traits@D@std@@V?$allocator@D@2@@std@@@2@@serialization@boost@@YAPEBVAbstractParameter@karto@@PEBV?$Parameter@V?$basic_string@DU?$char_traits@D@std@@V?$allocator@D@2@@std@@@3@@Z
	??$smart_cast@PEBVDatasetInfo@karto@@PEBVObject@2@@serialization@boost@@YAPEBVDatasetInfo@karto@@PEBVObject@3@@Z
	??$smart_cast@PEBVNonCopyable@karto@@PEBVObject@2@@serialization@boost@@YAPEBVNonCopyable@karto@@PEBVObject@3@@Z
	??$smart_cast@PEBVNonCopyable@karto@@PEBVParameterManager@2@@serialization@boost@@YAPEBVNonCopyable@karto@@PEBVParameterManager@3@@Z
	??$smart_cast@PEBVObject@karto@@PEBVDatasetInfo@2@@serialization@boost@@YAPEBVObject@karto@@PEBVDatasetInfo@3@@Z
	??$smart_cast@PEBVObject@karto@@PEBVNonCopyable@2@@serialization@boost@@YAPEBVObject@karto@@PEBVNonCopyable@3@@Z
	??$smart_cast@PEBVParameterManager@karto@@PEBVNonCopyable@2@@serialization@boost@@YAPEBVParameterManager@karto@@PEBVNonCopyable@3@@Z
	??$smart_cast_reference@AEAVbasic_oarchive@detail@archive@boost@@Vbinary_oarchive@34@@serialization@boost@@YAAEAVbasic_oarchive@detail@archive@1@AEAVbinary_oarchive@41@@Z
	??$smart_cast_reference@AEAVbinary_iarchive@archive@boost@@Vbasic_iarchive@detail@23@@serialization@boost@@YAAEAVbinary_iarchive@archive@1@AEAVbasic_iarchive@detail@31@@Z
	??$smart_cast_reference@AEAVbinary_oarchive@archive@boost@@Vbasic_oarchive@detail@23@@serialization@boost@@YAAEAVbinary_oarchive@archive@1@AEAVbasic_oarchive@detail@31@@Z
	??$static_pointer_cast@U?$Empty_Request_@V?$allocator@X@std@@@srv@std_srvs@@X@std@@YA?AV?$shared_ptr@U?$Empty_Request_@V?$allocator@X@std@@@srv@std_srvs@@@0@AEBV?$shared_ptr@X@0@@Z
	??$static_pointer_cast@U?$PoseWithCovarianceStamped_@V?$allocator@X@std@@@msg@geometry_msgs@@X@std@@YA?AV?$shared_ptr@U?$PoseWithCovarianceStamped_@V?$allocator@X@std@@@msg@geometry_msgs@@@0@AEBV?$shared_ptr@X@0@@Z
	??$static_pointer_cast@V?$SubscriptionIntraProcess@U?$MetricsMessage_@V?$allocator@X@std@@@msg@statistics_msgs@@V?$allocator@X@std@@U?$default_delete@U?$MetricsMessage_@V?$allocator@X@std@@@msg@statistics_msgs@@@5@U123@@experimental@rclcpp@@VSubscriptionIntraProcessBase@23@@std@@YA?AV?$shared_ptr@V?$SubscriptionIntraProcess@U?$MetricsMessage_@V?$allocator@X@std@@@msg@statistics_msgs@@V?$allocator@X@std@@U?$default_delete@U?$MetricsMessage_@V?$allocator@X@std@@@msg@statistics_msgs@@@5@U123@@experimental@rclcpp@@@0@AEBV?$shared_ptr@VSubscriptionIntraProcessBase@experimental@rclcpp@@@0@@Z
	??$static_pointer_cast@VIntraProcessManager@experimental@rclcpp@@X@std@@YA?AV?$shared_ptr@VIntraProcessManager@experimental@rclcpp@@@0@AEBV?$shared_ptr@X@0@@Z
	??$throw_exception@Varchive_exception@archive@boost@@@serialization@boost@@YAXAEBVarchive_exception@archive@1@@Z
	??$throw_exception@Vlock_error@boost@@@boost@@YAXAEBVlock_error@0@@Z
	??$throw_exception@Vthread_resource_error@boost@@@boost@@YAXAEBVthread_resource_error@0@@Z
	??$transform@U?$TransformStamped_@V?$allocator@X@std@@@msg@geometry_msgs@@@BufferInterface@tf2_ros@@QEBA?AU?$TransformStamped_@V?$allocator@X@std@@@msg@geometry_msgs@@AEBU234@AEBV?$basic_string@DU?$char_traits@D@std@@V?$allocator@D@2@@std@@V?$duration@_JU?$ratio@$00$0DLJKMKAA@@std@@@chrono@6@@Z
	??$uninitialized_fill@PEAV?$_List_unchecked_iterator@V?$_List_val@U?$_List_simple_types@U?$pair@$$CBVtype_index@std@@V?$shared_ptr@X@2@@std@@@std@@@std@@@std@@V12@@std@@YAXQEAV?$_List_unchecked_iterator@V?$_List_val@U?$_List_simple_types@U?$pair@$$CBVtype_index@std@@V?$shared_ptr@X@2@@std@@@std@@@std@@@0@0AEBV10@@Z
	??$uninitialized_fill@PEAV?$_List_unchecked_iterator@V?$_List_val@U?$_List_simple_types@U?$pair@QEAVQOSEventHandlerBase@rclcpp@@U?$atomic@_N@std@@@std@@@std@@@std@@@std@@V12@@std@@YAXQEAV?$_List_unchecked_iterator@V?$_List_val@U?$_List_simple_types@U?$pair@QEAVQOSEventHandlerBase@rclcpp@@U?$atomic@_N@std@@@std@@@std@@@std@@@0@0AEBV10@@Z
	??$use_facet@V?$ctype@D@std@@@std@@YAAEBV?$ctype@D@0@AEBVlocale@0@@Z
	??$void_cast_register@V?$Parameter@V?$basic_string@DU?$char_traits@D@std@@V?$allocator@D@2@@std@@@karto@@VAbstractParameter@2@@serialization@boost@@YAAEBVvoid_caster@void_cast_detail@01@PEBV?$Parameter@V?$basic_string@DU?$char_traits@D@std@@V?$allocator@D@2@@std@@@karto@@PEBVAbstractParameter@5@@Z
	??$void_cast_register@VDatasetInfo@karto@@VObject@2@@serialization@boost@@YAAEBVvoid_caster@void_cast_detail@01@PEBVDatasetInfo@karto@@PEBVObject@5@@Z
	??$void_cast_register@VObject@karto@@VNonCopyable@2@@serialization@boost@@YAAEBVvoid_caster@void_cast_detail@01@PEBVObject@karto@@PEBVNonCopyable@5@@Z
	??$void_cast_register@VParameterManager@karto@@VNonCopyable@2@@serialization@boost@@YAAEBVvoid_caster@void_cast_detail@01@PEBVParameterManager@karto@@PEBVNonCopyable@5@@Z
	??0?$AnyServiceCallback@UEmpty@srv@std_srvs@@@rclcpp@@QEAA@AEBV01@@Z
	??0?$AnySubscriptionCallback@U?$PoseWithCovarianceStamped_@V?$allocator@X@std@@@msg@geometry_msgs@@V?$allocator@X@std@@@rclcpp@@QEAA@AEBV01@@Z
	??0?$MessageMemoryStrategy@U?$PoseWithCovarianceStamped_@V?$allocator@X@std@@@msg@geometry_msgs@@V?$allocator@X@std@@@message_memory_strategy@rclcpp@@QEAA@V?$shared_ptr@V?$allocator@X@std@@@std@@@Z
	??0?$MetricsMessage_@V?$allocator@X@std@@@msg@statistics_msgs@@QEAA@AEBU012@@Z
	??0?$Parameter@V?$basic_string@DU?$char_traits@D@std@@V?$allocator@D@2@@std@@@karto@@QEAA@AEBV?$basic_string@DU?$char_traits@D@std@@V?$allocator@D@2@@std@@V23@PEAVParameterManager@1@@Z
	??0?$PoseWithCovarianceStamped_@V?$allocator@X@std@@@msg@geometry_msgs@@QEAA@AEBU012@@Z
	??0?$Publisher@U?$MetricsMessage_@V?$allocator@X@std@@@msg@statistics_msgs@@V?$allocator@X@std@@@rclcpp@@QEAA@PEAVNodeBaseInterface@node_interfaces@1@AEBV?$basic_string@DU?$char_traits@D@std@@V?$allocator@D@2@@std@@AEBVQoS@1@AEBU?$PublisherOptionsWithAllocator@V?$allocator@X@std@@@1@@Z
	??0?$PublisherOptionsWithAllocator@V?$allocator@X@std@@@rclcpp@@QEAA@AEBU01@@Z
	??0?$RingBufferImplementation@V?$shared_ptr@$$CBU?$PoseWithCovarianceStamped_@V?$allocator@X@std@@@msg@geometry_msgs@@@std@@@buffers@experimental@rclcpp@@QEAA@_K@Z
	??0?$Service@UEmpty@srv@std_srvs@@@rclcpp@@QEAA@V?$shared_ptr@Urcl_node_t@@@std@@AEBV?$basic_string@DU?$char_traits@D@std@@V?$allocator@D@2@@3@V?$AnyServiceCallback@UEmpty@srv@std_srvs@@@1@AEAUrcl_service_options_t@@@Z
	??0?$Subscription@U?$PoseWithCovarianceStamped_@V?$allocator@X@std@@@msg@geometry_msgs@@V?$allocator@X@std@@V?$MessageMemoryStrategy@U?$PoseWithCovarianceStamped_@V?$allocator@X@std@@@msg@geometry_msgs@@V?$allocator@X@std@@@message_memory_strategy@rclcpp@@@rclcpp@@QEAA@PEAVNodeBaseInterface@node_interfaces@1@AEBUrosidl_message_type_support_t@@AEBV?$basic_string@DU?$char_traits@D@std@@V?$allocator@D@2@@std@@AEBVQoS@1@V?$AnySubscriptionCallback@U?$PoseWithCovarianceStamped_@V?$allocator@X@std@@@msg@geometry_msgs@@V?$allocator@X@std@@@1@AEBU?$SubscriptionOptionsWithAllocator@V?$allocator@X@std@@@1@V?$shared_ptr@V?$MessageMemoryStrategy@U?$PoseWithCovarianceStamped_@V?$allocator@X@std@@@msg@geometry_msgs@@V?$allocator@X@std@@@message_memory_strategy@rclcpp@@@6@V?$shared_ptr@V?$SubscriptionTopicStatistics@U?$PoseWithCovarianceStamped_@V?$allocator@X@std@@@msg@geometry_msgs@@@topic_statistics@rclcpp@@@6@@Z
	??0?$SubscriptionIntraProcess@U?$PoseWithCovarianceStamped_@V?$allocator@X@std@@@msg@geometry_msgs@@V?$allocator@X@std@@U?$default_delete@U?$PoseWithCovarianceStamped_@V?$allocator@X@std@@@msg@geometry_msgs@@@5@U123@@experimental@rclcpp@@QEAA@V?$AnySubscriptionCallback@U?$PoseWithCovarianceStamped_@V?$allocator@X@std@@@msg@geometry_msgs@@V?$allocator@X@std@@@2@V?$shared_ptr@V?$allocator@X@std@@@std@@V?$shared_ptr@VContext@rclcpp@@@5@AEBV?$basic_string@DU?$char_traits@D@std@@V?$allocator@D@2@@5@Urmw_qos_profile_t@@W4IntraProcessBufferType@2@@Z
	??0?$TypedIntraProcessBuffer@U?$PoseWithCovarianceStamped_@V?$allocator@X@std@@@msg@geometry_msgs@@V?$allocator@X@std@@U?$default_delete@U?$PoseWithCovarianceStamped_@V?$allocator@X@std@@@msg@geometry_msgs@@@5@V?$shared_ptr@$$CBU?$PoseWithCovarianceStamped_@V?$allocator@X@std@@@msg@geometry_msgs@@@5@@buffers@experimental@rclcpp@@QEAA@V?$unique_ptr@V?$BufferImplementationBase@V?$shared_ptr@$$CBU?$PoseWithCovarianceStamped_@V?$allocator@X@std@@@msg@geometry_msgs@@@std@@@buffers@experimental@rclcpp@@U?$default_delete@V?$BufferImplementationBase@V?$shared_ptr@$$CBU?$PoseWithCovarianceStamped_@V?$allocator@X@std@@@msg@geometry_msgs@@@std@@@buffers@experimental@rclcpp@@@std@@@std@@V?$shared_ptr@V?$allocator@X@std@@@5@@Z
	??0?$TypedIntraProcessBuffer@U?$PoseWithCovarianceStamped_@V?$allocator@X@std@@@msg@geometry_msgs@@V?$allocator@X@std@@U?$default_delete@U?$PoseWithCovarianceStamped_@V?$allocator@X@std@@@msg@geometry_msgs@@@5@V?$unique_ptr@U?$PoseWithCovarianceStamped_@V?$allocator@X@std@@@msg@geometry_msgs@@U?$default_delete@U?$PoseWithCovarianceStamped_@V?$allocator@X@std@@@msg@geometry_msgs@@@std@@@5@@buffers@experimental@rclcpp@@QEAA@V?$unique_ptr@V?$BufferImplementationBase@V?$unique_ptr@U?$PoseWithCovarianceStamped_@V?$allocator@X@std@@@msg@geometry_msgs@@U?$default_delete@U?$PoseWithCovarianceStamped_@V?$allocator@X@std@@@msg@geometry_msgs@@@std@@@std@@@buffers@experimental@rclcpp@@U?$default_delete@V?$BufferImplementationBase@V?$unique_ptr@U?$PoseWithCovarianceStamped_@V?$allocator@X@std@@@msg@geometry_msgs@@U?$default_delete@U?$PoseWithCovarianceStamped_@V?$allocator@X@std@@@msg@geometry_msgs@@@std@@@std@@@buffers@experimental@rclcpp@@@std@@@std@@V?$shared_ptr@V?$allocator@X@std@@@5@@Z
	??0?$WallTimer@V<lambda_dc0acc6c162c69a79de61b136908d558>@@$0A@@rclcpp@@QEAA@V?$duration@_JU?$ratio@$00$0DLJKMKAA@@std@@@chrono@std@@$$QEAV<lambda_dc0acc6c162c69a79de61b136908d558>@@V?$shared_ptr@VContext@rclcpp@@@4@@Z
	??0?$basic_string@DU?$char_traits@D@std@@V?$allocator@D@2@@std@@QEAA@AEBV01@@Z
	??0?$basic_string@DU?$char_traits@D@std@@V?$allocator@D@2@@std@@QEAA@QEBD@Z
	??0?$basic_string@DU?$char_traits@D@std@@V?$allocator@D@2@@std@@QEAA@U_String_constructor_concat_tag@1@AEBV01@QEBD_K23@Z
	??0?$clone_impl@Ubad_alloc_@exception_detail@boost@@@exception_detail@boost@@QEAA@AEBV012@@Z
	??0?$clone_impl@Ubad_exception_@exception_detail@boost@@@exception_detail@boost@@QEAA@AEBV012@@Z
	??0?$oserializer@Vbinary_oarchive@archive@boost@@U?$pair@$$CBHPEAVObject@karto@@@std@@@detail@archive@boost@@QEAA@XZ
	??0?$oserializer@Vbinary_oarchive@archive@boost@@U?$pair@$$CBV?$basic_string@DU?$char_traits@D@std@@V?$allocator@D@2@@std@@PEAVAbstractParameter@karto@@@std@@@detail@archive@boost@@QEAA@XZ
	??0?$oserializer@Vbinary_oarchive@archive@boost@@U?$pair@$$CBVName@karto@@PEAVSensor@2@@std@@@detail@archive@boost@@QEAA@XZ
	??0?$oserializer@Vbinary_oarchive@archive@boost@@V?$Parameter@V?$basic_string@DU?$char_traits@D@std@@V?$allocator@D@2@@std@@@karto@@@detail@archive@boost@@QEAA@XZ
	??0?$oserializer@Vbinary_oarchive@archive@boost@@V?$map@HPEAVObject@karto@@U?$less@H@std@@V?$allocator@U?$pair@$$CBHPEAVObject@karto@@@std@@@4@@std@@@detail@archive@boost@@QEAA@XZ
	??0?$oserializer@Vbinary_oarchive@archive@boost@@V?$map@V?$basic_string@DU?$char_traits@D@std@@V?$allocator@D@2@@std@@PEAVAbstractParameter@karto@@U?$less@V?$basic_string@DU?$char_traits@D@std@@V?$allocator@D@2@@std@@@2@V?$allocator@U?$pair@$$CBV?$basic_string@DU?$char_traits@D@std@@V?$allocator@D@2@@std@@PEAVAbstractParameter@karto@@@std@@@2@@std@@@detail@archive@boost@@QEAA@XZ
	??0?$oserializer@Vbinary_oarchive@archive@boost@@V?$map@VName@karto@@PEAVSensor@2@U?$less@VName@karto@@@std@@V?$allocator@U?$pair@$$CBVName@karto@@PEAVSensor@2@@std@@@5@@std@@@detail@archive@boost@@QEAA@XZ
	??0?$oserializer@Vbinary_oarchive@archive@boost@@V?$vector@PEAVAbstractParameter@karto@@V?$allocator@PEAVAbstractParameter@karto@@@std@@@std@@@detail@archive@boost@@QEAA@XZ
	??0?$oserializer@Vbinary_oarchive@archive@boost@@V?$vector@PEAVObject@karto@@V?$allocator@PEAVObject@karto@@@std@@@std@@@detail@archive@boost@@QEAA@XZ
	??0?$oserializer@Vbinary_oarchive@archive@boost@@VAbstractParameter@karto@@@detail@archive@boost@@QEAA@XZ
	??0?$oserializer@Vbinary_oarchive@archive@boost@@VDataset@karto@@@detail@archive@boost@@QEAA@XZ
	??0?$oserializer@Vbinary_oarchive@archive@boost@@VDatasetInfo@karto@@@detail@archive@boost@@QEAA@XZ
	??0?$oserializer@Vbinary_oarchive@archive@boost@@VName@karto@@@detail@archive@boost@@QEAA@XZ
	??0?$oserializer@Vbinary_oarchive@archive@boost@@VNonCopyable@karto@@@detail@archive@boost@@QEAA@XZ
	??0?$oserializer@Vbinary_oarchive@archive@boost@@VObject@karto@@@detail@archive@boost@@QEAA@XZ
	??0?$oserializer@Vbinary_oarchive@archive@boost@@VParameterManager@karto@@@detail@archive@boost@@QEAA@XZ
	??0?$pointer_iserializer@Vbinary_iarchive@archive@boost@@VDatasetInfo@karto@@@detail@archive@boost@@QEAA@XZ
	??0?$pointer_iserializer@Vbinary_iarchive@archive@boost@@VParameterManager@karto@@@detail@archive@boost@@QEAA@XZ
	??0?$pointer_oserializer@Vbinary_oarchive@archive@boost@@VDatasetInfo@karto@@@detail@archive@boost@@QEAA@XZ
	??0?$pointer_oserializer@Vbinary_oarchive@archive@boost@@VParameterManager@karto@@@detail@archive@boost@@QEAA@XZ
	??0?$singleton@V?$extended_type_info_typeid@U?$pair@$$CBHPEAVObject@karto@@@std@@@serialization@boost@@@serialization@boost@@IEAA@XZ
	??0?$singleton@V?$extended_type_info_typeid@U?$pair@$$CBV?$basic_string@DU?$char_traits@D@std@@V?$allocator@D@2@@std@@PEAVAbstractParameter@karto@@@std@@@serialization@boost@@@serialization@boost@@IEAA@XZ
	??0?$singleton@V?$extended_type_info_typeid@U?$pair@$$CBVName@karto@@PEAVSensor@2@@std@@@serialization@boost@@@serialization@boost@@IEAA@XZ
	??0?$singleton@V?$extended_type_info_typeid@V?$Parameter@V?$basic_string@DU?$char_traits@D@std@@V?$allocator@D@2@@std@@@karto@@@serialization@boost@@@serialization@boost@@IEAA@XZ
	??0?$singleton@V?$extended_type_info_typeid@V?$map@HPEAVObject@karto@@U?$less@H@std@@V?$allocator@U?$pair@$$CBHPEAVObject@karto@@@std@@@4@@std@@@serialization@boost@@@serialization@boost@@IEAA@XZ
	??0?$singleton@V?$extended_type_info_typeid@V?$map@V?$basic_string@DU?$char_traits@D@std@@V?$allocator@D@2@@std@@PEAVAbstractParameter@karto@@U?$less@V?$basic_string@DU?$char_traits@D@std@@V?$allocator@D@2@@std@@@2@V?$allocator@U?$pair@$$CBV?$basic_string@DU?$char_traits@D@std@@V?$allocator@D@2@@std@@PEAVAbstractParameter@karto@@@std@@@2@@std@@@serialization@boost@@@serialization@boost@@IEAA@XZ
	??0?$singleton@V?$extended_type_info_typeid@V?$map@VName@karto@@PEAVSensor@2@U?$less@VName@karto@@@std@@V?$allocator@U?$pair@$$CBVName@karto@@PEAVSensor@2@@std@@@5@@std@@@serialization@boost@@@serialization@boost@@IEAA@XZ
	??0?$singleton@V?$extended_type_info_typeid@V?$vector@PEAVAbstractParameter@karto@@V?$allocator@PEAVAbstractParameter@karto@@@std@@@std@@@serialization@boost@@@serialization@boost@@IEAA@XZ
	??0?$singleton@V?$extended_type_info_typeid@V?$vector@PEAVObject@karto@@V?$allocator@PEAVObject@karto@@@std@@@std@@@serialization@boost@@@serialization@boost@@IEAA@XZ
	??0?$singleton@V?$extended_type_info_typeid@VAbstractParameter@karto@@@serialization@boost@@@serialization@boost@@IEAA@XZ
	??0?$singleton@V?$extended_type_info_typeid@VDataset@karto@@@serialization@boost@@@serialization@boost@@IEAA@XZ
	??0?$singleton@V?$extended_type_info_typeid@VDatasetInfo@karto@@@serialization@boost@@@serialization@boost@@IEAA@XZ
	??0?$singleton@V?$extended_type_info_typeid@VName@karto@@@serialization@boost@@@serialization@boost@@IEAA@XZ
	??0?$singleton@V?$extended_type_info_typeid@VNonCopyable@karto@@@serialization@boost@@@serialization@boost@@IEAA@XZ
	??0?$singleton@V?$extended_type_info_typeid@VObject@karto@@@serialization@boost@@@serialization@boost@@IEAA@XZ
	??0?$singleton@V?$extended_type_info_typeid@VParameterManager@karto@@@serialization@boost@@@serialization@boost@@IEAA@XZ
	??0?$singleton@V?$extended_type_info_typeid@VSensor@karto@@@serialization@boost@@@serialization@boost@@IEAA@XZ
	??0?$vector@_KV?$allocator@_K@std@@@std@@QEAA@AEBV01@@Z
	??0?$void_caster_primitive@V?$Parameter@V?$basic_string@DU?$char_traits@D@std@@V?$allocator@D@2@@std@@@karto@@VAbstractParameter@2@@void_cast_detail@serialization@boost@@QEAA@XZ
	??0?$void_caster_primitive@VDatasetInfo@karto@@VObject@2@@void_cast_detail@serialization@boost@@QEAA@XZ
	??0?$void_caster_primitive@VObject@karto@@VNonCopyable@2@@void_cast_detail@serialization@boost@@QEAA@XZ
	??0?$void_caster_primitive@VParameterManager@karto@@VNonCopyable@2@@void_cast_detail@serialization@boost@@QEAA@XZ
	??0?$wrapexcept@Vlock_error@boost@@@boost@@QEAA@AEBU01@@Z
	??0?$wrapexcept@Vlock_error@boost@@@boost@@QEAA@AEBVlock_error@1@@Z
	??0?$wrapexcept@Vthread_resource_error@boost@@@boost@@QEAA@AEBU01@@Z
	??0?$wrapexcept@Vthread_resource_error@boost@@@boost@@QEAA@AEBVthread_resource_error@1@@Z
	??0DatasetInfo@karto@@QEAA@XZ
	??0LocalizationSlamToolbox@slam_toolbox@@QEAA@VNodeOptions@rclcpp@@@Z
	??0RCLErrorBase@exceptions@rclcpp@@QEAA@AEBV012@@Z
	??0SubscriptionOptionsBase@rclcpp@@QEAA@AEBU01@@Z
	??0UnsupportedEventTypeException@rclcpp@@QEAA@$$QEAV01@@Z
	??0UnsupportedEventTypeException@rclcpp@@QEAA@AEBV01@@Z
	??0bad_alloc@std@@QEAA@AEBV01@@Z
	??0bad_alloc_@exception_detail@boost@@QEAA@AEBU012@@Z
	??0bad_array_new_length@std@@QEAA@AEBV01@@Z
	??0bad_array_new_length@std@@QEAA@XZ
	??0bad_cast@std@@QEAA@AEBV01@@Z
	??0bad_cast@std@@QEAA@XZ
	??0bad_exception@std@@QEAA@AEBV01@@Z
	??0bad_exception_@exception_detail@boost@@QEAA@AEBU012@@Z
	??0bad_weak_ptr@std@@QEAA@AEBV01@@Z
	??0bad_weak_ptr@std@@QEAA@XZ
	??0clone_base@exception_detail@boost@@QEAA@AEBV012@@Z
	??0exception@boost@@QEAA@AEBV01@@Z
	??0exception@std@@QEAA@AEBV01@@Z
	??0invalid_argument@std@@QEAA@AEBV01@@Z
	??0invalid_argument@std@@QEAA@AEBV?$basic_string@DU?$char_traits@D@std@@V?$allocator@D@2@@1@@Z
	??0invalid_argument@std@@QEAA@PEBD@Z
	??0lock_error@boost@@QEAA@AEBV01@@Z
	??0lock_error@boost@@QEAA@HPEBD@Z
	??0logic_error@std@@QEAA@AEBV01@@Z
	??0runtime_error@std@@QEAA@AEBV01@@Z
	??0runtime_error@std@@QEAA@PEBD@Z
	??0system_error@system@boost@@QEAA@AEBV012@@Z
	??0thread_exception@boost@@QEAA@AEBV01@@Z
	??0thread_exception@boost@@QEAA@HPEBD@Z
	??0thread_resource_error@boost@@QEAA@AEBV01@@Z
	??0thread_resource_error@boost@@QEAA@XZ
	??1<lambda_33d3207aa9cfabd17909961fe837b8a9>@@QEAA@XZ
	??1<lambda_4fa184f521fb41f33f9d01b40f5ac9d9>@@QEAA@XZ
	??1<lambda_83c40cceffae39b19729e050b3a9ba8e>@@QEAA@XZ
	??1<lambda_dc0acc6c162c69a79de61b136908d558>@@QEAA@XZ
	??1?$AnyServiceCallback@UEmpty@srv@std_srvs@@@rclcpp@@QEAA@XZ
	??1?$AnySubscriptionCallback@U?$PoseWithCovarianceStamped_@V?$allocator@X@std@@@msg@geometry_msgs@@V?$allocator@X@std@@@rclcpp@@QEAA@XZ
	??1?$BufferImplementationBase@V?$shared_ptr@$$CBU?$PoseWithCovarianceStamped_@V?$allocator@X@std@@@msg@geometry_msgs@@@std@@@buffers@experimental@rclcpp@@UEAA@XZ
	??1?$BufferImplementationBase@V?$unique_ptr@U?$PoseWithCovarianceStamped_@V?$allocator@X@std@@@msg@geometry_msgs@@U?$default_delete@U?$PoseWithCovarianceStamped_@V?$allocator@X@std@@@msg@geometry_msgs@@@std@@@std@@@buffers@experimental@rclcpp@@UEAA@XZ
	??1?$GenericTimer@V<lambda_dc0acc6c162c69a79de61b136908d558>@@$0A@@rclcpp@@UEAA@XZ
	??1?$Header_@V?$allocator@X@std@@@msg@std_msgs@@QEAA@XZ
	??1?$IntraProcessBuffer@U?$PoseWithCovarianceStamped_@V?$allocator@X@std@@@msg@geometry_msgs@@V?$allocator@X@std@@U?$default_delete@U?$PoseWithCovarianceStamped_@V?$allocator@X@std@@@msg@geometry_msgs@@@5@@buffers@experimental@rclcpp@@UEAA@XZ
	??1?$MessageMemoryStrategy@U?$PoseWithCovarianceStamped_@V?$allocator@X@std@@@msg@geometry_msgs@@V?$allocator@X@std@@@message_memory_strategy@rclcpp@@UEAA@XZ
	??1?$MetricsMessage_@V?$allocator@X@std@@@msg@statistics_msgs@@QEAA@XZ
	??1?$Parameter@V?$basic_string@DU?$char_traits@D@std@@V?$allocator@D@2@@std@@@karto@@UEAA@XZ
	??1?$Publisher@U?$MetricsMessage_@V?$allocator@X@std@@@msg@statistics_msgs@@V?$allocator@X@std@@@rclcpp@@UEAA@XZ
	??1?$PublisherOptionsWithAllocator@V?$allocator@X@std@@@rclcpp@@QEAA@XZ
	??1?$ReceivedMessageAgeCollector@U?$PoseWithCovarianceStamped_@V?$allocator@X@std@@@msg@geometry_msgs@@@topic_statistics_collector@libstatistics_collector@@UEAA@XZ
	??1?$ReceivedMessagePeriodCollector@U?$PoseWithCovarianceStamped_@V?$allocator@X@std@@@msg@geometry_msgs@@@topic_statistics_collector@libstatistics_collector@@UEAA@XZ
	??1?$RingBufferImplementation@V?$shared_ptr@$$CBU?$PoseWithCovarianceStamped_@V?$allocator@X@std@@@msg@geometry_msgs@@@std@@@buffers@experimental@rclcpp@@UEAA@XZ
	??1?$RingBufferImplementation@V?$unique_ptr@U?$PoseWithCovarianceStamped_@V?$allocator@X@std@@@msg@geometry_msgs@@U?$default_delete@U?$PoseWithCovarianceStamped_@V?$allocator@X@std@@@msg@geometry_msgs@@@std@@@std@@@buffers@experimental@rclcpp@@UEAA@XZ
	??1?$Service@UEmpty@srv@std_srvs@@@rclcpp@@UEAA@XZ
	??1?$SubscriptionOptionsWithAllocator@V?$allocator@X@std@@@rclcpp@@QEAA@XZ
	??1?$SubscriptionTopicStatistics@U?$PoseWithCovarianceStamped_@V?$allocator@X@std@@@msg@geometry_msgs@@@topic_statistics@rclcpp@@UEAA@XZ
	??1?$TopicStatisticsCollector@U?$PoseWithCovarianceStamped_@V?$allocator@X@std@@@msg@geometry_msgs@@@topic_statistics_collector@libstatistics_collector@@UEAA@XZ
	??1?$TransformStamped_@V?$allocator@X@std@@@msg@geometry_msgs@@QEAA@XZ
	??1?$TypedIntraProcessBuffer@U?$PoseWithCovarianceStamped_@V?$allocator@X@std@@@msg@geometry_msgs@@V?$allocator@X@std@@U?$default_delete@U?$PoseWithCovarianceStamped_@V?$allocator@X@std@@@msg@geometry_msgs@@@5@V?$shared_ptr@$$CBU?$PoseWithCovarianceStamped_@V?$allocator@X@std@@@msg@geometry_msgs@@@5@@buffers@experimental@rclcpp@@UEAA@XZ
	??1?$TypedIntraProcessBuffer@U?$PoseWithCovarianceStamped_@V?$allocator@X@std@@@msg@geometry_msgs@@V?$allocator@X@std@@U?$default_delete@U?$PoseWithCovarianceStamped_@V?$allocator@X@std@@@msg@geometry_msgs@@@5@V?$unique_ptr@U?$PoseWithCovarianceStamped_@V?$allocator@X@std@@@msg@geometry_msgs@@U?$default_delete@U?$PoseWithCovarianceStamped_@V?$allocator@X@std@@@msg@geometry_msgs@@@std@@@5@@buffers@experimental@rclcpp@@UEAA@XZ
	??1?$_Alloc_construct_ptr@V?$allocator@U?$_List_node@U?$pair@$$CBVtype_index@std@@V?$shared_ptr@X@2@@std@@PEAX@std@@@std@@@std@@QEAA@XZ
	??1?$_Alloc_construct_ptr@V?$allocator@U?$_List_node@U?$pair@QEAVQOSEventHandlerBase@rclcpp@@U?$atomic@_N@std@@@std@@PEAX@std@@@std@@@std@@QEAA@XZ
	??1?$_Alloc_construct_ptr@V?$allocator@U?$_Tree_node@U?$pair@$$CBHPEAVObject@karto@@@std@@PEAX@std@@@std@@@std@@QEAA@XZ
	??1?$_Alloc_construct_ptr@V?$allocator@U?$_Tree_node@U?$pair@$$CBV?$basic_string@DU?$char_traits@D@std@@V?$allocator@D@2@@std@@PEAVAbstractParameter@karto@@@std@@PEAX@std@@@std@@@std@@QEAA@XZ
	??1?$_Alloc_construct_ptr@V?$allocator@U?$_Tree_node@U?$pair@$$CBVName@karto@@PEAVSensor@2@@std@@PEAX@std@@@std@@@std@@QEAA@XZ
	??1?$_Alloc_construct_ptr@V?$allocator@V?$_Ref_count_obj_alloc3@U?$MetricsMessage_@V?$allocator@X@std@@@msg@statistics_msgs@@V?$allocator@U?$MetricsMessage_@V?$allocator@X@std@@@msg@statistics_msgs@@@std@@@std@@@std@@@std@@QEAA@XZ
	??1?$_Alloc_construct_ptr@V?$allocator@V?$_Ref_count_obj_alloc3@U?$PoseWithCovarianceStamped_@V?$allocator@X@std@@@msg@geometry_msgs@@V?$allocator@U?$PoseWithCovarianceStamped_@V?$allocator@X@std@@@msg@geometry_msgs@@@std@@@std@@@std@@@std@@QEAA@XZ
	??1?$_Func_class@V?$shared_ptr@VPublisherBase@rclcpp@@@std@@PEAVNodeBaseInterface@node_interfaces@rclcpp@@AEBV?$basic_string@DU?$char_traits@D@std@@V?$allocator@D@2@@2@AEBVQoS@5@@std@@QEAA@XZ
	??1?$_Func_class@V?$shared_ptr@VSubscriptionBase@rclcpp@@@std@@PEAVNodeBaseInterface@node_interfaces@rclcpp@@AEBV?$basic_string@DU?$char_traits@D@std@@V?$allocator@D@2@@2@AEBVQoS@5@@std@@QEAA@XZ
	??1?$_Func_class@XAEAUrmw_liveliness_changed_status_t@@@std@@QEAA@XZ
	??1?$_Func_class@XAEAUrmw_liveliness_lost_status_t@@@std@@QEAA@XZ
	??1?$_Func_class@XAEAUrmw_offered_deadline_missed_status_t@@@std@@QEAA@XZ
	??1?$_Func_class@XAEAUrmw_qos_incompatible_event_status_t@@@std@@QEAA@XZ
	??1?$_Func_class@XAEAUrmw_requested_deadline_missed_status_t@@@std@@QEAA@XZ
	??1?$_Func_class@XV?$shared_ptr@$$CBU?$PoseWithCovarianceStamped_@V?$allocator@X@std@@@msg@geometry_msgs@@@std@@@std@@QEAA@XZ
	??1?$_Func_class@XV?$shared_ptr@$$CBU?$PoseWithCovarianceStamped_@V?$allocator@X@std@@@msg@geometry_msgs@@@std@@AEBVMessageInfo@rclcpp@@@std@@QEAA@XZ
	??1?$_Func_class@XV?$shared_ptr@U?$Empty_Request_@V?$allocator@X@std@@@srv@std_srvs@@@std@@V?$shared_ptr@U?$Empty_Response_@V?$allocator@X@std@@@srv@std_srvs@@@2@@std@@QEAA@XZ
	??1?$_Func_class@XV?$shared_ptr@U?$PoseWithCovarianceStamped_@V?$allocator@X@std@@@msg@geometry_msgs@@@std@@@std@@QEAA@XZ
	??1?$_Func_class@XV?$shared_ptr@U?$PoseWithCovarianceStamped_@V?$allocator@X@std@@@msg@geometry_msgs@@@std@@AEBVMessageInfo@rclcpp@@@std@@QEAA@XZ
	??1?$_Func_class@XV?$shared_ptr@Urmw_request_id_t@@@std@@V?$shared_ptr@U?$Empty_Request_@V?$allocator@X@std@@@srv@std_srvs@@@2@V?$shared_ptr@U?$Empty_Response_@V?$allocator@X@std@@@srv@std_srvs@@@2@@std@@QEAA@XZ
	??1?$_Func_class@XV?$unique_ptr@U?$PoseWithCovarianceStamped_@V?$allocator@X@std@@@msg@geometry_msgs@@U?$default_delete@U?$PoseWithCovarianceStamped_@V?$allocator@X@std@@@msg@geometry_msgs@@@std@@@std@@@std@@QEAA@XZ
	??1?$_Func_class@XV?$unique_ptr@U?$PoseWithCovarianceStamped_@V?$allocator@X@std@@@msg@geometry_msgs@@U?$default_delete@U?$PoseWithCovarianceStamped_@V?$allocator@X@std@@@msg@geometry_msgs@@@std@@@std@@AEBVMessageInfo@rclcpp@@@std@@QEAA@XZ
	??1?$_List_node_emplace_op2@V?$allocator@U?$_List_node@U?$pair@$$CBVtype_index@std@@V?$shared_ptr@X@2@@std@@PEAX@std@@@std@@@std@@QEAA@XZ
	??1?$_List_node_emplace_op2@V?$allocator@U?$_List_node@U?$pair@QEAVQOSEventHandlerBase@rclcpp@@U?$atomic@_N@std@@@std@@PEAX@std@@@std@@@std@@QEAA@XZ
	??1?$_Ref_count_obj2@U?$DeserializePoseGraph_Request_@V?$allocator@X@std@@@srv@slam_toolbox@@@std@@UEAA@XZ
	??1?$_Ref_count_obj2@U?$DeserializePoseGraph_Response_@V?$allocator@X@std@@@srv@slam_toolbox@@@std@@UEAA@XZ
	??1?$_Ref_count_obj2@U?$Empty_Request_@V?$allocator@X@std@@@srv@std_srvs@@@std@@UEAA@XZ
	??1?$_Ref_count_obj2@U?$Empty_Response_@V?$allocator@X@std@@@srv@std_srvs@@@std@@UEAA@XZ
	??1?$_Ref_count_obj2@Urmw_request_id_t@@@std@@UEAA@XZ
	??1?$_Ref_count_obj2@V?$MessageMemoryStrategy@U?$PoseWithCovarianceStamped_@V?$allocator@X@std@@@msg@geometry_msgs@@V?$allocator@X@std@@@message_memory_strategy@rclcpp@@@std@@UEAA@XZ
	??1?$_Ref_count_obj2@V?$Publisher@U?$MetricsMessage_@V?$allocator@X@std@@@msg@statistics_msgs@@V?$allocator@X@std@@@rclcpp@@@std@@UEAA@XZ
	??1?$_Ref_count_obj2@V?$QOSEventHandler@V<lambda_3f9548421920b881c8df116e1c596558>@@V?$shared_ptr@Urcl_subscription_t@@@std@@@rclcpp@@@std@@UEAA@XZ
	??1?$_Ref_count_obj2@V?$QOSEventHandler@V<lambda_c2318a75abbc27dc766add2e36d9f8d4>@@V?$shared_ptr@Urcl_publisher_t@@@std@@@rclcpp@@@std@@UEAA@XZ
	??1?$_Ref_count_obj2@V?$QOSEventHandler@V?$function@$$A6AXAEAUrmw_liveliness_changed_status_t@@@Z@std@@V?$shared_ptr@Urcl_subscription_t@@@2@@rclcpp@@@std@@UEAA@XZ
	??1?$_Ref_count_obj2@V?$QOSEventHandler@V?$function@$$A6AXAEAUrmw_liveliness_lost_status_t@@@Z@std@@V?$shared_ptr@Urcl_publisher_t@@@2@@rclcpp@@@std@@UEAA@XZ
	??1?$_Ref_count_obj2@V?$QOSEventHandler@V?$function@$$A6AXAEAUrmw_offered_deadline_missed_status_t@@@Z@std@@V?$shared_ptr@Urcl_publisher_t@@@2@@rclcpp@@@std@@UEAA@XZ
	??1?$_Ref_count_obj2@V?$QOSEventHandler@V?$function@$$A6AXAEAUrmw_qos_incompatible_event_status_t@@@Z@std@@V?$shared_ptr@Urcl_publisher_t@@@2@@rclcpp@@@std@@UEAA@XZ
	??1?$_Ref_count_obj2@V?$QOSEventHandler@V?$function@$$A6AXAEAUrmw_qos_incompatible_event_status_t@@@Z@std@@V?$shared_ptr@Urcl_subscription_t@@@2@@rclcpp@@@std@@UEAA@XZ
	??1?$_Ref_count_obj2@V?$QOSEventHandler@V?$function@$$A6AXAEAUrmw_requested_deadline_missed_status_t@@@Z@std@@V?$shared_ptr@Urcl_subscription_t@@@2@@rclcpp@@@std@@UEAA@XZ
	??1?$_Ref_count_obj2@V?$Service@UEmpty@srv@std_srvs@@@rclcpp@@@std@@UEAA@XZ
	??1?$_Ref_count_obj2@V?$Subscription@U?$PoseWithCovarianceStamped_@V?$allocator@X@std@@@msg@geometry_msgs@@V?$allocator@X@std@@V?$MessageMemoryStrategy@U?$PoseWithCovarianceStamped_@V?$allocator@X@std@@@msg@geometry_msgs@@V?$allocator@X@std@@@message_memory_strategy@rclcpp@@@rclcpp@@@std@@UEAA@XZ
	??1?$_Ref_count_obj2@V?$SubscriptionIntraProcess@U?$PoseWithCovarianceStamped_@V?$allocator@X@std@@@msg@geometry_msgs@@V?$allocator@X@std@@U?$default_delete@U?$PoseWithCovarianceStamped_@V?$allocator@X@std@@@msg@geometry_msgs@@@5@U123@@experimental@rclcpp@@@std@@UEAA@XZ
	??1?$_Ref_count_obj2@V?$SubscriptionTopicStatistics@U?$PoseWithCovarianceStamped_@V?$allocator@X@std@@@msg@geometry_msgs@@@topic_statistics@rclcpp@@@std@@UEAA@XZ
	??1?$_Ref_count_obj2@V?$WallTimer@V<lambda_dc0acc6c162c69a79de61b136908d558>@@$0A@@rclcpp@@@std@@UEAA@XZ
	??1?$_Ref_count_obj2@V?$allocator@D@std@@@std@@UEAA@XZ
	??1?$_Ref_count_obj2@V?$allocator@U?$MetricsMessage_@V?$allocator@X@std@@@msg@statistics_msgs@@@std@@@std@@UEAA@XZ
	??1?$_Ref_count_obj2@V?$allocator@U?$PoseWithCovarianceStamped_@V?$allocator@X@std@@@msg@geometry_msgs@@@std@@@std@@UEAA@XZ
	??1?$_Ref_count_obj2@V?$allocator@VSerializedMessage@rclcpp@@@std@@@std@@UEAA@XZ
	??1?$_Ref_count_obj2@V?$allocator@X@std@@@std@@UEAA@XZ
	??1?$_Ref_count_obj2@VClock@rclcpp@@@std@@UEAA@XZ
	??1?$_Ref_count_obj2@VSerializedMessage@rclcpp@@@std@@UEAA@XZ
	??1?$_Ref_count_obj_alloc3@U?$MetricsMessage_@V?$allocator@X@std@@@msg@statistics_msgs@@V?$allocator@U?$MetricsMessage_@V?$allocator@X@std@@@msg@statistics_msgs@@@std@@@std@@EEAA@XZ
	??1?$_Ref_count_obj_alloc3@U?$PoseWithCovarianceStamped_@V?$allocator@X@std@@@msg@geometry_msgs@@V?$allocator@U?$PoseWithCovarianceStamped_@V?$allocator@X@std@@@msg@geometry_msgs@@@std@@@std@@EEAA@XZ
	??1?$_Ref_count_resource@PEAU?$MetricsMessage_@V?$allocator@X@std@@@msg@statistics_msgs@@U?$default_delete@U?$MetricsMessage_@V?$allocator@X@std@@@msg@statistics_msgs@@@std@@@std@@UEAA@XZ
	??1?$_Ref_count_resource@PEAU?$PoseWithCovarianceStamped_@V?$allocator@X@std@@@msg@geometry_msgs@@U?$default_delete@U?$PoseWithCovarianceStamped_@V?$allocator@X@std@@@msg@geometry_msgs@@@std@@@std@@UEAA@XZ
	??1?$_Ref_count_resource@PEAU?$PoseWithCovarianceStamped_@V?$allocator@X@std@@@msg@geometry_msgs@@V<lambda_b05f438fa8a0717b905717c1aa9025d1>@@@std@@UEAA@XZ
	??1?$_Ref_count_resource@PEAUrcl_service_t@@V<lambda_4fa184f521fb41f33f9d01b40f5ac9d9>@@@std@@UEAA@XZ
	??1?$_Ref_count_resource@PEAVIntraProcessManager@experimental@rclcpp@@V<lambda_9dd0c8f7d82d5c8e326d3c0685e9bc2f>@@@std@@UEAA@XZ
	??1?$_Temporary_owner@V?$allocator@U?$MetricsMessage_@V?$allocator@X@std@@@msg@statistics_msgs@@@std@@@std@@QEAA@XZ
	??1?$_Temporary_owner_del@PEAUrcl_service_t@@V<lambda_4fa184f521fb41f33f9d01b40f5ac9d9>@@@std@@QEAA@XZ
	??1?$_Temporary_owner_del@PEAVIntraProcessManager@experimental@rclcpp@@V<lambda_9dd0c8f7d82d5c8e326d3c0685e9bc2f>@@@std@@QEAA@XZ
	??1?$_Tree_temp_node_alloc@V?$allocator@U?$_Tree_node@U?$pair@$$CBV?$basic_string@DU?$char_traits@D@std@@V?$allocator@D@2@@std@@PEAVAbstractParameter@karto@@@std@@PEAX@std@@@std@@@std@@QEAA@XZ
	??1?$_Tree_temp_node_alloc@V?$allocator@U?$_Tree_node@U?$pair@$$CBVName@karto@@PEAVSensor@2@@std@@PEAX@std@@@std@@@std@@QEAA@XZ
	??1?$basic_string@DU?$char_traits@D@std@@V?$allocator@D@2@@std@@QEAA@XZ
	??1?$basic_stringbuf@DU?$char_traits@D@std@@V?$allocator@D@2@@std@@UEAA@XZ
	??1?$basic_stringstream@DU?$char_traits@D@std@@V?$allocator@D@2@@std@@UEAA@XZ
	??1?$function@$$A6AXAEAUrmw_liveliness_changed_status_t@@@Z@std@@QEAA@XZ
	??1?$function@$$A6AXAEAUrmw_liveliness_lost_status_t@@@Z@std@@QEAA@XZ
	??1?$function@$$A6AXAEAUrmw_offered_deadline_missed_status_t@@@Z@std@@QEAA@XZ
	??1?$function@$$A6AXAEAUrmw_qos_incompatible_event_status_t@@@Z@std@@QEAA@XZ
	??1?$function@$$A6AXAEAUrmw_requested_deadline_missed_status_t@@@Z@std@@QEAA@XZ
	??1?$function@$$A6AXV?$shared_ptr@$$CBU?$PoseWithCovarianceStamped_@V?$allocator@X@std@@@msg@geometry_msgs@@@std@@@Z@std@@QEAA@XZ
	??1?$function@$$A6AXV?$shared_ptr@$$CBU?$PoseWithCovarianceStamped_@V?$allocator@X@std@@@msg@geometry_msgs@@@std@@AEBVMessageInfo@rclcpp@@@Z@std@@QEAA@XZ
	??1?$function@$$A6AXV?$shared_ptr@U?$Empty_Request_@V?$allocator@X@std@@@srv@std_srvs@@@std@@V?$shared_ptr@U?$Empty_Response_@V?$allocator@X@std@@@srv@std_srvs@@@2@@Z@std@@QEAA@XZ
	??1?$function@$$A6AXV?$shared_ptr@U?$PoseWithCovarianceStamped_@V?$allocator@X@std@@@msg@geometry_msgs@@@std@@@Z@std@@QEAA@XZ
	??1?$function@$$A6AXV?$shared_ptr@U?$PoseWithCovarianceStamped_@V?$allocator@X@std@@@msg@geometry_msgs@@@std@@AEBVMessageInfo@rclcpp@@@Z@std@@QEAA@XZ
	??1?$function@$$A6AXV?$unique_ptr@U?$PoseWithCovarianceStamped_@V?$allocator@X@std@@@msg@geometry_msgs@@U?$default_delete@U?$PoseWithCovarianceStamped_@V?$allocator@X@std@@@msg@geometry_msgs@@@std@@@std@@@Z@std@@QEAA@XZ
	??1?$function@$$A6AXV?$unique_ptr@U?$PoseWithCovarianceStamped_@V?$allocator@X@std@@@msg@geometry_msgs@@U?$default_delete@U?$PoseWithCovarianceStamped_@V?$allocator@X@std@@@msg@geometry_msgs@@@std@@@std@@AEBVMessageInfo@rclcpp@@@Z@std@@QEAA@XZ
	??1?$iserializer@Vbinary_iarchive@archive@boost@@U?$pair@$$CBHPEAVObject@karto@@@std@@@detail@archive@boost@@UEAA@XZ
	??1?$iserializer@Vbinary_iarchive@archive@boost@@U?$pair@$$CBV?$basic_string@DU?$char_traits@D@std@@V?$allocator@D@2@@std@@PEAVAbstractParameter@karto@@@std@@@detail@archive@boost@@UEAA@XZ
	??1?$iserializer@Vbinary_iarchive@archive@boost@@U?$pair@$$CBVName@karto@@PEAVSensor@2@@std@@@detail@archive@boost@@UEAA@XZ
	??1?$iserializer@Vbinary_iarchive@archive@boost@@V?$Parameter@V?$basic_string@DU?$char_traits@D@std@@V?$allocator@D@2@@std@@@karto@@@detail@archive@boost@@UEAA@XZ
	??1?$iserializer@Vbinary_iarchive@archive@boost@@V?$map@HPEAVObject@karto@@U?$less@H@std@@V?$allocator@U?$pair@$$CBHPEAVObject@karto@@@std@@@4@@std@@@detail@archive@boost@@UEAA@XZ
	??1?$iserializer@Vbinary_iarchive@archive@boost@@V?$map@V?$basic_string@DU?$char_traits@D@std@@V?$allocator@D@2@@std@@PEAVAbstractParameter@karto@@U?$less@V?$basic_string@DU?$char_traits@D@std@@V?$allocator@D@2@@std@@@2@V?$allocator@U?$pair@$$CBV?$basic_string@DU?$char_traits@D@std@@V?$allocator@D@2@@std@@PEAVAbstractParameter@karto@@@std@@@2@@std@@@detail@archive@boost@@UEAA@XZ
	??1?$iserializer@Vbinary_iarchive@archive@boost@@V?$map@VName@karto@@PEAVSensor@2@U?$less@VName@karto@@@std@@V?$allocator@U?$pair@$$CBVName@karto@@PEAVSensor@2@@std@@@5@@std@@@detail@archive@boost@@UEAA@XZ
	??1?$iserializer@Vbinary_iarchive@archive@boost@@V?$vector@PEAVAbstractParameter@karto@@V?$allocator@PEAVAbstractParameter@karto@@@std@@@std@@@detail@archive@boost@@UEAA@XZ
	??1?$iserializer@Vbinary_iarchive@archive@boost@@V?$vector@PEAVObject@karto@@V?$allocator@PEAVObject@karto@@@std@@@std@@@detail@archive@boost@@UEAA@XZ
	??1?$iserializer@Vbinary_iarchive@archive@boost@@VAbstractParameter@karto@@@detail@archive@boost@@UEAA@XZ
	??1?$iserializer@Vbinary_iarchive@archive@boost@@VDataset@karto@@@detail@archive@boost@@UEAA@XZ
	??1?$iserializer@Vbinary_iarchive@archive@boost@@VDatasetInfo@karto@@@detail@archive@boost@@UEAA@XZ
	??1?$iserializer@Vbinary_iarchive@archive@boost@@VName@karto@@@detail@archive@boost@@UEAA@XZ
	??1?$iserializer@Vbinary_iarchive@archive@boost@@VNonCopyable@karto@@@detail@archive@boost@@UEAA@XZ
	??1?$iserializer@Vbinary_iarchive@archive@boost@@VObject@karto@@@detail@archive@boost@@UEAA@XZ
	??1?$iserializer@Vbinary_iarchive@archive@boost@@VParameterManager@karto@@@detail@archive@boost@@UEAA@XZ
	??1?$lock_guard@Vmutex@std@@@std@@QEAA@XZ
	??1?$lock_guard@Vrecursive_mutex@std@@@std@@QEAA@XZ
	??1?$oserializer@Vbinary_oarchive@archive@boost@@U?$pair@$$CBHPEAVObject@karto@@@std@@@detail@archive@boost@@UEAA@XZ
	??1?$oserializer@Vbinary_oarchive@archive@boost@@U?$pair@$$CBV?$basic_string@DU?$char_traits@D@std@@V?$allocator@D@2@@std@@PEAVAbstractParameter@karto@@@std@@@detail@archive@boost@@UEAA@XZ
	??1?$oserializer@Vbinary_oarchive@archive@boost@@U?$pair@$$CBVName@karto@@PEAVSensor@2@@std@@@detail@archive@boost@@UEAA@XZ
	??1?$oserializer@Vbinary_oarchive@archive@boost@@V?$Parameter@V?$basic_string@DU?$char_traits@D@std@@V?$allocator@D@2@@std@@@karto@@@detail@archive@boost@@UEAA@XZ
	??1?$oserializer@Vbinary_oarchive@archive@boost@@V?$map@HPEAVObject@karto@@U?$less@H@std@@V?$allocator@U?$pair@$$CBHPEAVObject@karto@@@std@@@4@@std@@@detail@archive@boost@@UEAA@XZ
	??1?$oserializer@Vbinary_oarchive@archive@boost@@V?$map@V?$basic_string@DU?$char_traits@D@std@@V?$allocator@D@2@@std@@PEAVAbstractParameter@karto@@U?$less@V?$basic_string@DU?$char_traits@D@std@@V?$allocator@D@2@@std@@@2@V?$allocator@U?$pair@$$CBV?$basic_string@DU?$char_traits@D@std@@V?$allocator@D@2@@std@@PEAVAbstractParameter@karto@@@std@@@2@@std@@@detail@archive@boost@@UEAA@XZ
	??1?$oserializer@Vbinary_oarchive@archive@boost@@V?$map@VName@karto@@PEAVSensor@2@U?$less@VName@karto@@@std@@V?$allocator@U?$pair@$$CBVName@karto@@PEAVSensor@2@@std@@@5@@std@@@detail@archive@boost@@UEAA@XZ
	??1?$oserializer@Vbinary_oarchive@archive@boost@@V?$vector@PEAVAbstractParameter@karto@@V?$allocator@PEAVAbstractParameter@karto@@@std@@@std@@@detail@archive@boost@@UEAA@XZ
	??1?$oserializer@Vbinary_oarchive@archive@boost@@V?$vector@PEAVObject@karto@@V?$allocator@PEAVObject@karto@@@std@@@std@@@detail@archive@boost@@UEAA@XZ
	??1?$oserializer@Vbinary_oarchive@archive@boost@@VAbstractParameter@karto@@@detail@archive@boost@@UEAA@XZ
	??1?$oserializer@Vbinary_oarchive@archive@boost@@VDataset@karto@@@detail@archive@boost@@UEAA@XZ
	??1?$oserializer@Vbinary_oarchive@archive@boost@@VDatasetInfo@karto@@@detail@archive@boost@@UEAA@XZ
	??1?$oserializer@Vbinary_oarchive@archive@boost@@VName@karto@@@detail@archive@boost@@UEAA@XZ
	??1?$oserializer@Vbinary_oarchive@archive@boost@@VNonCopyable@karto@@@detail@archive@boost@@UEAA@XZ
	??1?$oserializer@Vbinary_oarchive@archive@boost@@VObject@karto@@@detail@archive@boost@@UEAA@XZ
	??1?$oserializer@Vbinary_oarchive@archive@boost@@VParameterManager@karto@@@detail@archive@boost@@UEAA@XZ
	??1?$pointer_iserializer@Vbinary_iarchive@archive@boost@@VDatasetInfo@karto@@@detail@archive@boost@@UEAA@XZ
	??1?$pointer_iserializer@Vbinary_iarchive@archive@boost@@VParameterManager@karto@@@detail@archive@boost@@UEAA@XZ
	??1?$pointer_oserializer@Vbinary_oarchive@archive@boost@@VDatasetInfo@karto@@@detail@archive@boost@@UEAA@XZ
	??1?$pointer_oserializer@Vbinary_oarchive@archive@boost@@VParameterManager@karto@@@detail@archive@boost@@UEAA@XZ
	??1?$refcount_ptr@Uerror_info_container@exception_detail@boost@@@exception_detail@boost@@QEAA@XZ
	??1?$shared_lock@Vshared_timed_mutex@std@@@std@@QEAA@XZ
	??1?$shared_ptr@$$CBU?$LaserScan_@V?$allocator@X@std@@@msg@sensor_msgs@@@std@@QEAA@XZ
	??1?$shared_ptr@$$CBU?$MetricsMessage_@V?$allocator@X@std@@@msg@statistics_msgs@@@std@@QEAA@XZ
	??1?$shared_ptr@$$CBU?$PoseWithCovarianceStamped_@V?$allocator@X@std@@@msg@geometry_msgs@@@std@@QEAA@XZ
	??1?$shared_ptr@U?$DeserializePoseGraph_Request_@V?$allocator@X@std@@@srv@slam_toolbox@@@std@@QEAA@XZ
	??1?$shared_ptr@U?$DeserializePoseGraph_Response_@V?$allocator@X@std@@@srv@slam_toolbox@@@std@@QEAA@XZ
	??1?$shared_ptr@U?$Empty_Request_@V?$allocator@X@std@@@srv@std_srvs@@@std@@QEAA@XZ
	??1?$shared_ptr@U?$Empty_Response_@V?$allocator@X@std@@@srv@std_srvs@@@std@@QEAA@XZ
	??1?$shared_ptr@U?$MetricsMessage_@V?$allocator@X@std@@@msg@statistics_msgs@@@std@@QEAA@XZ
	??1?$shared_ptr@U?$PoseWithCovarianceStamped_@V?$allocator@X@std@@@msg@geometry_msgs@@@std@@QEAA@XZ
	??1?$shared_ptr@U?$SerializePoseGraph_Request_@V?$allocator@X@std@@@srv@slam_toolbox@@@std@@QEAA@XZ
	??1?$shared_ptr@U?$SerializePoseGraph_Response_@V?$allocator@X@std@@@srv@slam_toolbox@@@std@@QEAA@XZ
	??1?$shared_ptr@Urcl_node_t@@@std@@QEAA@XZ
	??1?$shared_ptr@Urcl_publisher_t@@@std@@QEAA@XZ
	??1?$shared_ptr@Urcl_subscription_t@@@std@@QEAA@XZ
	??1?$shared_ptr@Urmw_request_id_t@@@std@@QEAA@XZ
	??1?$shared_ptr@V?$MessageMemoryStrategy@U?$PoseWithCovarianceStamped_@V?$allocator@X@std@@@msg@geometry_msgs@@V?$allocator@X@std@@@message_memory_strategy@rclcpp@@@std@@QEAA@XZ
	??1?$shared_ptr@V?$Publisher@U?$MetricsMessage_@V?$allocator@X@std@@@msg@statistics_msgs@@V?$allocator@X@std@@@rclcpp@@@std@@QEAA@XZ
	??1?$shared_ptr@V?$QOSEventHandler@V<lambda_3f9548421920b881c8df116e1c596558>@@V?$shared_ptr@Urcl_subscription_t@@@std@@@rclcpp@@@std@@QEAA@XZ
	??1?$shared_ptr@V?$QOSEventHandler@V<lambda_c2318a75abbc27dc766add2e36d9f8d4>@@V?$shared_ptr@Urcl_publisher_t@@@std@@@rclcpp@@@std@@QEAA@XZ
	??1?$shared_ptr@V?$QOSEventHandler@V?$function@$$A6AXAEAUrmw_liveliness_changed_status_t@@@Z@std@@V?$shared_ptr@Urcl_subscription_t@@@2@@rclcpp@@@std@@QEAA@XZ
	??1?$shared_ptr@V?$QOSEventHandler@V?$function@$$A6AXAEAUrmw_liveliness_lost_status_t@@@Z@std@@V?$shared_ptr@Urcl_publisher_t@@@2@@rclcpp@@@std@@QEAA@XZ
	??1?$shared_ptr@V?$QOSEventHandler@V?$function@$$A6AXAEAUrmw_offered_deadline_missed_status_t@@@Z@std@@V?$shared_ptr@Urcl_publisher_t@@@2@@rclcpp@@@std@@QEAA@XZ
	??1?$shared_ptr@V?$QOSEventHandler@V?$function@$$A6AXAEAUrmw_qos_incompatible_event_status_t@@@Z@std@@V?$shared_ptr@Urcl_publisher_t@@@2@@rclcpp@@@std@@QEAA@XZ
	??1?$shared_ptr@V?$QOSEventHandler@V?$function@$$A6AXAEAUrmw_qos_incompatible_event_status_t@@@Z@std@@V?$shared_ptr@Urcl_subscription_t@@@2@@rclcpp@@@std@@QEAA@XZ
	??1?$shared_ptr@V?$QOSEventHandler@V?$function@$$A6AXAEAUrmw_requested_deadline_missed_status_t@@@Z@std@@V?$shared_ptr@Urcl_subscription_t@@@2@@rclcpp@@@std@@QEAA@XZ
	??1?$shared_ptr@V?$Service@UEmpty@srv@std_srvs@@@rclcpp@@@std@@QEAA@XZ
	??1?$shared_ptr@V?$Subscription@U?$PoseWithCovarianceStamped_@V?$allocator@X@std@@@msg@geometry_msgs@@V?$allocator@X@std@@V?$MessageMemoryStrategy@U?$PoseWithCovarianceStamped_@V?$allocator@X@std@@@msg@geometry_msgs@@V?$allocator@X@std@@@message_memory_strategy@rclcpp@@@rclcpp@@@std@@QEAA@XZ
	??1?$shared_ptr@V?$SubscriptionIntraProcess@U?$MetricsMessage_@V?$allocator@X@std@@@msg@statistics_msgs@@V?$allocator@X@std@@U?$default_delete@U?$MetricsMessage_@V?$allocator@X@std@@@msg@statistics_msgs@@@5@U123@@experimental@rclcpp@@@std@@QEAA@XZ
	??1?$shared_ptr@V?$SubscriptionIntraProcess@U?$PoseWithCovarianceStamped_@V?$allocator@X@std@@@msg@geometry_msgs@@V?$allocator@X@std@@U?$default_delete@U?$PoseWithCovarianceStamped_@V?$allocator@X@std@@@msg@geometry_msgs@@@5@U123@@experimental@rclcpp@@@std@@QEAA@XZ
	??1?$shared_ptr@V?$SubscriptionTopicStatistics@U?$PoseWithCovarianceStamped_@V?$allocator@X@std@@@msg@geometry_msgs@@@topic_statistics@rclcpp@@@std@@QEAA@XZ
	??1?$shared_ptr@V?$WallTimer@V<lambda_dc0acc6c162c69a79de61b136908d558>@@$0A@@rclcpp@@@std@@QEAA@XZ
	??1?$shared_ptr@V?$allocator@D@std@@@std@@QEAA@XZ
	??1?$shared_ptr@V?$allocator@U?$MetricsMessage_@V?$allocator@X@std@@@msg@statistics_msgs@@@std@@@std@@QEAA@XZ
	??1?$shared_ptr@V?$allocator@U?$PoseWithCovarianceStamped_@V?$allocator@X@std@@@msg@geometry_msgs@@@std@@@std@@QEAA@XZ
	??1?$shared_ptr@V?$allocator@VSerializedMessage@rclcpp@@@std@@@std@@QEAA@XZ
	??1?$shared_ptr@V?$allocator@X@std@@@std@@QEAA@XZ
	??1?$shared_ptr@VCallbackGroup@rclcpp@@@std@@QEAA@XZ
	??1?$shared_ptr@VClock@rclcpp@@@std@@QEAA@XZ
	??1?$shared_ptr@VContext@rclcpp@@@std@@QEAA@XZ
	??1?$shared_ptr@VIntraProcessManager@experimental@rclcpp@@@std@@QEAA@XZ
	??1?$shared_ptr@VNodeBaseInterface@node_interfaces@rclcpp@@@std@@QEAA@XZ
	??1?$shared_ptr@VNodeServicesInterface@node_interfaces@rclcpp@@@std@@QEAA@XZ
	??1?$shared_ptr@VNodeTopicsInterface@node_interfaces@rclcpp@@@std@@QEAA@XZ
	??1?$shared_ptr@VPublisherBase@rclcpp@@@std@@QEAA@XZ
	??1?$shared_ptr@VRMWImplementationSpecificSubscriptionPayload@detail@rclcpp@@@std@@QEAA@XZ
	??1?$shared_ptr@VServiceBase@rclcpp@@@std@@QEAA@XZ
	??1?$shared_ptr@VSubscriptionBase@rclcpp@@@std@@QEAA@XZ
	??1?$shared_ptr@VSubscriptionIntraProcessBase@experimental@rclcpp@@@std@@QEAA@XZ
	??1?$shared_ptr@VTimerBase@rclcpp@@@std@@QEAA@XZ
	??1?$shared_ptr@X@std@@QEAA@XZ
	??1?$stack_construct@Vbinary_iarchive@archive@boost@@U?$pair@$$CBV?$basic_string@DU?$char_traits@D@std@@V?$allocator@D@2@@std@@PEAVAbstractParameter@karto@@@std@@@detail@serialization@boost@@QEAA@XZ
	??1?$stack_construct@Vbinary_iarchive@archive@boost@@U?$pair@$$CBVName@karto@@PEAVSensor@2@@std@@@detail@serialization@boost@@QEAA@XZ
	??1?$unique_lock@Vmutex@boost@@@boost@@QEAA@XZ
	??1?$unique_lock@Vmutex@std@@@std@@QEAA@XZ
	??1?$unique_ptr@U?$MetricsMessage_@V?$allocator@X@std@@@msg@statistics_msgs@@U?$default_delete@U?$MetricsMessage_@V?$allocator@X@std@@@msg@statistics_msgs@@@std@@@std@@QEAA@XZ
	??1?$unique_ptr@U?$PoseWithCovarianceStamped_@V?$allocator@X@std@@@msg@geometry_msgs@@U?$default_delete@U?$PoseWithCovarianceStamped_@V?$allocator@X@std@@@msg@geometry_msgs@@@std@@@std@@QEAA@XZ
	??1?$unique_ptr@V?$BufferImplementationBase@V?$shared_ptr@$$CBU?$PoseWithCovarianceStamped_@V?$allocator@X@std@@@msg@geometry_msgs@@@std@@@buffers@experimental@rclcpp@@U?$default_delete@V?$BufferImplementationBase@V?$shared_ptr@$$CBU?$PoseWithCovarianceStamped_@V?$allocator@X@std@@@msg@geometry_msgs@@@std@@@buffers@experimental@rclcpp@@@std@@@std@@QEAA@XZ
	??1?$unique_ptr@V?$BufferImplementationBase@V?$unique_ptr@U?$PoseWithCovarianceStamped_@V?$allocator@X@std@@@msg@geometry_msgs@@U?$default_delete@U?$PoseWithCovarianceStamped_@V?$allocator@X@std@@@msg@geometry_msgs@@@std@@@std@@@buffers@experimental@rclcpp@@U?$default_delete@V?$BufferImplementationBase@V?$unique_ptr@U?$PoseWithCovarianceStamped_@V?$allocator@X@std@@@msg@geometry_msgs@@U?$default_delete@U?$PoseWithCovarianceStamped_@V?$allocator@X@std@@@msg@geometry_msgs@@@std@@@std@@@buffers@experimental@rclcpp@@@std@@@std@@QEAA@XZ
	??1?$unique_ptr@V?$IntraProcessBuffer@U?$PoseWithCovarianceStamped_@V?$allocator@X@std@@@msg@geometry_msgs@@V?$allocator@X@std@@U?$default_delete@U?$PoseWithCovarianceStamped_@V?$allocator@X@std@@@msg@geometry_msgs@@@5@@buffers@experimental@rclcpp@@U?$default_delete@V?$IntraProcessBuffer@U?$PoseWithCovarianceStamped_@V?$allocator@X@std@@@msg@geometry_msgs@@V?$allocator@X@std@@U?$default_delete@U?$PoseWithCovarianceStamped_@V?$allocator@X@std@@@msg@geometry_msgs@@@5@@buffers@experimental@rclcpp@@@std@@@std@@QEAA@XZ
	??1?$unique_ptr@V?$ReceivedMessageAgeCollector@U?$PoseWithCovarianceStamped_@V?$allocator@X@std@@@msg@geometry_msgs@@@topic_statistics_collector@libstatistics_collector@@U?$default_delete@V?$ReceivedMessageAgeCollector@U?$PoseWithCovarianceStamped_@V?$allocator@X@std@@@msg@geometry_msgs@@@topic_statistics_collector@libstatistics_collector@@@std@@@std@@QEAA@XZ
	??1?$unique_ptr@V?$ReceivedMessagePeriodCollector@U?$PoseWithCovarianceStamped_@V?$allocator@X@std@@@msg@geometry_msgs@@@topic_statistics_collector@libstatistics_collector@@U?$default_delete@V?$ReceivedMessagePeriodCollector@U?$PoseWithCovarianceStamped_@V?$allocator@X@std@@@msg@geometry_msgs@@@topic_statistics_collector@libstatistics_collector@@@std@@@std@@QEAA@XZ
	??1?$unique_ptr@V?$RingBufferImplementation@V?$shared_ptr@$$CBU?$PoseWithCovarianceStamped_@V?$allocator@X@std@@@msg@geometry_msgs@@@std@@@buffers@experimental@rclcpp@@U?$default_delete@V?$RingBufferImplementation@V?$shared_ptr@$$CBU?$PoseWithCovarianceStamped_@V?$allocator@X@std@@@msg@geometry_msgs@@@std@@@buffers@experimental@rclcpp@@@std@@@std@@QEAA@XZ
	??1?$unique_ptr@V?$RingBufferImplementation@V?$unique_ptr@U?$PoseWithCovarianceStamped_@V?$allocator@X@std@@@msg@geometry_msgs@@U?$default_delete@U?$PoseWithCovarianceStamped_@V?$allocator@X@std@@@msg@geometry_msgs@@@std@@@std@@@buffers@experimental@rclcpp@@U?$default_delete@V?$RingBufferImplementation@V?$unique_ptr@U?$PoseWithCovarianceStamped_@V?$allocator@X@std@@@msg@geometry_msgs@@U?$default_delete@U?$PoseWithCovarianceStamped_@V?$allocator@X@std@@@msg@geometry_msgs@@@std@@@std@@@buffers@experimental@rclcpp@@@std@@@std@@QEAA@XZ
	??1?$unique_ptr@V_Facet_base@std@@U?$default_delete@V_Facet_base@std@@@2@@std@@QEAA@XZ
	??1?$vector@U?$MetricsMessage_@V?$allocator@X@std@@@msg@statistics_msgs@@V?$allocator@U?$MetricsMessage_@V?$allocator@X@std@@@msg@statistics_msgs@@@std@@@std@@QEAA@XZ
	??1?$vector@V?$shared_ptr@$$CBU?$PoseWithCovarianceStamped_@V?$allocator@X@std@@@msg@geometry_msgs@@@std@@V?$allocator@V?$shared_ptr@$$CBU?$PoseWithCovarianceStamped_@V?$allocator@X@std@@@msg@geometry_msgs@@@std@@@2@@std@@QEAA@XZ
	??1?$vector@V?$unique_ptr@U?$PoseWithCovarianceStamped_@V?$allocator@X@std@@@msg@geometry_msgs@@U?$default_delete@U?$PoseWithCovarianceStamped_@V?$allocator@X@std@@@msg@geometry_msgs@@@std@@@std@@V?$allocator@V?$unique_ptr@U?$PoseWithCovarianceStamped_@V?$allocator@X@std@@@msg@geometry_msgs@@U?$default_delete@U?$PoseWithCovarianceStamped_@V?$allocator@X@std@@@msg@geometry_msgs@@@std@@@std@@@2@@std@@QEAA@XZ
	??1?$vector@V?$unique_ptr@V?$TopicStatisticsCollector@U?$PoseWithCovarianceStamped_@V?$allocator@X@std@@@msg@geometry_msgs@@@topic_statistics_collector@libstatistics_collector@@U?$default_delete@V?$TopicStatisticsCollector@U?$PoseWithCovarianceStamped_@V?$allocator@X@std@@@msg@geometry_msgs@@@topic_statistics_collector@libstatistics_collector@@@std@@@std@@V?$allocator@V?$unique_ptr@V?$TopicStatisticsCollector@U?$PoseWithCovarianceStamped_@V?$allocator@X@std@@@msg@geometry_msgs@@@topic_statistics_collector@libstatistics_collector@@U?$default_delete@V?$TopicStatisticsCollector@U?$PoseWithCovarianceStamped_@V?$allocator@X@std@@@msg@geometry_msgs@@@topic_statistics_collector@libstatistics_collector@@@std@@@std@@@2@@std@@QEAA@XZ
	??1?$vector@_KV?$allocator@_K@std@@@std@@QEAA@XZ
	??1?$void_caster_primitive@V?$Parameter@V?$basic_string@DU?$char_traits@D@std@@V?$allocator@D@2@@std@@@karto@@VAbstractParameter@2@@void_cast_detail@serialization@boost@@UEAA@XZ
	??1?$void_caster_primitive@VDatasetInfo@karto@@VObject@2@@void_cast_detail@serialization@boost@@UEAA@XZ
	??1?$void_caster_primitive@VObject@karto@@VNonCopyable@2@@void_cast_detail@serialization@boost@@UEAA@XZ
	??1?$void_caster_primitive@VParameterManager@karto@@VNonCopyable@2@@void_cast_detail@serialization@boost@@UEAA@XZ
	??1?$weak_ptr@Urcl_node_t@@@std@@QEAA@XZ
	??1?$weak_ptr@V?$SubscriptionTopicStatistics@U?$PoseWithCovarianceStamped_@V?$allocator@X@std@@@msg@geometry_msgs@@@topic_statistics@rclcpp@@@std@@QEAA@XZ
	??1?$wrapexcept@Vlock_error@boost@@@boost@@UEAA@XZ
	??1?$wrapexcept@Vthread_resource_error@boost@@@boost@@UEAA@XZ
	??1AbstractParameter@karto@@UEAA@XZ
	??1DatasetInfo@karto@@UEAA@XZ
	??1IntraProcessBufferBase@buffers@experimental@rclcpp@@UEAA@XZ
	??1Logger@rclcpp@@QEAA@XZ
	??1MapSaver@map_saver@@QEAA@XZ
	??1Name@karto@@UEAA@XZ
	??1PublisherEventCallbacks@rclcpp@@QEAA@XZ
	??1PublisherFactory@rclcpp@@QEAA@XZ
	??1PublisherOptionsBase@rclcpp@@QEAA@XZ
	??1RCLErrorBase@exceptions@rclcpp@@UEAA@XZ
	??1SubscriptionEventCallbacks@rclcpp@@QEAA@XZ
	??1SubscriptionFactory@rclcpp@@QEAA@XZ
	??1SubscriptionIntraProcessBase@experimental@rclcpp@@UEAA@XZ
	??1SubscriptionOptionsBase@rclcpp@@QEAA@XZ
	??1TopicStatisticsOptions@SubscriptionOptionsBase@rclcpp@@QEAA@XZ
	??1UnsupportedEventTypeException@rclcpp@@UEAA@XZ
	??1_Guard_type@?1???$_Global_new@V?$_Func_impl_no_alloc@V<lambda_33d3207aa9cfabd17909961fe837b8a9>@@V?$shared_ptr@VSubscriptionBase@rclcpp@@@std@@PEAVNodeBaseInterface@node_interfaces@rclcpp@@AEBV?$basic_string@DU?$char_traits@D@std@@V?$allocator@D@2@@3@AEBVQoS@6@@std@@AEBV<lambda_33d3207aa9cfabd17909961fe837b8a9>@@@std@@YAPEAV?$_Func_impl_no_alloc@V<lambda_33d3207aa9cfabd17909961fe837b8a9>@@V?$shared_ptr@VSubscriptionBase@rclcpp@@@std@@PEAVNodeBaseInterface@node_interfaces@rclcpp@@AEBV?$basic_string@DU?$char_traits@D@std@@V?$allocator@D@2@@3@AEBVQoS@6@@1@AEBV<lambda_33d3207aa9cfabd17909961fe837b8a9>@@@Z@QEAA@XZ
	??1_Guard_type@?1???$_Global_new@V?$_Func_impl_no_alloc@V<lambda_33d3207aa9cfabd17909961fe837b8a9>@@V?$shared_ptr@VSubscriptionBase@rclcpp@@@std@@PEAVNodeBaseInterface@node_interfaces@rclcpp@@AEBV?$basic_string@DU?$char_traits@D@std@@V?$allocator@D@2@@3@AEBVQoS@6@@std@@V<lambda_33d3207aa9cfabd17909961fe837b8a9>@@@std@@YAPEAV?$_Func_impl_no_alloc@V<lambda_33d3207aa9cfabd17909961fe837b8a9>@@V?$shared_ptr@VSubscriptionBase@rclcpp@@@std@@PEAVNodeBaseInterface@node_interfaces@rclcpp@@AEBV?$basic_string@DU?$char_traits@D@std@@V?$allocator@D@2@@3@AEBVQoS@6@@1@$$QEAV<lambda_33d3207aa9cfabd17909961fe837b8a9>@@@Z@QEAA@XZ
	??1_Guard_type@?1???$_Global_new@V?$_Func_impl_no_alloc@V<lambda_83c40cceffae39b19729e050b3a9ba8e>@@V?$shared_ptr@VPublisherBase@rclcpp@@@std@@PEAVNodeBaseInterface@node_interfaces@rclcpp@@AEBV?$basic_string@DU?$char_traits@D@std@@V?$allocator@D@2@@3@AEBVQoS@6@@std@@AEBV<lambda_83c40cceffae39b19729e050b3a9ba8e>@@@std@@YAPEAV?$_Func_impl_no_alloc@V<lambda_83c40cceffae39b19729e050b3a9ba8e>@@V?$shared_ptr@VPublisherBase@rclcpp@@@std@@PEAVNodeBaseInterface@node_interfaces@rclcpp@@AEBV?$basic_string@DU?$char_traits@D@std@@V?$allocator@D@2@@3@AEBVQoS@6@@1@AEBV<lambda_83c40cceffae39b19729e050b3a9ba8e>@@@Z@QEAA@XZ
	??1_Guard_type@?1???$_Global_new@V?$_Func_impl_no_alloc@V<lambda_83c40cceffae39b19729e050b3a9ba8e>@@V?$shared_ptr@VPublisherBase@rclcpp@@@std@@PEAVNodeBaseInterface@node_interfaces@rclcpp@@AEBV?$basic_string@DU?$char_traits@D@std@@V?$allocator@D@2@@3@AEBVQoS@6@@std@@V<lambda_83c40cceffae39b19729e050b3a9ba8e>@@@std@@YAPEAV?$_Func_impl_no_alloc@V<lambda_83c40cceffae39b19729e050b3a9ba8e>@@V?$shared_ptr@VPublisherBase@rclcpp@@@std@@PEAVNodeBaseInterface@node_interfaces@rclcpp@@AEBV?$basic_string@DU?$char_traits@D@std@@V?$allocator@D@2@@3@AEBVQoS@6@@1@$$QEAV<lambda_83c40cceffae39b19729e050b3a9ba8e>@@@Z@QEAA@XZ
	??1_Ref_count_base@std@@UEAA@XZ
	??1_Sentry_base@?$basic_istream@DU?$char_traits@D@std@@@std@@QEAA@XZ
	??1_Sentry_base@?$basic_ostream@DU?$char_traits@D@std@@@std@@QEAA@XZ
	??1bad_alloc@std@@UEAA@XZ
	??1bad_alloc_@exception_detail@boost@@UEAA@XZ
	??1bad_array_new_length@std@@UEAA@XZ
	??1bad_cast@std@@UEAA@XZ
	??1bad_exception_@exception_detail@boost@@UEAA@XZ
	??1bad_weak_ptr@std@@UEAA@XZ
	??1clone_base@exception_detail@boost@@UEAA@XZ
	??1deleter@?$wrapexcept@Vlock_error@boost@@@boost@@QEAA@XZ
	??1deleter@?$wrapexcept@Vthread_resource_error@boost@@@boost@@QEAA@XZ
	??1exception@boost@@MEAA@XZ
	??1exception@std@@UEAA@XZ
	??1invalid_argument@std@@UEAA@XZ
	??1local_free@detail@system@boost@@QEAA@XZ
	??1locale@std@@QEAA@XZ
	??1lock_error@boost@@UEAA@XZ
	??1mutex@std@@QEAA@XZ
	??1runtime_error@std@@UEAA@XZ
	??1sentry@?$basic_istream@DU?$char_traits@D@std@@@std@@QEAA@XZ
	??1sentry@?$basic_ostream@DU?$char_traits@D@std@@@std@@QEAA@XZ
	??1shared_count@detail@boost@@QEAA@XZ
	??1sp_counted_base@detail@boost@@UEAA@XZ
	??1system_error@system@boost@@UEAA@XZ
	??1thread_resource_error@boost@@UEAA@XZ
	??1void_caster@void_cast_detail@serialization@boost@@UEAA@XZ
	??4?$basic_string@DU?$char_traits@D@std@@V?$allocator@D@2@@std@@QEAAAEAV01@$$QEAV01@@Z
	??E?$_Tree_unchecked_const_iterator@V?$_Tree_val@U?$_Tree_simple_types@U?$pair@$$CBHPEAVObject@karto@@@std@@@std@@@std@@U_Iterator_base0@2@@std@@QEAAAEAV01@XZ
	??E?$_Tree_unchecked_const_iterator@V?$_Tree_val@U?$_Tree_simple_types@U?$pair@$$CBV?$basic_string@DU?$char_traits@D@std@@V?$allocator@D@2@@std@@PEAVAbstractParameter@karto@@@std@@@std@@@std@@U_Iterator_base0@2@@std@@QEAAAEAV01@XZ
	??E?$_Tree_unchecked_const_iterator@V?$_Tree_val@U?$_Tree_simple_types@U?$pair@$$CBVName@karto@@PEAVSensor@2@@std@@@std@@@std@@U_Iterator_base0@2@@std@@QEAAAEAV01@XZ
	??R<lambda_3f9548421920b881c8df116e1c596558>@@QEBA@AEAUrmw_qos_incompatible_event_status_t@@@Z
	??R<lambda_4fa184f521fb41f33f9d01b40f5ac9d9>@@QEBA@PEAUrcl_service_t@@@Z
	??R<lambda_83c40cceffae39b19729e050b3a9ba8e>@@QEBA?AV?$shared_ptr@V?$Publisher@U?$MetricsMessage_@V?$allocator@X@std@@@msg@statistics_msgs@@V?$allocator@X@std@@@rclcpp@@@std@@PEAVNodeBaseInterface@node_interfaces@rclcpp@@AEBV?$basic_string@DU?$char_traits@D@std@@V?$allocator@D@2@@2@AEBVQoS@5@@Z
	??R<lambda_c2318a75abbc27dc766add2e36d9f8d4>@@QEBA@AEAUrmw_qos_incompatible_event_status_t@@@Z
	??R<lambda_dc0acc6c162c69a79de61b136908d558>@@QEBA@XZ
	??R?$_Func_class@XAEAUrmw_liveliness_changed_status_t@@@std@@QEBAXAEAUrmw_liveliness_changed_status_t@@@Z
	??R?$_Func_class@XAEAUrmw_liveliness_lost_status_t@@@std@@QEBAXAEAUrmw_liveliness_lost_status_t@@@Z
	??R?$_Func_class@XAEAUrmw_offered_deadline_missed_status_t@@@std@@QEBAXAEAUrmw_offered_deadline_missed_status_t@@@Z
	??R?$_Func_class@XAEAUrmw_qos_incompatible_event_status_t@@@std@@QEBAXAEAUrmw_qos_incompatible_event_status_t@@@Z
	??R?$_Func_class@XAEAUrmw_requested_deadline_missed_status_t@@@std@@QEBAXAEAUrmw_requested_deadline_missed_status_t@@@Z
	??R?$_Func_class@XV?$shared_ptr@$$CBU?$PoseWithCovarianceStamped_@V?$allocator@X@std@@@msg@geometry_msgs@@@std@@@std@@QEBAXV?$shared_ptr@$$CBU?$PoseWithCovarianceStamped_@V?$allocator@X@std@@@msg@geometry_msgs@@@1@@Z
	??R?$_Func_class@XV?$shared_ptr@$$CBU?$PoseWithCovarianceStamped_@V?$allocator@X@std@@@msg@geometry_msgs@@@std@@AEBVMessageInfo@rclcpp@@@std@@QEBAXV?$shared_ptr@$$CBU?$PoseWithCovarianceStamped_@V?$allocator@X@std@@@msg@geometry_msgs@@@1@AEBVMessageInfo@rclcpp@@@Z
	??R?$_Func_class@XV?$shared_ptr@U?$Empty_Request_@V?$allocator@X@std@@@srv@std_srvs@@@std@@V?$shared_ptr@U?$Empty_Response_@V?$allocator@X@std@@@srv@std_srvs@@@2@@std@@QEBAXV?$shared_ptr@U?$Empty_Request_@V?$allocator@X@std@@@srv@std_srvs@@@1@V?$shared_ptr@U?$Empty_Response_@V?$allocator@X@std@@@srv@std_srvs@@@1@@Z
	??R?$_Func_class@XV?$shared_ptr@U?$PoseWithCovarianceStamped_@V?$allocator@X@std@@@msg@geometry_msgs@@@std@@@std@@QEBAXV?$shared_ptr@U?$PoseWithCovarianceStamped_@V?$allocator@X@std@@@msg@geometry_msgs@@@1@@Z
	??R?$_Func_class@XV?$shared_ptr@U?$PoseWithCovarianceStamped_@V?$allocator@X@std@@@msg@geometry_msgs@@@std@@AEBVMessageInfo@rclcpp@@@std@@QEBAXV?$shared_ptr@U?$PoseWithCovarianceStamped_@V?$allocator@X@std@@@msg@geometry_msgs@@@1@AEBVMessageInfo@rclcpp@@@Z
	??R?$_Func_class@XV?$shared_ptr@Urmw_request_id_t@@@std@@V?$shared_ptr@U?$Empty_Request_@V?$allocator@X@std@@@srv@std_srvs@@@2@V?$shared_ptr@U?$Empty_Response_@V?$allocator@X@std@@@srv@std_srvs@@@2@@std@@QEBAXV?$shared_ptr@Urmw_request_id_t@@@1@V?$shared_ptr@U?$Empty_Request_@V?$allocator@X@std@@@srv@std_srvs@@@1@V?$shared_ptr@U?$Empty_Response_@V?$allocator@X@std@@@srv@std_srvs@@@1@@Z
	??R?$_Func_class@XV?$unique_ptr@U?$PoseWithCovarianceStamped_@V?$allocator@X@std@@@msg@geometry_msgs@@U?$default_delete@U?$PoseWithCovarianceStamped_@V?$allocator@X@std@@@msg@geometry_msgs@@@std@@@std@@@std@@QEBAXV?$unique_ptr@U?$PoseWithCovarianceStamped_@V?$allocator@X@std@@@msg@geometry_msgs@@U?$default_delete@U?$PoseWithCovarianceStamped_@V?$allocator@X@std@@@msg@geometry_msgs@@@std@@@1@@Z
	??R?$_Func_class@XV?$unique_ptr@U?$PoseWithCovarianceStamped_@V?$allocator@X@std@@@msg@geometry_msgs@@U?$default_delete@U?$PoseWithCovarianceStamped_@V?$allocator@X@std@@@msg@geometry_msgs@@@std@@@std@@AEBVMessageInfo@rclcpp@@@std@@QEBAXV?$unique_ptr@U?$PoseWithCovarianceStamped_@V?$allocator@X@std@@@msg@geometry_msgs@@U?$default_delete@U?$PoseWithCovarianceStamped_@V?$allocator@X@std@@@msg@geometry_msgs@@@std@@@1@AEBVMessageInfo@rclcpp@@@Z
	??R?$less@VName@karto@@@std@@QEBA_NAEBVName@karto@@0@Z
	??_D?$basic_stringstream@DU?$char_traits@D@std@@V?$allocator@D@2@@std@@QEAAXXZ
	??_D?$clone_impl@Ubad_alloc_@exception_detail@boost@@@exception_detail@boost@@QEAAXXZ
	??_D?$clone_impl@Ubad_exception_@exception_detail@boost@@@exception_detail@boost@@QEAAXXZ
	??_Darchive_exception@archive@boost@@QEAAXXZ
	??_H@YAXPEAX_K1P6APEAX0@Z@Z
	??__Ft@?1??get_instance@?$singleton@V?$archive_serializer_map@Vbinary_oarchive@archive@boost@@@detail@archive@boost@@@serialization@boost@@CAAEAV?$archive_serializer_map@Vbinary_oarchive@archive@boost@@@detail@archive@3@XZ@YAXXZ
	??__Ft@?1??get_instance@?$singleton@V?$extended_type_info_typeid@U?$pair@$$CBHPEAVObject@karto@@@std@@@serialization@boost@@@serialization@boost@@CAAEAV?$extended_type_info_typeid@U?$pair@$$CBHPEAVObject@karto@@@std@@@23@XZ@YAXXZ
	??__Ft@?1??get_instance@?$singleton@V?$extended_type_info_typeid@U?$pair@$$CBV?$basic_string@DU?$char_traits@D@std@@V?$allocator@D@2@@std@@PEAVAbstractParameter@karto@@@std@@@serialization@boost@@@serialization@boost@@CAAEAV?$extended_type_info_typeid@U?$pair@$$CBV?$basic_string@DU?$char_traits@D@std@@V?$allocator@D@2@@std@@PEAVAbstractParameter@karto@@@std@@@23@XZ@YAXXZ
	??__Ft@?1??get_instance@?$singleton@V?$extended_type_info_typeid@U?$pair@$$CBVName@karto@@PEAVSensor@2@@std@@@serialization@boost@@@serialization@boost@@CAAEAV?$extended_type_info_typeid@U?$pair@$$CBVName@karto@@PEAVSensor@2@@std@@@23@XZ@YAXXZ
	??__Ft@?1??get_instance@?$singleton@V?$extended_type_info_typeid@V?$Parameter@V?$basic_string@DU?$char_traits@D@std@@V?$allocator@D@2@@std@@@karto@@@serialization@boost@@@serialization@boost@@CAAEAV?$extended_type_info_typeid@V?$Parameter@V?$basic_string@DU?$char_traits@D@std@@V?$allocator@D@2@@std@@@karto@@@23@XZ@YAXXZ
	??__Ft@?1??get_instance@?$singleton@V?$extended_type_info_typeid@V?$map@HPEAVObject@karto@@U?$less@H@std@@V?$allocator@U?$pair@$$CBHPEAVObject@karto@@@std@@@4@@std@@@serialization@boost@@@serialization@boost@@CAAEAV?$extended_type_info_typeid@V?$map@HPEAVObject@karto@@U?$less@H@std@@V?$allocator@U?$pair@$$CBHPEAVObject@karto@@@std@@@4@@std@@@23@XZ@YAXXZ
	??__Ft@?1??get_instance@?$singleton@V?$extended_type_info_typeid@V?$map@V?$basic_string@DU?$char_traits@D@std@@V?$allocator@D@2@@std@@PEAVAbstractParameter@karto@@U?$less@V?$basic_string@DU?$char_traits@D@std@@V?$allocator@D@2@@std@@@2@V?$allocator@U?$pair@$$CBV?$basic_string@DU?$char_traits@D@std@@V?$allocator@D@2@@std@@PEAVAbstractParameter@karto@@@std@@@2@@std@@@serialization@boost@@@serialization@boost@@CAAEAV?$extended_type_info_typeid@V?$map@V?$basic_string@DU?$char_traits@D@std@@V?$allocator@D@2@@std@@PEAVAbstractParameter@karto@@U?$less@V?$basic_string@DU?$char_traits@D@std@@V?$allocator@D@2@@std@@@2@V?$allocator@U?$pair@$$CBV?$basic_string@DU?$char_traits@D@std@@V?$allocator@D@2@@std@@PEAVAbstractParameter@karto@@@std@@@2@@std@@@23@XZ@YAXXZ
	??__Ft@?1??get_instance@?$singleton@V?$extended_type_info_typeid@V?$map@VName@karto@@PEAVSensor@2@U?$less@VName@karto@@@std@@V?$allocator@U?$pair@$$CBVName@karto@@PEAVSensor@2@@std@@@5@@std@@@serialization@boost@@@serialization@boost@@CAAEAV?$extended_type_info_typeid@V?$map@VName@karto@@PEAVSensor@2@U?$less@VName@karto@@@std@@V?$allocator@U?$pair@$$CBVName@karto@@PEAVSensor@2@@std@@@5@@std@@@23@XZ@YAXXZ
	??__Ft@?1??get_instance@?$singleton@V?$extended_type_info_typeid@V?$vector@PEAVAbstractParameter@karto@@V?$allocator@PEAVAbstractParameter@karto@@@std@@@std@@@serialization@boost@@@serialization@boost@@CAAEAV?$extended_type_info_typeid@V?$vector@PEAVAbstractParameter@karto@@V?$allocator@PEAVAbstractParameter@karto@@@std@@@std@@@23@XZ@YAXXZ
	??__Ft@?1??get_instance@?$singleton@V?$extended_type_info_typeid@V?$vector@PEAVObject@karto@@V?$allocator@PEAVObject@karto@@@std@@@std@@@serialization@boost@@@serialization@boost@@CAAEAV?$extended_type_info_typeid@V?$vector@PEAVObject@karto@@V?$allocator@PEAVObject@karto@@@std@@@std@@@23@XZ@YAXXZ
	??__Ft@?1??get_instance@?$singleton@V?$extended_type_info_typeid@VAbstractParameter@karto@@@serialization@boost@@@serialization@boost@@CAAEAV?$extended_type_info_typeid@VAbstractParameter@karto@@@23@XZ@YAXXZ
	??__Ft@?1??get_instance@?$singleton@V?$extended_type_info_typeid@VDataset@karto@@@serialization@boost@@@serialization@boost@@CAAEAV?$extended_type_info_typeid@VDataset@karto@@@23@XZ@YAXXZ
	??__Ft@?1??get_instance@?$singleton@V?$extended_type_info_typeid@VDatasetInfo@karto@@@serialization@boost@@@serialization@boost@@CAAEAV?$extended_type_info_typeid@VDatasetInfo@karto@@@23@XZ@YAXXZ
	??__Ft@?1??get_instance@?$singleton@V?$extended_type_info_typeid@VName@karto@@@serialization@boost@@@serialization@boost@@CAAEAV?$extended_type_info_typeid@VName@karto@@@23@XZ@YAXXZ
	??__Ft@?1??get_instance@?$singleton@V?$extended_type_info_typeid@VNonCopyable@karto@@@serialization@boost@@@serialization@boost@@CAAEAV?$extended_type_info_typeid@VNonCopyable@karto@@@23@XZ@YAXXZ
	??__Ft@?1??get_instance@?$singleton@V?$extended_type_info_typeid@VObject@karto@@@serialization@boost@@@serialization@boost@@CAAEAV?$extended_type_info_typeid@VObject@karto@@@23@XZ@YAXXZ
	??__Ft@?1??get_instance@?$singleton@V?$extended_type_info_typeid@VParameterManager@karto@@@serialization@boost@@@serialization@boost@@CAAEAV?$extended_type_info_typeid@VParameterManager@karto@@@23@XZ@YAXXZ
	??__Ft@?1??get_instance@?$singleton@V?$extended_type_info_typeid@VSensor@karto@@@serialization@boost@@@serialization@boost@@CAAEAV?$extended_type_info_typeid@VSensor@karto@@@23@XZ@YAXXZ
	??__Ft@?1??get_instance@?$singleton@V?$iserializer@Vbinary_iarchive@archive@boost@@U?$pair@$$CBHPEAVObject@karto@@@std@@@detail@archive@boost@@@serialization@boost@@CAAEAV?$iserializer@Vbinary_iarchive@archive@boost@@U?$pair@$$CBHPEAVObject@karto@@@std@@@detail@archive@3@XZ@YAXXZ
	??__Ft@?1??get_instance@?$singleton@V?$iserializer@Vbinary_iarchive@archive@boost@@U?$pair@$$CBV?$basic_string@DU?$char_traits@D@std@@V?$allocator@D@2@@std@@PEAVAbstractParameter@karto@@@std@@@detail@archive@boost@@@serialization@boost@@CAAEAV?$iserializer@Vbinary_iarchive@archive@boost@@U?$pair@$$CBV?$basic_string@DU?$char_traits@D@std@@V?$allocator@D@2@@std@@PEAVAbstractParameter@karto@@@std@@@detail@archive@3@XZ@YAXXZ
	??__Ft@?1??get_instance@?$singleton@V?$iserializer@Vbinary_iarchive@archive@boost@@U?$pair@$$CBVName@karto@@PEAVSensor@2@@std@@@detail@archive@boost@@@serialization@boost@@CAAEAV?$iserializer@Vbinary_iarchive@archive@boost@@U?$pair@$$CBVName@karto@@PEAVSensor@2@@std@@@detail@archive@3@XZ@YAXXZ
	??__Ft@?1??get_instance@?$singleton@V?$iserializer@Vbinary_iarchive@archive@boost@@V?$Parameter@V?$basic_string@DU?$char_traits@D@std@@V?$allocator@D@2@@std@@@karto@@@detail@archive@boost@@@serialization@boost@@CAAEAV?$iserializer@Vbinary_iarchive@archive@boost@@V?$Parameter@V?$basic_string@DU?$char_traits@D@std@@V?$allocator@D@2@@std@@@karto@@@detail@archive@3@XZ@YAXXZ
	??__Ft@?1??get_instance@?$singleton@V?$iserializer@Vbinary_iarchive@archive@boost@@V?$map@HPEAVObject@karto@@U?$less@H@std@@V?$allocator@U?$pair@$$CBHPEAVObject@karto@@@std@@@4@@std@@@detail@archive@boost@@@serialization@boost@@CAAEAV?$iserializer@Vbinary_iarchive@archive@boost@@V?$map@HPEAVObject@karto@@U?$less@H@std@@V?$allocator@U?$pair@$$CBHPEAVObject@karto@@@std@@@4@@std@@@detail@archive@3@XZ@YAXXZ
	??__Ft@?1??get_instance@?$singleton@V?$iserializer@Vbinary_iarchive@archive@boost@@V?$map@V?$basic_string@DU?$char_traits@D@std@@V?$allocator@D@2@@std@@PEAVAbstractParameter@karto@@U?$less@V?$basic_string@DU?$char_traits@D@std@@V?$allocator@D@2@@std@@@2@V?$allocator@U?$pair@$$CBV?$basic_string@DU?$char_traits@D@std@@V?$allocator@D@2@@std@@PEAVAbstractParameter@karto@@@std@@@2@@std@@@detail@archive@boost@@@serialization@boost@@CAAEAV?$iserializer@Vbinary_iarchive@archive@boost@@V?$map@V?$basic_string@DU?$char_traits@D@std@@V?$allocator@D@2@@std@@PEAVAbstractParameter@karto@@U?$less@V?$basic_string@DU?$char_traits@D@std@@V?$allocator@D@2@@std@@@2@V?$allocator@U?$pair@$$CBV?$basic_string@DU?$char_traits@D@std@@V?$allocator@D@2@@std@@PEAVAbstractParameter@karto@@@std@@@2@@std@@@detail@archive@3@XZ@YAXXZ
	??__Ft@?1??get_instance@?$singleton@V?$iserializer@Vbinary_iarchive@archive@boost@@V?$map@VName@karto@@PEAVSensor@2@U?$less@VName@karto@@@std@@V?$allocator@U?$pair@$$CBVName@karto@@PEAVSensor@2@@std@@@5@@std@@@detail@archive@boost@@@serialization@boost@@CAAEAV?$iserializer@Vbinary_iarchive@archive@boost@@V?$map@VName@karto@@PEAVSensor@2@U?$less@VName@karto@@@std@@V?$allocator@U?$pair@$$CBVName@karto@@PEAVSensor@2@@std@@@5@@std@@@detail@archive@3@XZ@YAXXZ
	??__Ft@?1??get_instance@?$singleton@V?$iserializer@Vbinary_iarchive@archive@boost@@V?$vector@PEAVAbstractParameter@karto@@V?$allocator@PEAVAbstractParameter@karto@@@std@@@std@@@detail@archive@boost@@@serialization@boost@@CAAEAV?$iserializer@Vbinary_iarchive@archive@boost@@V?$vector@PEAVAbstractParameter@karto@@V?$allocator@PEAVAbstractParameter@karto@@@std@@@std@@@detail@archive@3@XZ@YAXXZ
	??__Ft@?1??get_instance@?$singleton@V?$iserializer@Vbinary_iarchive@archive@boost@@V?$vector@PEAVObject@karto@@V?$allocator@PEAVObject@karto@@@std@@@std@@@detail@archive@boost@@@serialization@boost@@CAAEAV?$iserializer@Vbinary_iarchive@archive@boost@@V?$vector@PEAVObject@karto@@V?$allocator@PEAVObject@karto@@@std@@@std@@@detail@archive@3@XZ@YAXXZ
	??__Ft@?1??get_instance@?$singleton@V?$iserializer@Vbinary_iarchive@archive@boost@@VAbstractParameter@karto@@@detail@archive@boost@@@serialization@boost@@CAAEAV?$iserializer@Vbinary_iarchive@archive@boost@@VAbstractParameter@karto@@@detail@archive@3@XZ@YAXXZ
	??__Ft@?1??get_instance@?$singleton@V?$iserializer@Vbinary_iarchive@archive@boost@@VDataset@karto@@@detail@archive@boost@@@serialization@boost@@CAAEAV?$iserializer@Vbinary_iarchive@archive@boost@@VDataset@karto@@@detail@archive@3@XZ@YAXXZ
	??__Ft@?1??get_instance@?$singleton@V?$iserializer@Vbinary_iarchive@archive@boost@@VDatasetInfo@karto@@@detail@archive@boost@@@serialization@boost@@CAAEAV?$iserializer@Vbinary_iarchive@archive@boost@@VDatasetInfo@karto@@@detail@archive@3@XZ@YAXXZ
	??__Ft@?1??get_instance@?$singleton@V?$iserializer@Vbinary_iarchive@archive@boost@@VName@karto@@@detail@archive@boost@@@serialization@boost@@CAAEAV?$iserializer@Vbinary_iarchive@archive@boost@@VName@karto@@@detail@archive@3@XZ@YAXXZ
	??__Ft@?1??get_instance@?$singleton@V?$iserializer@Vbinary_iarchive@archive@boost@@VNonCopyable@karto@@@detail@archive@boost@@@serialization@boost@@CAAEAV?$iserializer@Vbinary_iarchive@archive@boost@@VNonCopyable@karto@@@detail@archive@3@XZ@YAXXZ
	??__Ft@?1??get_instance@?$singleton@V?$iserializer@Vbinary_iarchive@archive@boost@@VObject@karto@@@detail@archive@boost@@@serialization@boost@@CAAEAV?$iserializer@Vbinary_iarchive@archive@boost@@VObject@karto@@@detail@archive@3@XZ@YAXXZ
	??__Ft@?1??get_instance@?$singleton@V?$iserializer@Vbinary_iarchive@archive@boost@@VParameterManager@karto@@@detail@archive@boost@@@serialization@boost@@CAAEAV?$iserializer@Vbinary_iarchive@archive@boost@@VParameterManager@karto@@@detail@archive@3@XZ@YAXXZ
	??__Ft@?1??get_instance@?$singleton@V?$oserializer@Vbinary_oarchive@archive@boost@@U?$pair@$$CBHPEAVObject@karto@@@std@@@detail@archive@boost@@@serialization@boost@@CAAEAV?$oserializer@Vbinary_oarchive@archive@boost@@U?$pair@$$CBHPEAVObject@karto@@@std@@@detail@archive@3@XZ@YAXXZ
	??__Ft@?1??get_instance@?$singleton@V?$oserializer@Vbinary_oarchive@archive@boost@@U?$pair@$$CBV?$basic_string@DU?$char_traits@D@std@@V?$allocator@D@2@@std@@PEAVAbstractParameter@karto@@@std@@@detail@archive@boost@@@serialization@boost@@CAAEAV?$oserializer@Vbinary_oarchive@archive@boost@@U?$pair@$$CBV?$basic_string@DU?$char_traits@D@std@@V?$allocator@D@2@@std@@PEAVAbstractParameter@karto@@@std@@@detail@archive@3@XZ@YAXXZ
	??__Ft@?1??get_instance@?$singleton@V?$oserializer@Vbinary_oarchive@archive@boost@@U?$pair@$$CBVName@karto@@PEAVSensor@2@@std@@@detail@archive@boost@@@serialization@boost@@CAAEAV?$oserializer@Vbinary_oarchive@archive@boost@@U?$pair@$$CBVName@karto@@PEAVSensor@2@@std@@@detail@archive@3@XZ@YAXXZ
	??__Ft@?1??get_instance@?$singleton@V?$oserializer@Vbinary_oarchive@archive@boost@@V?$Parameter@V?$basic_string@DU?$char_traits@D@std@@V?$allocator@D@2@@std@@@karto@@@detail@archive@boost@@@serialization@boost@@CAAEAV?$oserializer@Vbinary_oarchive@archive@boost@@V?$Parameter@V?$basic_string@DU?$char_traits@D@std@@V?$allocator@D@2@@std@@@karto@@@detail@archive@3@XZ@YAXXZ
	??__Ft@?1??get_instance@?$singleton@V?$oserializer@Vbinary_oarchive@archive@boost@@V?$map@HPEAVObject@karto@@U?$less@H@std@@V?$allocator@U?$pair@$$CBHPEAVObject@karto@@@std@@@4@@std@@@detail@archive@boost@@@serialization@boost@@CAAEAV?$oserializer@Vbinary_oarchive@archive@boost@@V?$map@HPEAVObject@karto@@U?$less@H@std@@V?$allocator@U?$pair@$$CBHPEAVObject@karto@@@std@@@4@@std@@@detail@archive@3@XZ@YAXXZ
	??__Ft@?1??get_instance@?$singleton@V?$oserializer@Vbinary_oarchive@archive@boost@@V?$map@V?$basic_string@DU?$char_traits@D@std@@V?$allocator@D@2@@std@@PEAVAbstractParameter@karto@@U?$less@V?$basic_string@DU?$char_traits@D@std@@V?$allocator@D@2@@std@@@2@V?$allocator@U?$pair@$$CBV?$basic_string@DU?$char_traits@D@std@@V?$allocator@D@2@@std@@PEAVAbstractParameter@karto@@@std@@@2@@std@@@detail@archive@boost@@@serialization@boost@@CAAEAV?$oserializer@Vbinary_oarchive@archive@boost@@V?$map@V?$basic_string@DU?$char_traits@D@std@@V?$allocator@D@2@@std@@PEAVAbstractParameter@karto@@U?$less@V?$basic_string@DU?$char_traits@D@std@@V?$allocator@D@2@@std@@@2@V?$allocator@U?$pair@$$CBV?$basic_string@DU?$char_traits@D@std@@V?$allocator@D@2@@std@@PEAVAbstractParameter@karto@@@std@@@2@@std@@@detail@archive@3@XZ@YAXXZ
	??__Ft@?1??get_instance@?$singleton@V?$oserializer@Vbinary_oarchive@archive@boost@@V?$map@VName@karto@@PEAVSensor@2@U?$less@VName@karto@@@std@@V?$allocator@U?$pair@$$CBVName@karto@@PEAVSensor@2@@std@@@5@@std@@@detail@archive@boost@@@serialization@boost@@CAAEAV?$oserializer@Vbinary_oarchive@archive@boost@@V?$map@VName@karto@@PEAVSensor@2@U?$less@VName@karto@@@std@@V?$allocator@U?$pair@$$CBVName@karto@@PEAVSensor@2@@std@@@5@@std@@@detail@archive@3@XZ@YAXXZ
	??__Ft@?1??get_instance@?$singleton@V?$oserializer@Vbinary_oarchive@archive@boost@@V?$vector@PEAVAbstractParameter@karto@@V?$allocator@PEAVAbstractParameter@karto@@@std@@@std@@@detail@archive@boost@@@serialization@boost@@CAAEAV?$oserializer@Vbinary_oarchive@archive@boost@@V?$vector@PEAVAbstractParameter@karto@@V?$allocator@PEAVAbstractParameter@karto@@@std@@@std@@@detail@archive@3@XZ@YAXXZ
	??__Ft@?1??get_instance@?$singleton@V?$oserializer@Vbinary_oarchive@archive@boost@@V?$vector@PEAVObject@karto@@V?$allocator@PEAVObject@karto@@@std@@@std@@@detail@archive@boost@@@serialization@boost@@CAAEAV?$oserializer@Vbinary_oarchive@archive@boost@@V?$vector@PEAVObject@karto@@V?$allocator@PEAVObject@karto@@@std@@@std@@@detail@archive@3@XZ@YAXXZ
	??__Ft@?1??get_instance@?$singleton@V?$oserializer@Vbinary_oarchive@archive@boost@@VAbstractParameter@karto@@@detail@archive@boost@@@serialization@boost@@CAAEAV?$oserializer@Vbinary_oarchive@archive@boost@@VAbstractParameter@karto@@@detail@archive@3@XZ@YAXXZ
	??__Ft@?1??get_instance@?$singleton@V?$oserializer@Vbinary_oarchive@archive@boost@@VDataset@karto@@@detail@archive@boost@@@serialization@boost@@CAAEAV?$oserializer@Vbinary_oarchive@archive@boost@@VDataset@karto@@@detail@archive@3@XZ@YAXXZ
	??__Ft@?1??get_instance@?$singleton@V?$oserializer@Vbinary_oarchive@archive@boost@@VDatasetInfo@karto@@@detail@archive@boost@@@serialization@boost@@CAAEAV?$oserializer@Vbinary_oarchive@archive@boost@@VDatasetInfo@karto@@@detail@archive@3@XZ@YAXXZ
	??__Ft@?1??get_instance@?$singleton@V?$oserializer@Vbinary_oarchive@archive@boost@@VName@karto@@@detail@archive@boost@@@serialization@boost@@CAAEAV?$oserializer@Vbinary_oarchive@archive@boost@@VName@karto@@@detail@archive@3@XZ@YAXXZ
	??__Ft@?1??get_instance@?$singleton@V?$oserializer@Vbinary_oarchive@archive@boost@@VNonCopyable@karto@@@detail@archive@boost@@@serialization@boost@@CAAEAV?$oserializer@Vbinary_oarchive@archive@boost@@VNonCopyable@karto@@@detail@archive@3@XZ@YAXXZ
	??__Ft@?1??get_instance@?$singleton@V?$oserializer@Vbinary_oarchive@archive@boost@@VObject@karto@@@detail@archive@boost@@@serialization@boost@@CAAEAV?$oserializer@Vbinary_oarchive@archive@boost@@VObject@karto@@@detail@archive@3@XZ@YAXXZ
	??__Ft@?1??get_instance@?$singleton@V?$oserializer@Vbinary_oarchive@archive@boost@@VParameterManager@karto@@@detail@archive@boost@@@serialization@boost@@CAAEAV?$oserializer@Vbinary_oarchive@archive@boost@@VParameterManager@karto@@@detail@archive@3@XZ@YAXXZ
	??__Ft@?1??get_instance@?$singleton@V?$pointer_iserializer@Vbinary_iarchive@archive@boost@@VDatasetInfo@karto@@@detail@archive@boost@@@serialization@boost@@CAAEAV?$pointer_iserializer@Vbinary_iarchive@archive@boost@@VDatasetInfo@karto@@@detail@archive@3@XZ@YAXXZ
	??__Ft@?1??get_instance@?$singleton@V?$pointer_iserializer@Vbinary_iarchive@archive@boost@@VParameterManager@karto@@@detail@archive@boost@@@serialization@boost@@CAAEAV?$pointer_iserializer@Vbinary_iarchive@archive@boost@@VParameterManager@karto@@@detail@archive@3@XZ@YAXXZ
	??__Ft@?1??get_instance@?$singleton@V?$pointer_oserializer@Vbinary_oarchive@archive@boost@@VDatasetInfo@karto@@@detail@archive@boost@@@serialization@boost@@CAAEAV?$pointer_oserializer@Vbinary_oarchive@archive@boost@@VDatasetInfo@karto@@@detail@archive@3@XZ@YAXXZ
	??__Ft@?1??get_instance@?$singleton@V?$pointer_oserializer@Vbinary_oarchive@archive@boost@@VParameterManager@karto@@@detail@archive@boost@@@serialization@boost@@CAAEAV?$pointer_oserializer@Vbinary_oarchive@archive@boost@@VParameterManager@karto@@@detail@archive@3@XZ@YAXXZ
	??__Ft@?1??get_instance@?$singleton@V?$void_caster_primitive@V?$Parameter@V?$basic_string@DU?$char_traits@D@std@@V?$allocator@D@2@@std@@@karto@@VAbstractParameter@2@@void_cast_detail@serialization@boost@@@serialization@boost@@CAAEAV?$void_caster_primitive@V?$Parameter@V?$basic_string@DU?$char_traits@D@std@@V?$allocator@D@2@@std@@@karto@@VAbstractParameter@2@@void_cast_detail@23@XZ@YAXXZ
	??__Ft@?1??get_instance@?$singleton@V?$void_caster_primitive@VDatasetInfo@karto@@VObject@2@@void_cast_detail@serialization@boost@@@serialization@boost@@CAAEAV?$void_caster_primitive@VDatasetInfo@karto@@VObject@2@@void_cast_detail@23@XZ@YAXXZ
	??__Ft@?1??get_instance@?$singleton@V?$void_caster_primitive@VObject@karto@@VNonCopyable@2@@void_cast_detail@serialization@boost@@@serialization@boost@@CAAEAV?$void_caster_primitive@VObject@karto@@VNonCopyable@2@@void_cast_detail@23@XZ@YAXXZ
	??__Ft@?1??get_instance@?$singleton@V?$void_caster_primitive@VParameterManager@karto@@VNonCopyable@2@@void_cast_detail@serialization@boost@@@serialization@boost@@CAAEAV?$void_caster_primitive@VParameterManager@karto@@VNonCopyable@2@@void_cast_detail@23@XZ@YAXXZ
	?Clone@?$Parameter@V?$basic_string@DU?$char_traits@D@std@@V?$allocator@D@2@@std@@@karto@@UEAAPEAV12@XZ
	?GetClassName@DatasetInfo@karto@@UEBAPEBDXZ
	?GetMetricName@?$ReceivedMessageAgeCollector@U?$PoseWithCovarianceStamped_@V?$allocator@X@std@@@msg@geometry_msgs@@@topic_statistics_collector@libstatistics_collector@@UEBA?AV?$basic_string@DU?$char_traits@D@std@@V?$allocator@D@2@@std@@XZ
	?GetMetricName@?$ReceivedMessagePeriodCollector@U?$PoseWithCovarianceStamped_@V?$allocator@X@std@@@msg@geometry_msgs@@@topic_statistics_collector@libstatistics_collector@@UEBA?AV?$basic_string@DU?$char_traits@D@std@@V?$allocator@D@2@@std@@XZ
	?GetMetricUnit@?$ReceivedMessageAgeCollector@U?$PoseWithCovarianceStamped_@V?$allocator@X@std@@@msg@geometry_msgs@@@topic_statistics_collector@libstatistics_collector@@UEBA?AV?$basic_string@DU?$char_traits@D@std@@V?$allocator@D@2@@std@@XZ
	?GetMetricUnit@?$ReceivedMessagePeriodCollector@U?$PoseWithCovarianceStamped_@V?$allocator@X@std@@@msg@geometry_msgs@@@topic_statistics_collector@libstatistics_collector@@UEBA?AV?$basic_string@DU?$char_traits@D@std@@V?$allocator@D@2@@std@@XZ
	?GetObjectType@DatasetInfo@karto@@UEBAIXZ
	?GetValueAsString@?$Parameter@V?$basic_string@DU?$char_traits@D@std@@V?$allocator@D@2@@std@@@karto@@UEBA?BV?$basic_string@DU?$char_traits@D@std@@V?$allocator@D@2@@std@@XZ
	?OnMessageReceived@?$ReceivedMessageAgeCollector@U?$PoseWithCovarianceStamped_@V?$allocator@X@std@@@msg@geometry_msgs@@@topic_statistics_collector@libstatistics_collector@@UEAAXAEBU?$PoseWithCovarianceStamped_@V?$allocator@X@std@@@msg@geometry_msgs@@_J@Z
	?OnMessageReceived@?$ReceivedMessagePeriodCollector@U?$PoseWithCovarianceStamped_@V?$allocator@X@std@@@msg@geometry_msgs@@@topic_statistics_collector@libstatistics_collector@@UEAAXAEBU?$PoseWithCovarianceStamped_@V?$allocator@X@std@@@msg@geometry_msgs@@_J@Z
	?SetValueFromString@?$Parameter@V?$basic_string@DU?$char_traits@D@std@@V?$allocator@D@2@@std@@@karto@@UEAAXAEBV?$basic_string@DU?$char_traits@D@std@@V?$allocator@D@2@@std@@@Z
	?SetupStart@?$ReceivedMessageAgeCollector@U?$PoseWithCovarianceStamped_@V?$allocator@X@std@@@msg@geometry_msgs@@@topic_statistics_collector@libstatistics_collector@@MEAA_NXZ
	?SetupStart@?$ReceivedMessagePeriodCollector@U?$PoseWithCovarianceStamped_@V?$allocator@X@std@@@msg@geometry_msgs@@@topic_statistics_collector@libstatistics_collector@@MEAA_NXZ
	?SetupStop@?$ReceivedMessageAgeCollector@U?$PoseWithCovarianceStamped_@V?$allocator@X@std@@@msg@geometry_msgs@@@topic_statistics_collector@libstatistics_collector@@MEAA_NXZ
	?SetupStop@?$ReceivedMessagePeriodCollector@U?$PoseWithCovarianceStamped_@V?$allocator@X@std@@@msg@geometry_msgs@@@topic_statistics_collector@libstatistics_collector@@MEAA_NXZ
	?ToString@Name@karto@@QEBA?AV?$basic_string@DU?$char_traits@D@std@@V?$allocator@D@2@@std@@XZ
	?_Change_array@?$vector@PEAVAbstractParameter@karto@@V?$allocator@PEAVAbstractParameter@karto@@@std@@@std@@AEAAXQEAPEAVAbstractParameter@karto@@_K1@Z
	?_Change_array@?$vector@PEAVObject@karto@@V?$allocator@PEAVObject@karto@@@std@@@std@@AEAAXQEAPEAVObject@karto@@_K1@Z
	?_Change_array@?$vector@V?$shared_ptr@VQOSEventHandlerBase@rclcpp@@@std@@V?$allocator@V?$shared_ptr@VQOSEventHandlerBase@rclcpp@@@std@@@2@@std@@AEAAXQEAV?$shared_ptr@VQOSEventHandlerBase@rclcpp@@@2@_K1@Z
	?_Change_array@?$vector@V?$unique_ptr@V?$TopicStatisticsCollector@U?$PoseWithCovarianceStamped_@V?$allocator@X@std@@@msg@geometry_msgs@@@topic_statistics_collector@libstatistics_collector@@U?$default_delete@V?$TopicStatisticsCollector@U?$PoseWithCovarianceStamped_@V?$allocator@X@std@@@msg@geometry_msgs@@@topic_statistics_collector@libstatistics_collector@@@std@@@std@@V?$allocator@V?$unique_ptr@V?$TopicStatisticsCollector@U?$PoseWithCovarianceStamped_@V?$allocator@X@std@@@msg@geometry_msgs@@@topic_statistics_collector@libstatistics_collector@@U?$default_delete@V?$TopicStatisticsCollector@U?$PoseWithCovarianceStamped_@V?$allocator@X@std@@@msg@geometry_msgs@@@topic_statistics_collector@libstatistics_collector@@@std@@@std@@@2@@std@@AEAAXQEAV?$unique_ptr@V?$TopicStatisticsCollector@U?$PoseWithCovarianceStamped_@V?$allocator@X@std@@@msg@geometry_msgs@@@topic_statistics_collector@libstatistics_collector@@U?$default_delete@V?$TopicStatisticsCollector@U?$PoseWithCovarianceStamped_@V?$allocator@X@std@@@msg@geometry_msgs@@@topic_statistics_collector@libstatistics_collector@@@std@@@2@_K1@Z
	?_Copy@?$_Func_impl_no_alloc@V<lambda_33d3207aa9cfabd17909961fe837b8a9>@@V?$shared_ptr@VSubscriptionBase@rclcpp@@@std@@PEAVNodeBaseInterface@node_interfaces@rclcpp@@AEBV?$basic_string@DU?$char_traits@D@std@@V?$allocator@D@2@@3@AEBVQoS@6@@std@@EEBAPEAV?$_Func_base@V?$shared_ptr@VSubscriptionBase@rclcpp@@@std@@PEAVNodeBaseInterface@node_interfaces@rclcpp@@AEBV?$basic_string@DU?$char_traits@D@std@@V?$allocator@D@2@@2@AEBVQoS@5@@2@PEAX@Z
	?_Copy@?$_Func_impl_no_alloc@V<lambda_83c40cceffae39b19729e050b3a9ba8e>@@V?$shared_ptr@VPublisherBase@rclcpp@@@std@@PEAVNodeBaseInterface@node_interfaces@rclcpp@@AEBV?$basic_string@DU?$char_traits@D@std@@V?$allocator@D@2@@3@AEBVQoS@6@@std@@EEBAPEAV?$_Func_base@V?$shared_ptr@VPublisherBase@rclcpp@@@std@@PEAVNodeBaseInterface@node_interfaces@rclcpp@@AEBV?$basic_string@DU?$char_traits@D@std@@V?$allocator@D@2@@2@AEBVQoS@5@@2@PEAX@Z
	?_Copy@?$_Func_impl_no_alloc@V?$_Binder@U_Unforced@std@@P8LocalizationSlamToolbox@slam_toolbox@@EAAXV?$shared_ptr@U?$PoseWithCovarianceStamped_@V?$allocator@X@std@@@msg@geometry_msgs@@@2@@ZPEAV34@AEBU?$_Ph@$00@2@@std@@XV?$shared_ptr@U?$PoseWithCovarianceStamped_@V?$allocator@X@std@@@msg@geometry_msgs@@@2@@std@@EEBAPEAV?$_Func_base@XV?$shared_ptr@U?$PoseWithCovarianceStamped_@V?$allocator@X@std@@@msg@geometry_msgs@@@std@@@2@PEAX@Z
	?_Copy@?$_Func_impl_no_alloc@V?$_Binder@U_Unforced@std@@P8LocalizationSlamToolbox@slam_toolbox@@EAA_NV?$shared_ptr@Urmw_request_id_t@@@2@V?$shared_ptr@U?$Empty_Request_@V?$allocator@X@std@@@srv@std_srvs@@@2@V?$shared_ptr@U?$Empty_Response_@V?$allocator@X@std@@@srv@std_srvs@@@2@@ZPEAV34@AEBU?$_Ph@$00@2@AEBU?$_Ph@$01@2@AEBU?$_Ph@$02@2@@std@@XV?$shared_ptr@Urmw_request_id_t@@@2@V?$shared_ptr@U?$Empty_Request_@V?$allocator@X@std@@@srv@std_srvs@@@2@V?$shared_ptr@U?$Empty_Response_@V?$allocator@X@std@@@srv@std_srvs@@@2@@std@@EEBAPEAV?$_Func_base@XV?$shared_ptr@Urmw_request_id_t@@@std@@V?$shared_ptr@U?$Empty_Request_@V?$allocator@X@std@@@srv@std_srvs@@@2@V?$shared_ptr@U?$Empty_Response_@V?$allocator@X@std@@@srv@std_srvs@@@2@@2@PEAX@Z
	?_Delete_this@?$_Func_impl_no_alloc@V<lambda_33d3207aa9cfabd17909961fe837b8a9>@@V?$shared_ptr@VSubscriptionBase@rclcpp@@@std@@PEAVNodeBaseInterface@node_interfaces@rclcpp@@AEBV?$basic_string@DU?$char_traits@D@std@@V?$allocator@D@2@@3@AEBVQoS@6@@std@@EEAAX_N@Z
	?_Delete_this@?$_Func_impl_no_alloc@V<lambda_83c40cceffae39b19729e050b3a9ba8e>@@V?$shared_ptr@VPublisherBase@rclcpp@@@std@@PEAVNodeBaseInterface@node_interfaces@rclcpp@@AEBV?$basic_string@DU?$char_traits@D@std@@V?$allocator@D@2@@3@AEBVQoS@6@@std@@EEAAX_N@Z
	?_Delete_this@?$_Func_impl_no_alloc@V?$_Binder@U_Unforced@std@@P8LocalizationSlamToolbox@slam_toolbox@@EAAXV?$shared_ptr@U?$PoseWithCovarianceStamped_@V?$allocator@X@std@@@msg@geometry_msgs@@@2@@ZPEAV34@AEBU?$_Ph@$00@2@@std@@XV?$shared_ptr@U?$PoseWithCovarianceStamped_@V?$allocator@X@std@@@msg@geometry_msgs@@@2@@std@@EEAAX_N@Z
	?_Delete_this@?$_Func_impl_no_alloc@V?$_Binder@U_Unforced@std@@P8LocalizationSlamToolbox@slam_toolbox@@EAA_NV?$shared_ptr@Urmw_request_id_t@@@2@V?$shared_ptr@U?$Empty_Request_@V?$allocator@X@std@@@srv@std_srvs@@@2@V?$shared_ptr@U?$Empty_Response_@V?$allocator@X@std@@@srv@std_srvs@@@2@@ZPEAV34@AEBU?$_Ph@$00@2@AEBU?$_Ph@$01@2@AEBU?$_Ph@$02@2@@std@@XV?$shared_ptr@Urmw_request_id_t@@@2@V?$shared_ptr@U?$Empty_Request_@V?$allocator@X@std@@@srv@std_srvs@@@2@V?$shared_ptr@U?$Empty_Response_@V?$allocator@X@std@@@srv@std_srvs@@@2@@std@@EEAAX_N@Z
	?_Delete_this@?$_Ref_count@V?$allocator@U?$MetricsMessage_@V?$allocator@X@std@@@msg@statistics_msgs@@@std@@@std@@EEAAXXZ
	?_Delete_this@?$_Ref_count_obj2@U?$DeserializePoseGraph_Request_@V?$allocator@X@std@@@srv@slam_toolbox@@@std@@EEAAXXZ
	?_Delete_this@?$_Ref_count_obj2@U?$DeserializePoseGraph_Response_@V?$allocator@X@std@@@srv@slam_toolbox@@@std@@EEAAXXZ
	?_Delete_this@?$_Ref_count_obj2@U?$Empty_Request_@V?$allocator@X@std@@@srv@std_srvs@@@std@@EEAAXXZ
	?_Delete_this@?$_Ref_count_obj2@U?$Empty_Response_@V?$allocator@X@std@@@srv@std_srvs@@@std@@EEAAXXZ
	?_Delete_this@?$_Ref_count_obj2@Urmw_request_id_t@@@std@@EEAAXXZ
	?_Delete_this@?$_Ref_count_obj2@V?$MessageMemoryStrategy@U?$PoseWithCovarianceStamped_@V?$allocator@X@std@@@msg@geometry_msgs@@V?$allocator@X@std@@@message_memory_strategy@rclcpp@@@std@@EEAAXXZ
	?_Delete_this@?$_Ref_count_obj2@V?$Publisher@U?$MetricsMessage_@V?$allocator@X@std@@@msg@statistics_msgs@@V?$allocator@X@std@@@rclcpp@@@std@@EEAAXXZ
	?_Delete_this@?$_Ref_count_obj2@V?$QOSEventHandler@V<lambda_3f9548421920b881c8df116e1c596558>@@V?$shared_ptr@Urcl_subscription_t@@@std@@@rclcpp@@@std@@EEAAXXZ
	?_Delete_this@?$_Ref_count_obj2@V?$QOSEventHandler@V<lambda_c2318a75abbc27dc766add2e36d9f8d4>@@V?$shared_ptr@Urcl_publisher_t@@@std@@@rclcpp@@@std@@EEAAXXZ
	?_Delete_this@?$_Ref_count_obj2@V?$QOSEventHandler@V?$function@$$A6AXAEAUrmw_liveliness_changed_status_t@@@Z@std@@V?$shared_ptr@Urcl_subscription_t@@@2@@rclcpp@@@std@@EEAAXXZ
	?_Delete_this@?$_Ref_count_obj2@V?$QOSEventHandler@V?$function@$$A6AXAEAUrmw_liveliness_lost_status_t@@@Z@std@@V?$shared_ptr@Urcl_publisher_t@@@2@@rclcpp@@@std@@EEAAXXZ
	?_Delete_this@?$_Ref_count_obj2@V?$QOSEventHandler@V?$function@$$A6AXAEAUrmw_offered_deadline_missed_status_t@@@Z@std@@V?$shared_ptr@Urcl_publisher_t@@@2@@rclcpp@@@std@@EEAAXXZ
	?_Delete_this@?$_Ref_count_obj2@V?$QOSEventHandler@V?$function@$$A6AXAEAUrmw_qos_incompatible_event_status_t@@@Z@std@@V?$shared_ptr@Urcl_publisher_t@@@2@@rclcpp@@@std@@EEAAXXZ
	?_Delete_this@?$_Ref_count_obj2@V?$QOSEventHandler@V?$function@$$A6AXAEAUrmw_qos_incompatible_event_status_t@@@Z@std@@V?$shared_ptr@Urcl_subscription_t@@@2@@rclcpp@@@std@@EEAAXXZ
	?_Delete_this@?$_Ref_count_obj2@V?$QOSEventHandler@V?$function@$$A6AXAEAUrmw_requested_deadline_missed_status_t@@@Z@std@@V?$shared_ptr@Urcl_subscription_t@@@2@@rclcpp@@@std@@EEAAXXZ
	?_Delete_this@?$_Ref_count_obj2@V?$Service@UEmpty@srv@std_srvs@@@rclcpp@@@std@@EEAAXXZ
	?_Delete_this@?$_Ref_count_obj2@V?$Subscription@U?$PoseWithCovarianceStamped_@V?$allocator@X@std@@@msg@geometry_msgs@@V?$allocator@X@std@@V?$MessageMemoryStrategy@U?$PoseWithCovarianceStamped_@V?$allocator@X@std@@@msg@geometry_msgs@@V?$allocator@X@std@@@message_memory_strategy@rclcpp@@@rclcpp@@@std@@EEAAXXZ
	?_Delete_this@?$_Ref_count_obj2@V?$SubscriptionIntraProcess@U?$PoseWithCovarianceStamped_@V?$allocator@X@std@@@msg@geometry_msgs@@V?$allocator@X@std@@U?$default_delete@U?$PoseWithCovarianceStamped_@V?$allocator@X@std@@@msg@geometry_msgs@@@5@U123@@experimental@rclcpp@@@std@@EEAAXXZ
	?_Delete_this@?$_Ref_count_obj2@V?$SubscriptionTopicStatistics@U?$PoseWithCovarianceStamped_@V?$allocator@X@std@@@msg@geometry_msgs@@@topic_statistics@rclcpp@@@std@@EEAAXXZ
	?_Delete_this@?$_Ref_count_obj2@V?$WallTimer@V<lambda_dc0acc6c162c69a79de61b136908d558>@@$0A@@rclcpp@@@std@@EEAAXXZ
	?_Delete_this@?$_Ref_count_obj2@V?$allocator@D@std@@@std@@EEAAXXZ
	?_Delete_this@?$_Ref_count_obj2@V?$allocator@U?$MetricsMessage_@V?$allocator@X@std@@@msg@statistics_msgs@@@std@@@std@@EEAAXXZ
	?_Delete_this@?$_Ref_count_obj2@V?$allocator@U?$PoseWithCovarianceStamped_@V?$allocator@X@std@@@msg@geometry_msgs@@@std@@@std@@EEAAXXZ
	?_Delete_this@?$_Ref_count_obj2@V?$allocator@VSerializedMessage@rclcpp@@@std@@@std@@EEAAXXZ
	?_Delete_this@?$_Ref_count_obj2@V?$allocator@X@std@@@std@@EEAAXXZ
	?_Delete_this@?$_Ref_count_obj2@VClock@rclcpp@@@std@@EEAAXXZ
	?_Delete_this@?$_Ref_count_obj2@VSerializedMessage@rclcpp@@@std@@EEAAXXZ
	?_Delete_this@?$_Ref_count_obj_alloc3@U?$MetricsMessage_@V?$allocator@X@std@@@msg@statistics_msgs@@V?$allocator@U?$MetricsMessage_@V?$allocator@X@std@@@msg@statistics_msgs@@@std@@@std@@EEAAXXZ
	?_Delete_this@?$_Ref_count_obj_alloc3@U?$PoseWithCovarianceStamped_@V?$allocator@X@std@@@msg@geometry_msgs@@V?$allocator@U?$PoseWithCovarianceStamped_@V?$allocator@X@std@@@msg@geometry_msgs@@@std@@@std@@EEAAXXZ
	?_Delete_this@?$_Ref_count_resource@PEAU?$MetricsMessage_@V?$allocator@X@std@@@msg@statistics_msgs@@U?$default_delete@U?$MetricsMessage_@V?$allocator@X@std@@@msg@statistics_msgs@@@std@@@std@@EEAAXXZ
	?_Delete_this@?$_Ref_count_resource@PEAU?$PoseWithCovarianceStamped_@V?$allocator@X@std@@@msg@geometry_msgs@@U?$default_delete@U?$PoseWithCovarianceStamped_@V?$allocator@X@std@@@msg@geometry_msgs@@@std@@@std@@EEAAXXZ
	?_Delete_this@?$_Ref_count_resource@PEAU?$PoseWithCovarianceStamped_@V?$allocator@X@std@@@msg@geometry_msgs@@V<lambda_b05f438fa8a0717b905717c1aa9025d1>@@@std@@EEAAXXZ
	?_Delete_this@?$_Ref_count_resource@PEAUrcl_service_t@@V<lambda_4fa184f521fb41f33f9d01b40f5ac9d9>@@@std@@EEAAXXZ
	?_Delete_this@?$_Ref_count_resource@PEAVIntraProcessManager@experimental@rclcpp@@V<lambda_9dd0c8f7d82d5c8e326d3c0685e9bc2f>@@@std@@EEAAXXZ
	?_Destroy@?$_Ref_count@V?$allocator@U?$MetricsMessage_@V?$allocator@X@std@@@msg@statistics_msgs@@@std@@@std@@EEAAXXZ
	?_Destroy@?$_Ref_count_obj2@U?$DeserializePoseGraph_Request_@V?$allocator@X@std@@@srv@slam_toolbox@@@std@@EEAAXXZ
	?_Destroy@?$_Ref_count_obj2@U?$DeserializePoseGraph_Response_@V?$allocator@X@std@@@srv@slam_toolbox@@@std@@EEAAXXZ
	?_Destroy@?$_Ref_count_obj2@U?$Empty_Request_@V?$allocator@X@std@@@srv@std_srvs@@@std@@EEAAXXZ
	?_Destroy@?$_Ref_count_obj2@U?$Empty_Response_@V?$allocator@X@std@@@srv@std_srvs@@@std@@EEAAXXZ
	?_Destroy@?$_Ref_count_obj2@Urmw_request_id_t@@@std@@EEAAXXZ
	?_Destroy@?$_Ref_count_obj2@V?$MessageMemoryStrategy@U?$PoseWithCovarianceStamped_@V?$allocator@X@std@@@msg@geometry_msgs@@V?$allocator@X@std@@@message_memory_strategy@rclcpp@@@std@@EEAAXXZ
	?_Destroy@?$_Ref_count_obj2@V?$Publisher@U?$MetricsMessage_@V?$allocator@X@std@@@msg@statistics_msgs@@V?$allocator@X@std@@@rclcpp@@@std@@EEAAXXZ
	?_Destroy@?$_Ref_count_obj2@V?$QOSEventHandler@V<lambda_3f9548421920b881c8df116e1c596558>@@V?$shared_ptr@Urcl_subscription_t@@@std@@@rclcpp@@@std@@EEAAXXZ
	?_Destroy@?$_Ref_count_obj2@V?$QOSEventHandler@V<lambda_c2318a75abbc27dc766add2e36d9f8d4>@@V?$shared_ptr@Urcl_publisher_t@@@std@@@rclcpp@@@std@@EEAAXXZ
	?_Destroy@?$_Ref_count_obj2@V?$QOSEventHandler@V?$function@$$A6AXAEAUrmw_liveliness_changed_status_t@@@Z@std@@V?$shared_ptr@Urcl_subscription_t@@@2@@rclcpp@@@std@@EEAAXXZ
	?_Destroy@?$_Ref_count_obj2@V?$QOSEventHandler@V?$function@$$A6AXAEAUrmw_liveliness_lost_status_t@@@Z@std@@V?$shared_ptr@Urcl_publisher_t@@@2@@rclcpp@@@std@@EEAAXXZ
	?_Destroy@?$_Ref_count_obj2@V?$QOSEventHandler@V?$function@$$A6AXAEAUrmw_offered_deadline_missed_status_t@@@Z@std@@V?$shared_ptr@Urcl_publisher_t@@@2@@rclcpp@@@std@@EEAAXXZ
	?_Destroy@?$_Ref_count_obj2@V?$QOSEventHandler@V?$function@$$A6AXAEAUrmw_qos_incompatible_event_status_t@@@Z@std@@V?$shared_ptr@Urcl_publisher_t@@@2@@rclcpp@@@std@@EEAAXXZ
	?_Destroy@?$_Ref_count_obj2@V?$QOSEventHandler@V?$function@$$A6AXAEAUrmw_qos_incompatible_event_status_t@@@Z@std@@V?$shared_ptr@Urcl_subscription_t@@@2@@rclcpp@@@std@@EEAAXXZ
	?_Destroy@?$_Ref_count_obj2@V?$QOSEventHandler@V?$function@$$A6AXAEAUrmw_requested_deadline_missed_status_t@@@Z@std@@V?$shared_ptr@Urcl_subscription_t@@@2@@rclcpp@@@std@@EEAAXXZ
	?_Destroy@?$_Ref_count_obj2@V?$Service@UEmpty@srv@std_srvs@@@rclcpp@@@std@@EEAAXXZ
	?_Destroy@?$_Ref_count_obj2@V?$Subscription@U?$PoseWithCovarianceStamped_@V?$allocator@X@std@@@msg@geometry_msgs@@V?$allocator@X@std@@V?$MessageMemoryStrategy@U?$PoseWithCovarianceStamped_@V?$allocator@X@std@@@msg@geometry_msgs@@V?$allocator@X@std@@@message_memory_strategy@rclcpp@@@rclcpp@@@std@@EEAAXXZ
	?_Destroy@?$_Ref_count_obj2@V?$SubscriptionIntraProcess@U?$PoseWithCovarianceStamped_@V?$allocator@X@std@@@msg@geometry_msgs@@V?$allocator@X@std@@U?$default_delete@U?$PoseWithCovarianceStamped_@V?$allocator@X@std@@@msg@geometry_msgs@@@5@U123@@experimental@rclcpp@@@std@@EEAAXXZ
	?_Destroy@?$_Ref_count_obj2@V?$SubscriptionTopicStatistics@U?$PoseWithCovarianceStamped_@V?$allocator@X@std@@@msg@geometry_msgs@@@topic_statistics@rclcpp@@@std@@EEAAXXZ
	?_Destroy@?$_Ref_count_obj2@V?$WallTimer@V<lambda_dc0acc6c162c69a79de61b136908d558>@@$0A@@rclcpp@@@std@@EEAAXXZ
	?_Destroy@?$_Ref_count_obj2@V?$allocator@D@std@@@std@@EEAAXXZ
	?_Destroy@?$_Ref_count_obj2@V?$allocator@U?$MetricsMessage_@V?$allocator@X@std@@@msg@statistics_msgs@@@std@@@std@@EEAAXXZ
	?_Destroy@?$_Ref_count_obj2@V?$allocator@U?$PoseWithCovarianceStamped_@V?$allocator@X@std@@@msg@geometry_msgs@@@std@@@std@@EEAAXXZ
	?_Destroy@?$_Ref_count_obj2@V?$allocator@VSerializedMessage@rclcpp@@@std@@@std@@EEAAXXZ
	?_Destroy@?$_Ref_count_obj2@V?$allocator@X@std@@@std@@EEAAXXZ
	?_Destroy@?$_Ref_count_obj2@VClock@rclcpp@@@std@@EEAAXXZ
	?_Destroy@?$_Ref_count_obj2@VSerializedMessage@rclcpp@@@std@@EEAAXXZ
	?_Destroy@?$_Ref_count_obj_alloc3@U?$MetricsMessage_@V?$allocator@X@std@@@msg@statistics_msgs@@V?$allocator@U?$MetricsMessage_@V?$allocator@X@std@@@msg@statistics_msgs@@@std@@@std@@EEAAXXZ
	?_Destroy@?$_Ref_count_obj_alloc3@U?$PoseWithCovarianceStamped_@V?$allocator@X@std@@@msg@geometry_msgs@@V?$allocator@U?$PoseWithCovarianceStamped_@V?$allocator@X@std@@@msg@geometry_msgs@@@std@@@std@@EEAAXXZ
	?_Destroy@?$_Ref_count_resource@PEAU?$MetricsMessage_@V?$allocator@X@std@@@msg@statistics_msgs@@U?$default_delete@U?$MetricsMessage_@V?$allocator@X@std@@@msg@statistics_msgs@@@std@@@std@@EEAAXXZ
	?_Destroy@?$_Ref_count_resource@PEAU?$PoseWithCovarianceStamped_@V?$allocator@X@std@@@msg@geometry_msgs@@U?$default_delete@U?$PoseWithCovarianceStamped_@V?$allocator@X@std@@@msg@geometry_msgs@@@std@@@std@@EEAAXXZ
	?_Destroy@?$_Ref_count_resource@PEAU?$PoseWithCovarianceStamped_@V?$allocator@X@std@@@msg@geometry_msgs@@V<lambda_b05f438fa8a0717b905717c1aa9025d1>@@@std@@EEAAXXZ
	?_Destroy@?$_Ref_count_resource@PEAUrcl_service_t@@V<lambda_4fa184f521fb41f33f9d01b40f5ac9d9>@@@std@@EEAAXXZ
	?_Destroy@?$_Ref_count_resource@PEAVIntraProcessManager@experimental@rclcpp@@V<lambda_9dd0c8f7d82d5c8e326d3c0685e9bc2f>@@@std@@EEAAXXZ
	?_Destroy@?$vector@U?$MetricsMessage_@V?$allocator@X@std@@@msg@statistics_msgs@@V?$allocator@U?$MetricsMessage_@V?$allocator@X@std@@@msg@statistics_msgs@@@std@@@std@@AEAAXPEAU?$MetricsMessage_@V?$allocator@X@std@@@msg@statistics_msgs@@0@Z
	?_Destroy@?$vector@V?$shared_ptr@VQOSEventHandlerBase@rclcpp@@@std@@V?$allocator@V?$shared_ptr@VQOSEventHandlerBase@rclcpp@@@std@@@2@@std@@AEAAXPEAV?$shared_ptr@VQOSEventHandlerBase@rclcpp@@@2@0@Z
	?_Destroy@?$vector@V?$unique_ptr@V?$TopicStatisticsCollector@U?$PoseWithCovarianceStamped_@V?$allocator@X@std@@@msg@geometry_msgs@@@topic_statistics_collector@libstatistics_collector@@U?$default_delete@V?$TopicStatisticsCollector@U?$PoseWithCovarianceStamped_@V?$allocator@X@std@@@msg@geometry_msgs@@@topic_statistics_collector@libstatistics_collector@@@std@@@std@@V?$allocator@V?$unique_ptr@V?$TopicStatisticsCollector@U?$PoseWithCovarianceStamped_@V?$allocator@X@std@@@msg@geometry_msgs@@@topic_statistics_collector@libstatistics_collector@@U?$default_delete@V?$TopicStatisticsCollector@U?$PoseWithCovarianceStamped_@V?$allocator@X@std@@@msg@geometry_msgs@@@topic_statistics_collector@libstatistics_collector@@@std@@@std@@@2@@std@@AEAAXPEAV?$unique_ptr@V?$TopicStatisticsCollector@U?$PoseWithCovarianceStamped_@V?$allocator@X@std@@@msg@geometry_msgs@@@topic_statistics_collector@libstatistics_collector@@U?$default_delete@V?$TopicStatisticsCollector@U?$PoseWithCovarianceStamped_@V?$allocator@X@std@@@msg@geometry_msgs@@@topic_statistics_collector@libstatistics_collector@@@std@@@2@0@Z
	?_Do_call@?$_Func_impl_no_alloc@V<lambda_33d3207aa9cfabd17909961fe837b8a9>@@V?$shared_ptr@VSubscriptionBase@rclcpp@@@std@@PEAVNodeBaseInterface@node_interfaces@rclcpp@@AEBV?$basic_string@DU?$char_traits@D@std@@V?$allocator@D@2@@3@AEBVQoS@6@@std@@EEAA?AV?$shared_ptr@VSubscriptionBase@rclcpp@@@2@$$QEAPEAVNodeBaseInterface@node_interfaces@rclcpp@@AEBV?$basic_string@DU?$char_traits@D@std@@V?$allocator@D@2@@2@AEBVQoS@6@@Z
	?_Do_call@?$_Func_impl_no_alloc@V<lambda_83c40cceffae39b19729e050b3a9ba8e>@@V?$shared_ptr@VPublisherBase@rclcpp@@@std@@PEAVNodeBaseInterface@node_interfaces@rclcpp@@AEBV?$basic_string@DU?$char_traits@D@std@@V?$allocator@D@2@@3@AEBVQoS@6@@std@@EEAA?AV?$shared_ptr@VPublisherBase@rclcpp@@@2@$$QEAPEAVNodeBaseInterface@node_interfaces@rclcpp@@AEBV?$basic_string@DU?$char_traits@D@std@@V?$allocator@D@2@@2@AEBVQoS@6@@Z
	?_Do_call@?$_Func_impl_no_alloc@V?$_Binder@U_Unforced@std@@P8LocalizationSlamToolbox@slam_toolbox@@EAAXV?$shared_ptr@U?$PoseWithCovarianceStamped_@V?$allocator@X@std@@@msg@geometry_msgs@@@2@@ZPEAV34@AEBU?$_Ph@$00@2@@std@@XV?$shared_ptr@U?$PoseWithCovarianceStamped_@V?$allocator@X@std@@@msg@geometry_msgs@@@2@@std@@EEAAX$$QEAV?$shared_ptr@U?$PoseWithCovarianceStamped_@V?$allocator@X@std@@@msg@geometry_msgs@@@2@@Z
	?_Do_call@?$_Func_impl_no_alloc@V?$_Binder@U_Unforced@std@@P8LocalizationSlamToolbox@slam_toolbox@@EAA_NV?$shared_ptr@Urmw_request_id_t@@@2@V?$shared_ptr@U?$Empty_Request_@V?$allocator@X@std@@@srv@std_srvs@@@2@V?$shared_ptr@U?$Empty_Response_@V?$allocator@X@std@@@srv@std_srvs@@@2@@ZPEAV34@AEBU?$_Ph@$00@2@AEBU?$_Ph@$01@2@AEBU?$_Ph@$02@2@@std@@XV?$shared_ptr@Urmw_request_id_t@@@2@V?$shared_ptr@U?$Empty_Request_@V?$allocator@X@std@@@srv@std_srvs@@@2@V?$shared_ptr@U?$Empty_Response_@V?$allocator@X@std@@@srv@std_srvs@@@2@@std@@EEAAX$$QEAV?$shared_ptr@Urmw_request_id_t@@@2@$$QEAV?$shared_ptr@U?$Empty_Request_@V?$allocator@X@std@@@srv@std_srvs@@@2@$$QEAV?$shared_ptr@U?$Empty_Response_@V?$allocator@X@std@@@srv@std_srvs@@@2@@Z
	?_Forced_rehash@?$_Hash@V?$_Umap_traits@PEAVQOSEventHandlerBase@rclcpp@@U?$atomic@_N@std@@V?$_Uhash_compare@PEAVQOSEventHandlerBase@rclcpp@@U?$hash@PEAVQOSEventHandlerBase@rclcpp@@@std@@U?$equal_to@PEAVQOSEventHandlerBase@rclcpp@@@4@@4@V?$allocator@U?$pair@QEAVQOSEventHandlerBase@rclcpp@@U?$atomic@_N@std@@@std@@@4@$0A@@std@@@std@@IEAAX_K@Z
	?_Forced_rehash@?$_Hash@V?$_Umap_traits@Vtype_index@std@@V?$shared_ptr@X@2@V?$_Uhash_compare@Vtype_index@std@@U?$hash@Vtype_index@std@@@2@U?$equal_to@Vtype_index@std@@@2@@2@V?$allocator@U?$pair@$$CBVtype_index@std@@V?$shared_ptr@X@2@@std@@@2@$0A@@std@@@std@@IEAAX_K@Z
	?_Get@?$_Func_impl_no_alloc@V<lambda_33d3207aa9cfabd17909961fe837b8a9>@@V?$shared_ptr@VSubscriptionBase@rclcpp@@@std@@PEAVNodeBaseInterface@node_interfaces@rclcpp@@AEBV?$basic_string@DU?$char_traits@D@std@@V?$allocator@D@2@@3@AEBVQoS@6@@std@@EEBAPEBXXZ
	?_Get@?$_Func_impl_no_alloc@V<lambda_83c40cceffae39b19729e050b3a9ba8e>@@V?$shared_ptr@VPublisherBase@rclcpp@@@std@@PEAVNodeBaseInterface@node_interfaces@rclcpp@@AEBV?$basic_string@DU?$char_traits@D@std@@V?$allocator@D@2@@3@AEBVQoS@6@@std@@EEBAPEBXXZ
	?_Get@?$_Func_impl_no_alloc@V?$_Binder@U_Unforced@std@@P8LocalizationSlamToolbox@slam_toolbox@@EAAXV?$shared_ptr@U?$PoseWithCovarianceStamped_@V?$allocator@X@std@@@msg@geometry_msgs@@@2@@ZPEAV34@AEBU?$_Ph@$00@2@@std@@XV?$shared_ptr@U?$PoseWithCovarianceStamped_@V?$allocator@X@std@@@msg@geometry_msgs@@@2@@std@@EEBAPEBXXZ
	?_Get@?$_Func_impl_no_alloc@V?$_Binder@U_Unforced@std@@P8LocalizationSlamToolbox@slam_toolbox@@EAA_NV?$shared_ptr@Urmw_request_id_t@@@2@V?$shared_ptr@U?$Empty_Request_@V?$allocator@X@std@@@srv@std_srvs@@@2@V?$shared_ptr@U?$Empty_Response_@V?$allocator@X@std@@@srv@std_srvs@@@2@@ZPEAV34@AEBU?$_Ph@$00@2@AEBU?$_Ph@$01@2@AEBU?$_Ph@$02@2@@std@@XV?$shared_ptr@Urmw_request_id_t@@@2@V?$shared_ptr@U?$Empty_Request_@V?$allocator@X@std@@@srv@std_srvs@@@2@V?$shared_ptr@U?$Empty_Response_@V?$allocator@X@std@@@srv@std_srvs@@@2@@std@@EEBAPEBXXZ
	?_Get_deleter@?$_Ref_count_resource@PEAU?$MetricsMessage_@V?$allocator@X@std@@@msg@statistics_msgs@@U?$default_delete@U?$MetricsMessage_@V?$allocator@X@std@@@msg@statistics_msgs@@@std@@@std@@UEBAPEAXAEBVtype_info@@@Z
	?_Get_deleter@?$_Ref_count_resource@PEAU?$PoseWithCovarianceStamped_@V?$allocator@X@std@@@msg@geometry_msgs@@U?$default_delete@U?$PoseWithCovarianceStamped_@V?$allocator@X@std@@@msg@geometry_msgs@@@std@@@std@@UEBAPEAXAEBVtype_info@@@Z
	?_Get_deleter@?$_Ref_count_resource@PEAU?$PoseWithCovarianceStamped_@V?$allocator@X@std@@@msg@geometry_msgs@@V<lambda_b05f438fa8a0717b905717c1aa9025d1>@@@std@@UEBAPEAXAEBVtype_info@@@Z
	?_Get_deleter@?$_Ref_count_resource@PEAUrcl_service_t@@V<lambda_4fa184f521fb41f33f9d01b40f5ac9d9>@@@std@@UEBAPEAXAEBVtype_info@@@Z
	?_Get_deleter@?$_Ref_count_resource@PEAVIntraProcessManager@experimental@rclcpp@@V<lambda_9dd0c8f7d82d5c8e326d3c0685e9bc2f>@@@std@@UEBAPEAXAEBVtype_info@@@Z
	?_Get_deleter@_Ref_count_base@std@@UEBAPEAXAEBVtype_info@@@Z
	?_Getal@?$vector@PEAVAbstractParameter@karto@@V?$allocator@PEAVAbstractParameter@karto@@@std@@@std@@AEAAAEAV?$allocator@PEAVAbstractParameter@karto@@@2@XZ
	?_Getal@?$vector@PEAVObject@karto@@V?$allocator@PEAVObject@karto@@@std@@@std@@AEAAAEAV?$allocator@PEAVObject@karto@@@2@XZ
	?_Getal@?$vector@_KV?$allocator@_K@std@@@std@@AEAAAEAV?$allocator@_K@2@XZ
	?_Init@?$basic_stringbuf@DU?$char_traits@D@std@@V?$allocator@D@2@@std@@IEAAXPEBD_KH@Z
	?_Insert_node@?$_Tree_val@U?$_Tree_simple_types@U?$pair@$$CBHPEAVObject@karto@@@std@@@std@@@std@@QEAAPEAU?$_Tree_node@U?$pair@$$CBHPEAVObject@karto@@@std@@PEAX@2@U?$_Tree_id@PEAU?$_Tree_node@U?$pair@$$CBHPEAVObject@karto@@@std@@PEAX@std@@@2@QEAU32@@Z
	?_Insert_node@?$_Tree_val@U?$_Tree_simple_types@U?$pair@$$CBV?$basic_string@DU?$char_traits@D@std@@V?$allocator@D@2@@std@@PEAVAbstractParameter@karto@@@std@@@std@@@std@@QEAAPEAU?$_Tree_node@U?$pair@$$CBV?$basic_string@DU?$char_traits@D@std@@V?$allocator@D@2@@std@@PEAVAbstractParameter@karto@@@std@@PEAX@2@U?$_Tree_id@PEAU?$_Tree_node@U?$pair@$$CBV?$basic_string@DU?$char_traits@D@std@@V?$allocator@D@2@@std@@PEAVAbstractParameter@karto@@@std@@PEAX@std@@@2@QEAU32@@Z
	?_Insert_node@?$_Tree_val@U?$_Tree_simple_types@U?$pair@$$CBVName@karto@@PEAVSensor@2@@std@@@std@@@std@@QEAAPEAU?$_Tree_node@U?$pair@$$CBVName@karto@@PEAVSensor@2@@std@@PEAX@2@U?$_Tree_id@PEAU?$_Tree_node@U?$pair@$$CBVName@karto@@PEAVSensor@2@@std@@PEAX@std@@@2@QEAU32@@Z
	?_Maklocwcs@std@@YAPEA_WPEB_W@Z
	?_Move@?$_Func_impl_no_alloc@V<lambda_33d3207aa9cfabd17909961fe837b8a9>@@V?$shared_ptr@VSubscriptionBase@rclcpp@@@std@@PEAVNodeBaseInterface@node_interfaces@rclcpp@@AEBV?$basic_string@DU?$char_traits@D@std@@V?$allocator@D@2@@3@AEBVQoS@6@@std@@EEAAPEAV?$_Func_base@V?$shared_ptr@VSubscriptionBase@rclcpp@@@std@@PEAVNodeBaseInterface@node_interfaces@rclcpp@@AEBV?$basic_string@DU?$char_traits@D@std@@V?$allocator@D@2@@2@AEBVQoS@5@@2@PEAX@Z
	?_Move@?$_Func_impl_no_alloc@V<lambda_83c40cceffae39b19729e050b3a9ba8e>@@V?$shared_ptr@VPublisherBase@rclcpp@@@std@@PEAVNodeBaseInterface@node_interfaces@rclcpp@@AEBV?$basic_string@DU?$char_traits@D@std@@V?$allocator@D@2@@3@AEBVQoS@6@@std@@EEAAPEAV?$_Func_base@V?$shared_ptr@VPublisherBase@rclcpp@@@std@@PEAVNodeBaseInterface@node_interfaces@rclcpp@@AEBV?$basic_string@DU?$char_traits@D@std@@V?$allocator@D@2@@2@AEBVQoS@5@@2@PEAX@Z
	?_Move@?$_Func_impl_no_alloc@V?$_Binder@U_Unforced@std@@P8LocalizationSlamToolbox@slam_toolbox@@EAAXV?$shared_ptr@U?$PoseWithCovarianceStamped_@V?$allocator@X@std@@@msg@geometry_msgs@@@2@@ZPEAV34@AEBU?$_Ph@$00@2@@std@@XV?$shared_ptr@U?$PoseWithCovarianceStamped_@V?$allocator@X@std@@@msg@geometry_msgs@@@2@@std@@EEAAPEAV?$_Func_base@XV?$shared_ptr@U?$PoseWithCovarianceStamped_@V?$allocator@X@std@@@msg@geometry_msgs@@@std@@@2@PEAX@Z
	?_Move@?$_Func_impl_no_alloc@V?$_Binder@U_Unforced@std@@P8LocalizationSlamToolbox@slam_toolbox@@EAA_NV?$shared_ptr@Urmw_request_id_t@@@2@V?$shared_ptr@U?$Empty_Request_@V?$allocator@X@std@@@srv@std_srvs@@@2@V?$shared_ptr@U?$Empty_Response_@V?$allocator@X@std@@@srv@std_srvs@@@2@@ZPEAV34@AEBU?$_Ph@$00@2@AEBU?$_Ph@$01@2@AEBU?$_Ph@$02@2@@std@@XV?$shared_ptr@Urmw_request_id_t@@@2@V?$shared_ptr@U?$Empty_Request_@V?$allocator@X@std@@@srv@std_srvs@@@2@V?$shared_ptr@U?$Empty_Response_@V?$allocator@X@std@@@srv@std_srvs@@@2@@std@@EEAAPEAV?$_Func_base@XV?$shared_ptr@Urmw_request_id_t@@@std@@V?$shared_ptr@U?$Empty_Request_@V?$allocator@X@std@@@srv@std_srvs@@@2@V?$shared_ptr@U?$Empty_Response_@V?$allocator@X@std@@@srv@std_srvs@@@2@@2@PEAX@Z
	?_Reallocate_exactly@?$vector@PEAVAbstractParameter@karto@@V?$allocator@PEAVAbstractParameter@karto@@@std@@@std@@AEAAX_K@Z
	?_Reallocate_exactly@?$vector@PEAVObject@karto@@V?$allocator@PEAVObject@karto@@@std@@@std@@AEAAX_K@Z
	?_Rehash_for_1@?$_Hash@V?$_Umap_traits@PEAVQOSEventHandlerBase@rclcpp@@U?$atomic@_N@std@@V?$_Uhash_compare@PEAVQOSEventHandlerBase@rclcpp@@U?$hash@PEAVQOSEventHandlerBase@rclcpp@@@std@@U?$equal_to@PEAVQOSEventHandlerBase@rclcpp@@@4@@4@V?$allocator@U?$pair@QEAVQOSEventHandlerBase@rclcpp@@U?$atomic@_N@std@@@std@@@4@$0A@@std@@@std@@IEAAXXZ
	?_Target_type@?$_Func_impl_no_alloc@V<lambda_33d3207aa9cfabd17909961fe837b8a9>@@V?$shared_ptr@VSubscriptionBase@rclcpp@@@std@@PEAVNodeBaseInterface@node_interfaces@rclcpp@@AEBV?$basic_string@DU?$char_traits@D@std@@V?$allocator@D@2@@3@AEBVQoS@6@@std@@EEBAAEBVtype_info@@XZ
	?_Target_type@?$_Func_impl_no_alloc@V<lambda_83c40cceffae39b19729e050b3a9ba8e>@@V?$shared_ptr@VPublisherBase@rclcpp@@@std@@PEAVNodeBaseInterface@node_interfaces@rclcpp@@AEBV?$basic_string@DU?$char_traits@D@std@@V?$allocator@D@2@@3@AEBVQoS@6@@std@@EEBAAEBVtype_info@@XZ
	?_Target_type@?$_Func_impl_no_alloc@V?$_Binder@U_Unforced@std@@P8LocalizationSlamToolbox@slam_toolbox@@EAAXV?$shared_ptr@U?$PoseWithCovarianceStamped_@V?$allocator@X@std@@@msg@geometry_msgs@@@2@@ZPEAV34@AEBU?$_Ph@$00@2@@std@@XV?$shared_ptr@U?$PoseWithCovarianceStamped_@V?$allocator@X@std@@@msg@geometry_msgs@@@2@@std@@EEBAAEBVtype_info@@XZ
	?_Target_type@?$_Func_impl_no_alloc@V?$_Binder@U_Unforced@std@@P8LocalizationSlamToolbox@slam_toolbox@@EAA_NV?$shared_ptr@Urmw_request_id_t@@@2@V?$shared_ptr@U?$Empty_Request_@V?$allocator@X@std@@@srv@std_srvs@@@2@V?$shared_ptr@U?$Empty_Response_@V?$allocator@X@std@@@srv@std_srvs@@@2@@ZPEAV34@AEBU?$_Ph@$00@2@AEBU?$_Ph@$01@2@AEBU?$_Ph@$02@2@@std@@XV?$shared_ptr@Urmw_request_id_t@@@2@V?$shared_ptr@U?$Empty_Request_@V?$allocator@X@std@@@srv@std_srvs@@@2@V?$shared_ptr@U?$Empty_Response_@V?$allocator@X@std@@@srv@std_srvs@@@2@@std@@EEBAAEBVtype_info@@XZ
	?_Throw_bad_array_new_length@std@@YAXXZ
	?_Throw_bad_cast@std@@YAXXZ
	?_Throw_bad_weak_ptr@std@@YAXXZ
	?_Throw_tree_length_error@std@@YAXXZ
	?_Tidy@?$basic_stringbuf@DU?$char_traits@D@std@@V?$allocator@D@2@@std@@IEAAXXZ
	?_Tidy@?$vector@V?$shared_ptr@$$CBU?$PoseWithCovarianceStamped_@V?$allocator@X@std@@@msg@geometry_msgs@@@std@@V?$allocator@V?$shared_ptr@$$CBU?$PoseWithCovarianceStamped_@V?$allocator@X@std@@@msg@geometry_msgs@@@std@@@2@@std@@AEAAXXZ
	?_Tidy@?$vector@V?$unique_ptr@U?$PoseWithCovarianceStamped_@V?$allocator@X@std@@@msg@geometry_msgs@@U?$default_delete@U?$PoseWithCovarianceStamped_@V?$allocator@X@std@@@msg@geometry_msgs@@@std@@@std@@V?$allocator@V?$unique_ptr@U?$PoseWithCovarianceStamped_@V?$allocator@X@std@@@msg@geometry_msgs@@U?$default_delete@U?$PoseWithCovarianceStamped_@V?$allocator@X@std@@@msg@geometry_msgs@@@std@@@std@@@2@@std@@AEAAXXZ
	?_Umove@?$vector@V?$shared_ptr@VQOSEventHandlerBase@rclcpp@@@std@@V?$allocator@V?$shared_ptr@VQOSEventHandlerBase@rclcpp@@@std@@@2@@std@@AEAAPEAV?$shared_ptr@VQOSEventHandlerBase@rclcpp@@@2@PEAV32@00@Z
	?_Umove@?$vector@_KV?$allocator@_K@std@@@std@@AEAAPEA_KPEA_K00@Z
	?_Xlen_string@std@@YAXXZ
	?_Xlength@?$vector@PEAVAbstractParameter@karto@@V?$allocator@PEAVAbstractParameter@karto@@@std@@@std@@CAXXZ
	?_Xlength@?$vector@PEAVObject@karto@@V?$allocator@PEAVObject@karto@@@std@@@std@@CAXXZ
	?_Xlength@?$vector@U?$MetricsMessage_@V?$allocator@X@std@@@msg@statistics_msgs@@V?$allocator@U?$MetricsMessage_@V?$allocator@X@std@@@msg@statistics_msgs@@@std@@@std@@CAXXZ
	?_Xlength@?$vector@V?$shared_ptr@$$CBU?$PoseWithCovarianceStamped_@V?$allocator@X@std@@@msg@geometry_msgs@@@std@@V?$allocator@V?$shared_ptr@$$CBU?$PoseWithCovarianceStamped_@V?$allocator@X@std@@@msg@geometry_msgs@@@std@@@2@@std@@CAXXZ
	?_Xlength@?$vector@V?$shared_ptr@VQOSEventHandlerBase@rclcpp@@@std@@V?$allocator@V?$shared_ptr@VQOSEventHandlerBase@rclcpp@@@std@@@2@@std@@CAXXZ
	?_Xlength@?$vector@V?$unique_ptr@U?$PoseWithCovarianceStamped_@V?$allocator@X@std@@@msg@geometry_msgs@@U?$default_delete@U?$PoseWithCovarianceStamped_@V?$allocator@X@std@@@msg@geometry_msgs@@@std@@@std@@V?$allocator@V?$unique_ptr@U?$PoseWithCovarianceStamped_@V?$allocator@X@std@@@msg@geometry_msgs@@U?$default_delete@U?$PoseWithCovarianceStamped_@V?$allocator@X@std@@@msg@geometry_msgs@@@std@@@std@@@2@@std@@CAXXZ
	?_Xlength@?$vector@V?$unique_ptr@V?$TopicStatisticsCollector@U?$PoseWithCovarianceStamped_@V?$allocator@X@std@@@msg@geometry_msgs@@@topic_statistics_collector@libstatistics_collector@@U?$default_delete@V?$TopicStatisticsCollector@U?$PoseWithCovarianceStamped_@V?$allocator@X@std@@@msg@geometry_msgs@@@topic_statistics_collector@libstatistics_collector@@@std@@@std@@V?$allocator@V?$unique_ptr@V?$TopicStatisticsCollector@U?$PoseWithCovarianceStamped_@V?$allocator@X@std@@@msg@geometry_msgs@@@topic_statistics_collector@libstatistics_collector@@U?$default_delete@V?$TopicStatisticsCollector@U?$PoseWithCovarianceStamped_@V?$allocator@X@std@@@msg@geometry_msgs@@@topic_statistics_collector@libstatistics_collector@@@std@@@std@@@2@@std@@CAXXZ
	?_Xlength@?$vector@_KV?$allocator@_K@std@@@std@@CAXXZ
	?_Xran@?$_String_val@U?$_Simple_types@D@std@@@std@@SAXXZ
	?__empty_global_delete@@YAXPEAX@Z
	?__empty_global_delete@@YAXPEAX_K@Z
	?addScan@LocalizationSlamToolbox@slam_toolbox@@MEAAPEAVLocalizedRangeScan@karto@@PEAVLaserRangeFinder@4@AEBV?$shared_ptr@$$CBU?$LaserScan_@V?$allocator@X@std@@@msg@sensor_msgs@@@std@@AEAVPose2@4@@Z
	?add_shared@?$TypedIntraProcessBuffer@U?$PoseWithCovarianceStamped_@V?$allocator@X@std@@@msg@geometry_msgs@@V?$allocator@X@std@@U?$default_delete@U?$PoseWithCovarianceStamped_@V?$allocator@X@std@@@msg@geometry_msgs@@@5@V?$shared_ptr@$$CBU?$PoseWithCovarianceStamped_@V?$allocator@X@std@@@msg@geometry_msgs@@@5@@buffers@experimental@rclcpp@@UEAAXV?$shared_ptr@$$CBU?$PoseWithCovarianceStamped_@V?$allocator@X@std@@@msg@geometry_msgs@@@std@@@Z
	?add_shared@?$TypedIntraProcessBuffer@U?$PoseWithCovarianceStamped_@V?$allocator@X@std@@@msg@geometry_msgs@@V?$allocator@X@std@@U?$default_delete@U?$PoseWithCovarianceStamped_@V?$allocator@X@std@@@msg@geometry_msgs@@@5@V?$unique_ptr@U?$PoseWithCovarianceStamped_@V?$allocator@X@std@@@msg@geometry_msgs@@U?$default_delete@U?$PoseWithCovarianceStamped_@V?$allocator@X@std@@@msg@geometry_msgs@@@std@@@5@@buffers@experimental@rclcpp@@UEAAXV?$shared_ptr@$$CBU?$PoseWithCovarianceStamped_@V?$allocator@X@std@@@msg@geometry_msgs@@@std@@@Z
	?add_unique@?$TypedIntraProcessBuffer@U?$PoseWithCovarianceStamped_@V?$allocator@X@std@@@msg@geometry_msgs@@V?$allocator@X@std@@U?$default_delete@U?$PoseWithCovarianceStamped_@V?$allocator@X@std@@@msg@geometry_msgs@@@5@V?$shared_ptr@$$CBU?$PoseWithCovarianceStamped_@V?$allocator@X@std@@@msg@geometry_msgs@@@5@@buffers@experimental@rclcpp@@UEAAXV?$unique_ptr@U?$PoseWithCovarianceStamped_@V?$allocator@X@std@@@msg@geometry_msgs@@U?$default_delete@U?$PoseWithCovarianceStamped_@V?$allocator@X@std@@@msg@geometry_msgs@@@std@@@std@@@Z
	?add_unique@?$TypedIntraProcessBuffer@U?$PoseWithCovarianceStamped_@V?$allocator@X@std@@@msg@geometry_msgs@@V?$allocator@X@std@@U?$default_delete@U?$PoseWithCovarianceStamped_@V?$allocator@X@std@@@msg@geometry_msgs@@@5@V?$unique_ptr@U?$PoseWithCovarianceStamped_@V?$allocator@X@std@@@msg@geometry_msgs@@U?$default_delete@U?$PoseWithCovarianceStamped_@V?$allocator@X@std@@@msg@geometry_msgs@@@std@@@5@@buffers@experimental@rclcpp@@UEAAXV?$unique_ptr@U?$PoseWithCovarianceStamped_@V?$allocator@X@std@@@msg@geometry_msgs@@U?$default_delete@U?$PoseWithCovarianceStamped_@V?$allocator@X@std@@@msg@geometry_msgs@@@std@@@std@@@Z
	?allocate@?$_Default_allocator_traits@V?$allocator@U?$PoseWithCovarianceStamped_@V?$allocator@X@std@@@msg@geometry_msgs@@@std@@@std@@SAPEAU?$PoseWithCovarianceStamped_@V?$allocator@X@std@@@msg@geometry_msgs@@AEAV?$allocator@U?$PoseWithCovarianceStamped_@V?$allocator@X@std@@@msg@geometry_msgs@@@2@_K@Z
	?allocate@?$allocator@D@std@@QEAAPEAD_K@Z
	?allocate@?$allocator@PEAVAbstractParameter@karto@@@std@@QEAAPEAPEAVAbstractParameter@karto@@_K@Z
	?allocate@?$allocator@PEAVObject@karto@@@std@@QEAAPEAPEAVObject@karto@@_K@Z
	?allocate@?$allocator@V?$shared_ptr@VQOSEventHandlerBase@rclcpp@@@std@@@std@@QEAAPEAV?$shared_ptr@VQOSEventHandlerBase@rclcpp@@@2@_K@Z
	?allocate@?$allocator@V?$unique_ptr@V?$TopicStatisticsCollector@U?$PoseWithCovarianceStamped_@V?$allocator@X@std@@@msg@geometry_msgs@@@topic_statistics_collector@libstatistics_collector@@U?$default_delete@V?$TopicStatisticsCollector@U?$PoseWithCovarianceStamped_@V?$allocator@X@std@@@msg@geometry_msgs@@@topic_statistics_collector@libstatistics_collector@@@std@@@std@@@std@@QEAAPEAV?$unique_ptr@V?$TopicStatisticsCollector@U?$PoseWithCovarianceStamped_@V?$allocator@X@std@@@msg@geometry_msgs@@@topic_statistics_collector@libstatistics_collector@@U?$default_delete@V?$TopicStatisticsCollector@U?$PoseWithCovarianceStamped_@V?$allocator@X@std@@@msg@geometry_msgs@@@topic_statistics_collector@libstatistics_collector@@@std@@@2@_K@Z
	?allocate@?$allocator@_K@std@@QEAAPEA_K_K@Z
	?append@?$basic_string@DU?$char_traits@D@std@@V?$allocator@D@2@@std@@QEAAAEAV12@QEBD_K@Z
	?assign@?$basic_string@DU?$char_traits@D@std@@V?$allocator@D@2@@std@@QEAAAEAV12@QEBD_K@Z
	?assign@?$basic_string@DU?$char_traits@D@std@@V?$allocator@D@2@@std@@QEAAAEAV12@_KD@Z
	?borrow_message@?$MessageMemoryStrategy@U?$PoseWithCovarianceStamped_@V?$allocator@X@std@@@msg@geometry_msgs@@V?$allocator@X@std@@@message_memory_strategy@rclcpp@@UEAA?AV?$shared_ptr@U?$PoseWithCovarianceStamped_@V?$allocator@X@std@@@msg@geometry_msgs@@@std@@XZ
	?borrow_serialized_message@?$MessageMemoryStrategy@U?$PoseWithCovarianceStamped_@V?$allocator@X@std@@@msg@geometry_msgs@@V?$allocator@X@std@@@message_memory_strategy@rclcpp@@UEAA?AV?$shared_ptr@VSerializedMessage@rclcpp@@@std@@XZ
	?borrow_serialized_message@?$MessageMemoryStrategy@U?$PoseWithCovarianceStamped_@V?$allocator@X@std@@@msg@geometry_msgs@@V?$allocator@X@std@@@message_memory_strategy@rclcpp@@UEAA?AV?$shared_ptr@VSerializedMessage@rclcpp@@@std@@_K@Z
	?bring_up@?$SubscriptionTopicStatistics@U?$PoseWithCovarianceStamped_@V?$allocator@X@std@@@msg@geometry_msgs@@@topic_statistics@rclcpp@@AEAAXXZ
	?class_info@?$iserializer@Vbinary_iarchive@archive@boost@@U?$pair@$$CBHPEAVObject@karto@@@std@@@detail@archive@boost@@UEBA_NXZ
	?class_info@?$iserializer@Vbinary_iarchive@archive@boost@@U?$pair@$$CBV?$basic_string@DU?$char_traits@D@std@@V?$allocator@D@2@@std@@PEAVAbstractParameter@karto@@@std@@@detail@archive@boost@@UEBA_NXZ
	?class_info@?$iserializer@Vbinary_iarchive@archive@boost@@U?$pair@$$CBVName@karto@@PEAVSensor@2@@std@@@detail@archive@boost@@UEBA_NXZ
	?class_info@?$iserializer@Vbinary_iarchive@archive@boost@@V?$Parameter@V?$basic_string@DU?$char_traits@D@std@@V?$allocator@D@2@@std@@@karto@@@detail@archive@boost@@UEBA_NXZ
	?class_info@?$iserializer@Vbinary_iarchive@archive@boost@@V?$map@HPEAVObject@karto@@U?$less@H@std@@V?$allocator@U?$pair@$$CBHPEAVObject@karto@@@std@@@4@@std@@@detail@archive@boost@@UEBA_NXZ
	?class_info@?$iserializer@Vbinary_iarchive@archive@boost@@V?$map@V?$basic_string@DU?$char_traits@D@std@@V?$allocator@D@2@@std@@PEAVAbstractParameter@karto@@U?$less@V?$basic_string@DU?$char_traits@D@std@@V?$allocator@D@2@@std@@@2@V?$allocator@U?$pair@$$CBV?$basic_string@DU?$char_traits@D@std@@V?$allocator@D@2@@std@@PEAVAbstractParameter@karto@@@std@@@2@@std@@@detail@archive@boost@@UEBA_NXZ
	?class_info@?$iserializer@Vbinary_iarchive@archive@boost@@V?$map@VName@karto@@PEAVSensor@2@U?$less@VName@karto@@@std@@V?$allocator@U?$pair@$$CBVName@karto@@PEAVSensor@2@@std@@@5@@std@@@detail@archive@boost@@UEBA_NXZ
	?class_info@?$iserializer@Vbinary_iarchive@archive@boost@@V?$vector@PEAVAbstractParameter@karto@@V?$allocator@PEAVAbstractParameter@karto@@@std@@@std@@@detail@archive@boost@@UEBA_NXZ
	?class_info@?$iserializer@Vbinary_iarchive@archive@boost@@V?$vector@PEAVObject@karto@@V?$allocator@PEAVObject@karto@@@std@@@std@@@detail@archive@boost@@UEBA_NXZ
	?class_info@?$iserializer@Vbinary_iarchive@archive@boost@@VAbstractParameter@karto@@@detail@archive@boost@@UEBA_NXZ
	?class_info@?$iserializer@Vbinary_iarchive@archive@boost@@VDataset@karto@@@detail@archive@boost@@UEBA_NXZ
	?class_info@?$iserializer@Vbinary_iarchive@archive@boost@@VDatasetInfo@karto@@@detail@archive@boost@@UEBA_NXZ
	?class_info@?$iserializer@Vbinary_iarchive@archive@boost@@VName@karto@@@detail@archive@boost@@UEBA_NXZ
	?class_info@?$iserializer@Vbinary_iarchive@archive@boost@@VNonCopyable@karto@@@detail@archive@boost@@UEBA_NXZ
	?class_info@?$iserializer@Vbinary_iarchive@archive@boost@@VObject@karto@@@detail@archive@boost@@UEBA_NXZ
	?class_info@?$iserializer@Vbinary_iarchive@archive@boost@@VParameterManager@karto@@@detail@archive@boost@@UEBA_NXZ
	?class_info@?$oserializer@Vbinary_oarchive@archive@boost@@U?$pair@$$CBHPEAVObject@karto@@@std@@@detail@archive@boost@@UEBA_NXZ
	?class_info@?$oserializer@Vbinary_oarchive@archive@boost@@U?$pair@$$CBV?$basic_string@DU?$char_traits@D@std@@V?$allocator@D@2@@std@@PEAVAbstractParameter@karto@@@std@@@detail@archive@boost@@UEBA_NXZ
	?class_info@?$oserializer@Vbinary_oarchive@archive@boost@@U?$pair@$$CBVName@karto@@PEAVSensor@2@@std@@@detail@archive@boost@@UEBA_NXZ
	?class_info@?$oserializer@Vbinary_oarchive@archive@boost@@V?$Parameter@V?$basic_string@DU?$char_traits@D@std@@V?$allocator@D@2@@std@@@karto@@@detail@archive@boost@@UEBA_NXZ
	?class_info@?$oserializer@Vbinary_oarchive@archive@boost@@V?$map@HPEAVObject@karto@@U?$less@H@std@@V?$allocator@U?$pair@$$CBHPEAVObject@karto@@@std@@@4@@std@@@detail@archive@boost@@UEBA_NXZ
	?class_info@?$oserializer@Vbinary_oarchive@archive@boost@@V?$map@V?$basic_string@DU?$char_traits@D@std@@V?$allocator@D@2@@std@@PEAVAbstractParameter@karto@@U?$less@V?$basic_string@DU?$char_traits@D@std@@V?$allocator@D@2@@std@@@2@V?$allocator@U?$pair@$$CBV?$basic_string@DU?$char_traits@D@std@@V?$allocator@D@2@@std@@PEAVAbstractParameter@karto@@@std@@@2@@std@@@detail@archive@boost@@UEBA_NXZ
	?class_info@?$oserializer@Vbinary_oarchive@archive@boost@@V?$map@VName@karto@@PEAVSensor@2@U?$less@VName@karto@@@std@@V?$allocator@U?$pair@$$CBVName@karto@@PEAVSensor@2@@std@@@5@@std@@@detail@archive@boost@@UEBA_NXZ
	?class_info@?$oserializer@Vbinary_oarchive@archive@boost@@V?$vector@PEAVAbstractParameter@karto@@V?$allocator@PEAVAbstractParameter@karto@@@std@@@std@@@detail@archive@boost@@UEBA_NXZ
	?class_info@?$oserializer@Vbinary_oarchive@archive@boost@@V?$vector@PEAVObject@karto@@V?$allocator@PEAVObject@karto@@@std@@@std@@@detail@archive@boost@@UEBA_NXZ
	?class_info@?$oserializer@Vbinary_oarchive@archive@boost@@VAbstractParameter@karto@@@detail@archive@boost@@UEBA_NXZ
	?class_info@?$oserializer@Vbinary_oarchive@archive@boost@@VDataset@karto@@@detail@archive@boost@@UEBA_NXZ
	?class_info@?$oserializer@Vbinary_oarchive@archive@boost@@VDatasetInfo@karto@@@detail@archive@boost@@UEBA_NXZ
	?class_info@?$oserializer@Vbinary_oarchive@archive@boost@@VName@karto@@@detail@archive@boost@@UEBA_NXZ
	?class_info@?$oserializer@Vbinary_oarchive@archive@boost@@VNonCopyable@karto@@@detail@archive@boost@@UEBA_NXZ
	?class_info@?$oserializer@Vbinary_oarchive@archive@boost@@VObject@karto@@@detail@archive@boost@@UEBA_NXZ
	?class_info@?$oserializer@Vbinary_oarchive@archive@boost@@VParameterManager@karto@@@detail@archive@boost@@UEBA_NXZ
	?clear@?$RingBufferImplementation@V?$shared_ptr@$$CBU?$PoseWithCovarianceStamped_@V?$allocator@X@std@@@msg@geometry_msgs@@@std@@@buffers@experimental@rclcpp@@UEAAXXZ
	?clear@?$RingBufferImplementation@V?$unique_ptr@U?$PoseWithCovarianceStamped_@V?$allocator@X@std@@@msg@geometry_msgs@@U?$default_delete@U?$PoseWithCovarianceStamped_@V?$allocator@X@std@@@msg@geometry_msgs@@@std@@@std@@@buffers@experimental@rclcpp@@UEAAXXZ
	?clear@?$TypedIntraProcessBuffer@U?$PoseWithCovarianceStamped_@V?$allocator@X@std@@@msg@geometry_msgs@@V?$allocator@X@std@@U?$default_delete@U?$PoseWithCovarianceStamped_@V?$allocator@X@std@@@msg@geometry_msgs@@@5@V?$shared_ptr@$$CBU?$PoseWithCovarianceStamped_@V?$allocator@X@std@@@msg@geometry_msgs@@@5@@buffers@experimental@rclcpp@@UEAAXXZ
	?clear@?$TypedIntraProcessBuffer@U?$PoseWithCovarianceStamped_@V?$allocator@X@std@@@msg@geometry_msgs@@V?$allocator@X@std@@U?$default_delete@U?$PoseWithCovarianceStamped_@V?$allocator@X@std@@@msg@geometry_msgs@@@5@V?$unique_ptr@U?$PoseWithCovarianceStamped_@V?$allocator@X@std@@@msg@geometry_msgs@@U?$default_delete@U?$PoseWithCovarianceStamped_@V?$allocator@X@std@@@msg@geometry_msgs@@@std@@@5@@buffers@experimental@rclcpp@@UEAAXXZ
	?clear@?$_Tree@V?$_Tmap_traits@HPEAVObject@karto@@U?$less@H@std@@V?$allocator@U?$pair@$$CBHPEAVObject@karto@@@std@@@4@$0A@@std@@@std@@QEAAXXZ
	?clearLocalizationBuffer@LocalizationSlamToolbox@slam_toolbox@@IEAA_NV?$shared_ptr@Urmw_request_id_t@@@std@@V?$shared_ptr@U?$Empty_Request_@V?$allocator@X@std@@@srv@std_srvs@@@4@V?$shared_ptr@U?$Empty_Response_@V?$allocator@X@std@@@srv@std_srvs@@@4@@Z
	?clone@?$clone_impl@Ubad_alloc_@exception_detail@boost@@@exception_detail@boost@@$0PPPPPPPM@A@EBAPEBVclone_base@23@XZ
	?clone@?$clone_impl@Ubad_alloc_@exception_detail@boost@@@exception_detail@boost@@EEBAPEBVclone_base@23@XZ
	?clone@?$clone_impl@Ubad_exception_@exception_detail@boost@@@exception_detail@boost@@$0PPPPPPPM@A@EBAPEBVclone_base@23@XZ
	?clone@?$clone_impl@Ubad_exception_@exception_detail@boost@@@exception_detail@boost@@EEBAPEBVclone_base@23@XZ
	?clone@?$wrapexcept@Vlock_error@boost@@@boost@@UEBAPEBVclone_base@exception_detail@2@XZ
	?clone@?$wrapexcept@Vthread_resource_error@boost@@@boost@@UEBAPEBVclone_base@exception_detail@2@XZ
	?compare@?$basic_string@DU?$char_traits@D@std@@V?$allocator@D@2@@std@@QEBAHAEBV12@@Z
	?construct@?$extended_type_info_typeid@U?$pair@$$CBHPEAVObject@karto@@@std@@@serialization@boost@@UEBAPEAXIZZ
	?construct@?$extended_type_info_typeid@U?$pair@$$CBV?$basic_string@DU?$char_traits@D@std@@V?$allocator@D@2@@std@@PEAVAbstractParameter@karto@@@std@@@serialization@boost@@UEBAPEAXIZZ
	?construct@?$extended_type_info_typeid@U?$pair@$$CBVName@karto@@PEAVSensor@2@@std@@@serialization@boost@@UEBAPEAXIZZ
	?construct@?$extended_type_info_typeid@V?$Parameter@V?$basic_string@DU?$char_traits@D@std@@V?$allocator@D@2@@std@@@karto@@@serialization@boost@@UEBAPEAXIZZ
	?construct@?$extended_type_info_typeid@V?$map@HPEAVObject@karto@@U?$less@H@std@@V?$allocator@U?$pair@$$CBHPEAVObject@karto@@@std@@@4@@std@@@serialization@boost@@UEBAPEAXIZZ
	?construct@?$extended_type_info_typeid@V?$map@V?$basic_string@DU?$char_traits@D@std@@V?$allocator@D@2@@std@@PEAVAbstractParameter@karto@@U?$less@V?$basic_string@DU?$char_traits@D@std@@V?$allocator@D@2@@std@@@2@V?$allocator@U?$pair@$$CBV?$basic_string@DU?$char_traits@D@std@@V?$allocator@D@2@@std@@PEAVAbstractParameter@karto@@@std@@@2@@std@@@serialization@boost@@UEBAPEAXIZZ
	?construct@?$extended_type_info_typeid@V?$map@VName@karto@@PEAVSensor@2@U?$less@VName@karto@@@std@@V?$allocator@U?$pair@$$CBVName@karto@@PEAVSensor@2@@std@@@5@@std@@@serialization@boost@@UEBAPEAXIZZ
	?construct@?$extended_type_info_typeid@V?$vector@PEAVAbstractParameter@karto@@V?$allocator@PEAVAbstractParameter@karto@@@std@@@std@@@serialization@boost@@UEBAPEAXIZZ
	?construct@?$extended_type_info_typeid@V?$vector@PEAVObject@karto@@V?$allocator@PEAVObject@karto@@@std@@@std@@@serialization@boost@@UEBAPEAXIZZ
	?construct@?$extended_type_info_typeid@VAbstractParameter@karto@@@serialization@boost@@UEBAPEAXIZZ
	?construct@?$extended_type_info_typeid@VDataset@karto@@@serialization@boost@@UEBAPEAXIZZ
	?construct@?$extended_type_info_typeid@VDatasetInfo@karto@@@serialization@boost@@UEBAPEAXIZZ
	?construct@?$extended_type_info_typeid@VName@karto@@@serialization@boost@@UEBAPEAXIZZ
	?construct@?$extended_type_info_typeid@VNonCopyable@karto@@@serialization@boost@@UEBAPEAXIZZ
	?construct@?$extended_type_info_typeid@VObject@karto@@@serialization@boost@@UEBAPEAXIZZ
	?construct@?$extended_type_info_typeid@VParameterManager@karto@@@serialization@boost@@UEBAPEAXIZZ
	?construct@?$extended_type_info_typeid@VSensor@karto@@@serialization@boost@@UEBAPEAXIZZ
	?consume_shared@?$TypedIntraProcessBuffer@U?$PoseWithCovarianceStamped_@V?$allocator@X@std@@@msg@geometry_msgs@@V?$allocator@X@std@@U?$default_delete@U?$PoseWithCovarianceStamped_@V?$allocator@X@std@@@msg@geometry_msgs@@@5@V?$shared_ptr@$$CBU?$PoseWithCovarianceStamped_@V?$allocator@X@std@@@msg@geometry_msgs@@@5@@buffers@experimental@rclcpp@@UEAA?AV?$shared_ptr@$$CBU?$PoseWithCovarianceStamped_@V?$allocator@X@std@@@msg@geometry_msgs@@@std@@XZ
	?consume_shared@?$TypedIntraProcessBuffer@U?$PoseWithCovarianceStamped_@V?$allocator@X@std@@@msg@geometry_msgs@@V?$allocator@X@std@@U?$default_delete@U?$PoseWithCovarianceStamped_@V?$allocator@X@std@@@msg@geometry_msgs@@@5@V?$unique_ptr@U?$PoseWithCovarianceStamped_@V?$allocator@X@std@@@msg@geometry_msgs@@U?$default_delete@U?$PoseWithCovarianceStamped_@V?$allocator@X@std@@@msg@geometry_msgs@@@std@@@5@@buffers@experimental@rclcpp@@UEAA?AV?$shared_ptr@$$CBU?$PoseWithCovarianceStamped_@V?$allocator@X@std@@@msg@geometry_msgs@@@std@@XZ
	?consume_unique@?$TypedIntraProcessBuffer@U?$PoseWithCovarianceStamped_@V?$allocator@X@std@@@msg@geometry_msgs@@V?$allocator@X@std@@U?$default_delete@U?$PoseWithCovarianceStamped_@V?$allocator@X@std@@@msg@geometry_msgs@@@5@V?$shared_ptr@$$CBU?$PoseWithCovarianceStamped_@V?$allocator@X@std@@@msg@geometry_msgs@@@5@@buffers@experimental@rclcpp@@UEAA?AV?$unique_ptr@U?$PoseWithCovarianceStamped_@V?$allocator@X@std@@@msg@geometry_msgs@@U?$default_delete@U?$PoseWithCovarianceStamped_@V?$allocator@X@std@@@msg@geometry_msgs@@@std@@@std@@XZ
	?consume_unique@?$TypedIntraProcessBuffer@U?$PoseWithCovarianceStamped_@V?$allocator@X@std@@@msg@geometry_msgs@@V?$allocator@X@std@@U?$default_delete@U?$PoseWithCovarianceStamped_@V?$allocator@X@std@@@msg@geometry_msgs@@@5@V?$unique_ptr@U?$PoseWithCovarianceStamped_@V?$allocator@X@std@@@msg@geometry_msgs@@U?$default_delete@U?$PoseWithCovarianceStamped_@V?$allocator@X@std@@@msg@geometry_msgs@@@std@@@5@@buffers@experimental@rclcpp@@UEAA?AV?$unique_ptr@U?$PoseWithCovarianceStamped_@V?$allocator@X@std@@@msg@geometry_msgs@@U?$default_delete@U?$PoseWithCovarianceStamped_@V?$allocator@X@std@@@msg@geometry_msgs@@@std@@@std@@XZ
	?copy_boost_exception@exception_detail@boost@@YAXPEAVexception@2@PEBV32@@Z
	?count@?$duration@_JU?$ratio@$00$0DOI@@std@@@chrono@std@@QEBA_JXZ
	?create_message@?$Subscription@U?$PoseWithCovarianceStamped_@V?$allocator@X@std@@@msg@geometry_msgs@@V?$allocator@X@std@@V?$MessageMemoryStrategy@U?$PoseWithCovarianceStamped_@V?$allocator@X@std@@@msg@geometry_msgs@@V?$allocator@X@std@@@message_memory_strategy@rclcpp@@@rclcpp@@UEAA?AV?$shared_ptr@X@std@@XZ
	?create_request@?$Service@UEmpty@srv@std_srvs@@@rclcpp@@UEAA?AV?$shared_ptr@X@std@@XZ
	?create_request_header@?$Service@UEmpty@srv@std_srvs@@@rclcpp@@UEAA?AV?$shared_ptr@Urmw_request_id_t@@@std@@XZ
	?create_serialized_message@?$Subscription@U?$PoseWithCovarianceStamped_@V?$allocator@X@std@@@msg@geometry_msgs@@V?$allocator@X@std@@V?$MessageMemoryStrategy@U?$PoseWithCovarianceStamped_@V?$allocator@X@std@@@msg@geometry_msgs@@V?$allocator@X@std@@@message_memory_strategy@rclcpp@@@rclcpp@@UEAA?AV?$shared_ptr@VSerializedMessage@rclcpp@@@std@@XZ
	?deallocate@?$allocator@D@std@@QEAAXQEAD_K@Z
	?deallocate@?$allocator@PEAVAbstractParameter@karto@@@std@@QEAAXQEAPEAVAbstractParameter@karto@@_K@Z
	?deallocate@?$allocator@PEAVObject@karto@@@std@@QEAAXQEAPEAVObject@karto@@_K@Z
	?deallocate@?$allocator@U?$MetricsMessage_@V?$allocator@X@std@@@msg@statistics_msgs@@@std@@QEAAXQEAU?$MetricsMessage_@V?$allocator@X@std@@@msg@statistics_msgs@@_K@Z
	?deallocate@?$allocator@V?$shared_ptr@VQOSEventHandlerBase@rclcpp@@@std@@@std@@QEAAXQEAV?$shared_ptr@VQOSEventHandlerBase@rclcpp@@@2@_K@Z
	?deallocate@?$allocator@V?$unique_ptr@V?$TopicStatisticsCollector@U?$PoseWithCovarianceStamped_@V?$allocator@X@std@@@msg@geometry_msgs@@@topic_statistics_collector@libstatistics_collector@@U?$default_delete@V?$TopicStatisticsCollector@U?$PoseWithCovarianceStamped_@V?$allocator@X@std@@@msg@geometry_msgs@@@topic_statistics_collector@libstatistics_collector@@@std@@@std@@@std@@QEAAXQEAV?$unique_ptr@V?$TopicStatisticsCollector@U?$PoseWithCovarianceStamped_@V?$allocator@X@std@@@msg@geometry_msgs@@@topic_statistics_collector@libstatistics_collector@@U?$default_delete@V?$TopicStatisticsCollector@U?$PoseWithCovarianceStamped_@V?$allocator@X@std@@@msg@geometry_msgs@@@topic_statistics_collector@libstatistics_collector@@@std@@@2@_K@Z
	?deallocate@?$allocator@_K@std@@QEAAXQEA_K_K@Z
	?default_error_condition@error_category@system@boost@@UEBA?AVerror_condition@23@H@Z
	?default_error_condition@system_error_category@detail@system@boost@@UEBA?AVerror_condition@34@H@Z
	?dequeue@?$RingBufferImplementation@V?$shared_ptr@$$CBU?$PoseWithCovarianceStamped_@V?$allocator@X@std@@@msg@geometry_msgs@@@std@@@buffers@experimental@rclcpp@@UEAA?AV?$shared_ptr@$$CBU?$PoseWithCovarianceStamped_@V?$allocator@X@std@@@msg@geometry_msgs@@@std@@XZ
	?dequeue@?$RingBufferImplementation@V?$unique_ptr@U?$PoseWithCovarianceStamped_@V?$allocator@X@std@@@msg@geometry_msgs@@U?$default_delete@U?$PoseWithCovarianceStamped_@V?$allocator@X@std@@@msg@geometry_msgs@@@std@@@std@@@buffers@experimental@rclcpp@@UEAA?AV?$unique_ptr@U?$PoseWithCovarianceStamped_@V?$allocator@X@std@@@msg@geometry_msgs@@U?$default_delete@U?$PoseWithCovarianceStamped_@V?$allocator@X@std@@@msg@geometry_msgs@@@std@@@std@@XZ
	?deserializePoseGraphCallback@LocalizationSlamToolbox@slam_toolbox@@MEAA_NV?$shared_ptr@Urmw_request_id_t@@@std@@V?$shared_ptr@U?$DeserializePoseGraph_Request_@V?$allocator@X@std@@@srv@slam_toolbox@@@4@V?$shared_ptr@U?$DeserializePoseGraph_Response_@V?$allocator@X@std@@@srv@slam_toolbox@@@4@@Z
	?destroy@?$extended_type_info_typeid@U?$pair@$$CBHPEAVObject@karto@@@std@@@serialization@boost@@UEBAXQEBX@Z
	?destroy@?$extended_type_info_typeid@U?$pair@$$CBV?$basic_string@DU?$char_traits@D@std@@V?$allocator@D@2@@std@@PEAVAbstractParameter@karto@@@std@@@serialization@boost@@UEBAXQEBX@Z
	?destroy@?$extended_type_info_typeid@U?$pair@$$CBVName@karto@@PEAVSensor@2@@std@@@serialization@boost@@UEBAXQEBX@Z
	?destroy@?$extended_type_info_typeid@V?$Parameter@V?$basic_string@DU?$char_traits@D@std@@V?$allocator@D@2@@std@@@karto@@@serialization@boost@@UEBAXQEBX@Z
	?destroy@?$extended_type_info_typeid@V?$map@HPEAVObject@karto@@U?$less@H@std@@V?$allocator@U?$pair@$$CBHPEAVObject@karto@@@std@@@4@@std@@@serialization@boost@@UEBAXQEBX@Z
	?destroy@?$extended_type_info_typeid@V?$map@V?$basic_string@DU?$char_traits@D@std@@V?$allocator@D@2@@std@@PEAVAbstractParameter@karto@@U?$less@V?$basic_string@DU?$char_traits@D@std@@V?$allocator@D@2@@std@@@2@V?$allocator@U?$pair@$$CBV?$basic_string@DU?$char_traits@D@std@@V?$allocator@D@2@@std@@PEAVAbstractParameter@karto@@@std@@@2@@std@@@serialization@boost@@UEBAXQEBX@Z
	?destroy@?$extended_type_info_typeid@V?$map@VName@karto@@PEAVSensor@2@U?$less@VName@karto@@@std@@V?$allocator@U?$pair@$$CBVName@karto@@PEAVSensor@2@@std@@@5@@std@@@serialization@boost@@UEBAXQEBX@Z
	?destroy@?$extended_type_info_typeid@V?$vector@PEAVAbstractParameter@karto@@V?$allocator@PEAVAbstractParameter@karto@@@std@@@std@@@serialization@boost@@UEBAXQEBX@Z
	?destroy@?$extended_type_info_typeid@V?$vector@PEAVObject@karto@@V?$allocator@PEAVObject@karto@@@std@@@std@@@serialization@boost@@UEBAXQEBX@Z
	?destroy@?$extended_type_info_typeid@VAbstractParameter@karto@@@serialization@boost@@UEBAXQEBX@Z
	?destroy@?$extended_type_info_typeid@VDataset@karto@@@serialization@boost@@UEBAXQEBX@Z
	?destroy@?$extended_type_info_typeid@VDatasetInfo@karto@@@serialization@boost@@UEBAXQEBX@Z
	?destroy@?$extended_type_info_typeid@VName@karto@@@serialization@boost@@UEBAXQEBX@Z
	?destroy@?$extended_type_info_typeid@VNonCopyable@karto@@@serialization@boost@@UEBAXQEBX@Z
	?destroy@?$extended_type_info_typeid@VObject@karto@@@serialization@boost@@UEBAXQEBX@Z
	?destroy@?$extended_type_info_typeid@VParameterManager@karto@@@serialization@boost@@UEBAXQEBX@Z
	?destroy@?$extended_type_info_typeid@VSensor@karto@@@serialization@boost@@UEBAXQEBX@Z
	?destroy@?$iserializer@Vbinary_iarchive@archive@boost@@U?$pair@$$CBHPEAVObject@karto@@@std@@@detail@archive@boost@@EEBAXPEAX@Z
	?destroy@?$iserializer@Vbinary_iarchive@archive@boost@@U?$pair@$$CBV?$basic_string@DU?$char_traits@D@std@@V?$allocator@D@2@@std@@PEAVAbstractParameter@karto@@@std@@@detail@archive@boost@@EEBAXPEAX@Z
	?destroy@?$iserializer@Vbinary_iarchive@archive@boost@@U?$pair@$$CBVName@karto@@PEAVSensor@2@@std@@@detail@archive@boost@@EEBAXPEAX@Z
	?destroy@?$iserializer@Vbinary_iarchive@archive@boost@@V?$Parameter@V?$basic_string@DU?$char_traits@D@std@@V?$allocator@D@2@@std@@@karto@@@detail@archive@boost@@EEBAXPEAX@Z
	?destroy@?$iserializer@Vbinary_iarchive@archive@boost@@V?$map@HPEAVObject@karto@@U?$less@H@std@@V?$allocator@U?$pair@$$CBHPEAVObject@karto@@@std@@@4@@std@@@detail@archive@boost@@EEBAXPEAX@Z
	?destroy@?$iserializer@Vbinary_iarchive@archive@boost@@V?$map@V?$basic_string@DU?$char_traits@D@std@@V?$allocator@D@2@@std@@PEAVAbstractParameter@karto@@U?$less@V?$basic_string@DU?$char_traits@D@std@@V?$allocator@D@2@@std@@@2@V?$allocator@U?$pair@$$CBV?$basic_string@DU?$char_traits@D@std@@V?$allocator@D@2@@std@@PEAVAbstractParameter@karto@@@std@@@2@@std@@@detail@archive@boost@@EEBAXPEAX@Z
	?destroy@?$iserializer@Vbinary_iarchive@archive@boost@@V?$map@VName@karto@@PEAVSensor@2@U?$less@VName@karto@@@std@@V?$allocator@U?$pair@$$CBVName@karto@@PEAVSensor@2@@std@@@5@@std@@@detail@archive@boost@@EEBAXPEAX@Z
	?destroy@?$iserializer@Vbinary_iarchive@archive@boost@@V?$vector@PEAVAbstractParameter@karto@@V?$allocator@PEAVAbstractParameter@karto@@@std@@@std@@@detail@archive@boost@@EEBAXPEAX@Z
	?destroy@?$iserializer@Vbinary_iarchive@archive@boost@@V?$vector@PEAVObject@karto@@V?$allocator@PEAVObject@karto@@@std@@@std@@@detail@archive@boost@@EEBAXPEAX@Z
	?destroy@?$iserializer@Vbinary_iarchive@archive@boost@@VAbstractParameter@karto@@@detail@archive@boost@@EEBAXPEAX@Z
	?destroy@?$iserializer@Vbinary_iarchive@archive@boost@@VDataset@karto@@@detail@archive@boost@@EEBAXPEAX@Z
	?destroy@?$iserializer@Vbinary_iarchive@archive@boost@@VDatasetInfo@karto@@@detail@archive@boost@@EEBAXPEAX@Z
	?destroy@?$iserializer@Vbinary_iarchive@archive@boost@@VName@karto@@@detail@archive@boost@@EEBAXPEAX@Z
	?destroy@?$iserializer@Vbinary_iarchive@archive@boost@@VNonCopyable@karto@@@detail@archive@boost@@EEBAXPEAX@Z
	?destroy@?$iserializer@Vbinary_iarchive@archive@boost@@VObject@karto@@@detail@archive@boost@@EEBAXPEAX@Z
	?destroy@?$iserializer@Vbinary_iarchive@archive@boost@@VParameterManager@karto@@@detail@archive@boost@@EEBAXPEAX@Z
	?destroy@sp_counted_base@detail@boost@@UEAAXXZ
	?dispatch@?$AnyServiceCallback@UEmpty@srv@std_srvs@@@rclcpp@@QEAAXV?$shared_ptr@Urmw_request_id_t@@@std@@V?$shared_ptr@U?$Empty_Request_@V?$allocator@X@std@@@srv@std_srvs@@@4@V?$shared_ptr@U?$Empty_Response_@V?$allocator@X@std@@@srv@std_srvs@@@4@@Z
	?dispatch@?$AnySubscriptionCallback@U?$PoseWithCovarianceStamped_@V?$allocator@X@std@@@msg@geometry_msgs@@V?$allocator@X@std@@@rclcpp@@QEAAXV?$shared_ptr@U?$PoseWithCovarianceStamped_@V?$allocator@X@std@@@msg@geometry_msgs@@@std@@AEBVMessageInfo@2@@Z
	?dispatch_intra_process@?$AnySubscriptionCallback@U?$PoseWithCovarianceStamped_@V?$allocator@X@std@@@msg@geometry_msgs@@V?$allocator@X@std@@@rclcpp@@QEAAXV?$unique_ptr@U?$PoseWithCovarianceStamped_@V?$allocator@X@std@@@msg@geometry_msgs@@U?$default_delete@U?$PoseWithCovarianceStamped_@V?$allocator@X@std@@@msg@geometry_msgs@@@std@@@std@@AEBVMessageInfo@2@@Z
	?dispose@?$sp_counted_impl_p@V?$clone_impl@Ubad_alloc_@exception_detail@boost@@@exception_detail@boost@@@detail@boost@@UEAAXXZ
	?dispose@?$sp_counted_impl_p@V?$clone_impl@Ubad_exception_@exception_detail@boost@@@exception_detail@boost@@@detail@boost@@UEAAXXZ
	?do_inter_process_publish@?$Publisher@U?$MetricsMessage_@V?$allocator@X@std@@@msg@statistics_msgs@@V?$allocator@X@std@@@rclcpp@@IEAAXAEBU?$MetricsMessage_@V?$allocator@X@std@@@msg@statistics_msgs@@@Z
	?do_intra_process_publish@?$Publisher@U?$MetricsMessage_@V?$allocator@X@std@@@msg@statistics_msgs@@V?$allocator@X@std@@@rclcpp@@IEAAXV?$unique_ptr@U?$MetricsMessage_@V?$allocator@X@std@@@msg@statistics_msgs@@U?$default_delete@U?$MetricsMessage_@V?$allocator@X@std@@@msg@statistics_msgs@@@std@@@std@@@Z
	?do_intra_process_publish_and_return_shared@?$Publisher@U?$MetricsMessage_@V?$allocator@X@std@@@msg@statistics_msgs@@V?$allocator@X@std@@@rclcpp@@IEAA?AV?$shared_ptr@$$CBU?$MetricsMessage_@V?$allocator@X@std@@@msg@statistics_msgs@@@std@@V?$unique_ptr@U?$MetricsMessage_@V?$allocator@X@std@@@msg@statistics_msgs@@U?$default_delete@U?$MetricsMessage_@V?$allocator@X@std@@@msg@statistics_msgs@@@std@@@4@@Z
	?downcast@?$void_caster_primitive@V?$Parameter@V?$basic_string@DU?$char_traits@D@std@@V?$allocator@D@2@@std@@@karto@@VAbstractParameter@2@@void_cast_detail@serialization@boost@@EEBAPEBXQEBX@Z
	?downcast@?$void_caster_primitive@VDatasetInfo@karto@@VObject@2@@void_cast_detail@serialization@boost@@EEBAPEBXQEBX@Z
	?downcast@?$void_caster_primitive@VObject@karto@@VNonCopyable@2@@void_cast_detail@serialization@boost@@EEBAPEBXQEBX@Z
	?downcast@?$void_caster_primitive@VParameterManager@karto@@VNonCopyable@2@@void_cast_detail@serialization@boost@@EEBAPEBXQEBX@Z
	?enqueue@?$RingBufferImplementation@V?$shared_ptr@$$CBU?$PoseWithCovarianceStamped_@V?$allocator@X@std@@@msg@geometry_msgs@@@std@@@buffers@experimental@rclcpp@@UEAAXV?$shared_ptr@$$CBU?$PoseWithCovarianceStamped_@V?$allocator@X@std@@@msg@geometry_msgs@@@std@@@Z
	?enqueue@?$RingBufferImplementation@V?$unique_ptr@U?$PoseWithCovarianceStamped_@V?$allocator@X@std@@@msg@geometry_msgs@@U?$default_delete@U?$PoseWithCovarianceStamped_@V?$allocator@X@std@@@msg@geometry_msgs@@@std@@@std@@@buffers@experimental@rclcpp@@UEAAXV?$unique_ptr@U?$PoseWithCovarianceStamped_@V?$allocator@X@std@@@msg@geometry_msgs@@U?$default_delete@U?$PoseWithCovarianceStamped_@V?$allocator@X@std@@@msg@geometry_msgs@@@std@@@std@@@Z
	?equivalent@error_category@system@boost@@UEBA_NAEBVerror_code@23@H@Z
	?equivalent@error_category@system@boost@@UEBA_NHAEBVerror_condition@23@@Z
	?execute@?$QOSEventHandler@V<lambda_3f9548421920b881c8df116e1c596558>@@V?$shared_ptr@Urcl_subscription_t@@@std@@@rclcpp@@UEAAXXZ
	?execute@?$QOSEventHandler@V<lambda_c2318a75abbc27dc766add2e36d9f8d4>@@V?$shared_ptr@Urcl_publisher_t@@@std@@@rclcpp@@UEAAXXZ
	?execute@?$QOSEventHandler@V?$function@$$A6AXAEAUrmw_liveliness_changed_status_t@@@Z@std@@V?$shared_ptr@Urcl_subscription_t@@@2@@rclcpp@@UEAAXXZ
	?execute@?$QOSEventHandler@V?$function@$$A6AXAEAUrmw_liveliness_lost_status_t@@@Z@std@@V?$shared_ptr@Urcl_publisher_t@@@2@@rclcpp@@UEAAXXZ
	?execute@?$QOSEventHandler@V?$function@$$A6AXAEAUrmw_offered_deadline_missed_status_t@@@Z@std@@V?$shared_ptr@Urcl_publisher_t@@@2@@rclcpp@@UEAAXXZ
	?execute@?$QOSEventHandler@V?$function@$$A6AXAEAUrmw_qos_incompatible_event_status_t@@@Z@std@@V?$shared_ptr@Urcl_publisher_t@@@2@@rclcpp@@UEAAXXZ
	?execute@?$QOSEventHandler@V?$function@$$A6AXAEAUrmw_qos_incompatible_event_status_t@@@Z@std@@V?$shared_ptr@Urcl_subscription_t@@@2@@rclcpp@@UEAAXXZ
	?execute@?$QOSEventHandler@V?$function@$$A6AXAEAUrmw_requested_deadline_missed_status_t@@@Z@std@@V?$shared_ptr@Urcl_subscription_t@@@2@@rclcpp@@UEAAXXZ
	?execute@?$SubscriptionIntraProcess@U?$PoseWithCovarianceStamped_@V?$allocator@X@std@@@msg@geometry_msgs@@V?$allocator@X@std@@U?$default_delete@U?$PoseWithCovarianceStamped_@V?$allocator@X@std@@@msg@geometry_msgs@@@5@U123@@experimental@rclcpp@@UEAAXXZ
	?execute_callback@?$GenericTimer@V<lambda_dc0acc6c162c69a79de61b136908d558>@@$0A@@rclcpp@@UEAAXXZ
	?extend_name_with_sub_namespace@rclcpp@@YA?AV?$basic_string@DU?$char_traits@D@std@@V?$allocator@D@2@@std@@AEBV23@0@Z
	?failed@error_category@system@boost@@UEBA_NH@Z
	?find@?$load_pointer_type@Vbinary_iarchive@archive@boost@@@detail@archive@boost@@SAPEBVbasic_pointer_iserializer@234@AEBVextended_type_info@serialization@4@@Z
	?getOdomPose@GetPoseHelper@pose_utils@@QEAA_NAEAVPose2@karto@@AEBVTime@rclcpp@@@Z
	?get_allocator@?$PublisherOptionsWithAllocator@V?$allocator@X@std@@@rclcpp@@QEBA?AV?$shared_ptr@V?$allocator@X@std@@@std@@XZ
	?get_allocator@?$SubscriptionOptionsWithAllocator@V?$allocator@X@std@@@rclcpp@@QEBA?AV?$shared_ptr@V?$allocator@X@std@@@std@@XZ
	?get_basic_serializer@?$pointer_iserializer@Vbinary_iarchive@archive@boost@@VDatasetInfo@karto@@@detail@archive@boost@@EEBAAEBVbasic_iserializer@234@XZ
	?get_basic_serializer@?$pointer_iserializer@Vbinary_iarchive@archive@boost@@VParameterManager@karto@@@detail@archive@boost@@EEBAAEBVbasic_iserializer@234@XZ
	?get_basic_serializer@?$pointer_oserializer@Vbinary_oarchive@archive@boost@@VDatasetInfo@karto@@@detail@archive@boost@@EEBAAEBVbasic_oserializer@234@XZ
	?get_basic_serializer@?$pointer_oserializer@Vbinary_oarchive@archive@boost@@VParameterManager@karto@@@detail@archive@boost@@EEBAAEBVbasic_oserializer@234@XZ
	?get_const_instance@?$singleton@V?$archive_serializer_map@Vbinary_oarchive@archive@boost@@@detail@archive@boost@@@serialization@boost@@SAAEBV?$archive_serializer_map@Vbinary_oarchive@archive@boost@@@detail@archive@3@XZ
	?get_const_instance@?$singleton@V?$extended_type_info_typeid@U?$pair@$$CBHPEAVObject@karto@@@std@@@serialization@boost@@@serialization@boost@@SAAEBV?$extended_type_info_typeid@U?$pair@$$CBHPEAVObject@karto@@@std@@@23@XZ
	?get_const_instance@?$singleton@V?$extended_type_info_typeid@U?$pair@$$CBV?$basic_string@DU?$char_traits@D@std@@V?$allocator@D@2@@std@@PEAVAbstractParameter@karto@@@std@@@serialization@boost@@@serialization@boost@@SAAEBV?$extended_type_info_typeid@U?$pair@$$CBV?$basic_string@DU?$char_traits@D@std@@V?$allocator@D@2@@std@@PEAVAbstractParameter@karto@@@std@@@23@XZ
	?get_const_instance@?$singleton@V?$extended_type_info_typeid@U?$pair@$$CBVName@karto@@PEAVSensor@2@@std@@@serialization@boost@@@serialization@boost@@SAAEBV?$extended_type_info_typeid@U?$pair@$$CBVName@karto@@PEAVSensor@2@@std@@@23@XZ
	?get_const_instance@?$singleton@V?$extended_type_info_typeid@V?$Parameter@V?$basic_string@DU?$char_traits@D@std@@V?$allocator@D@2@@std@@@karto@@@serialization@boost@@@serialization@boost@@SAAEBV?$extended_type_info_typeid@V?$Parameter@V?$basic_string@DU?$char_traits@D@std@@V?$allocator@D@2@@std@@@karto@@@23@XZ
	?get_const_instance@?$singleton@V?$extended_type_info_typeid@V?$map@HPEAVObject@karto@@U?$less@H@std@@V?$allocator@U?$pair@$$CBHPEAVObject@karto@@@std@@@4@@std@@@serialization@boost@@@serialization@boost@@SAAEBV?$extended_type_info_typeid@V?$map@HPEAVObject@karto@@U?$less@H@std@@V?$allocator@U?$pair@$$CBHPEAVObject@karto@@@std@@@4@@std@@@23@XZ
	?get_const_instance@?$singleton@V?$extended_type_info_typeid@V?$map@V?$basic_string@DU?$char_traits@D@std@@V?$allocator@D@2@@std@@PEAVAbstractParameter@karto@@U?$less@V?$basic_string@DU?$char_traits@D@std@@V?$allocator@D@2@@std@@@2@V?$allocator@U?$pair@$$CBV?$basic_string@DU?$char_traits@D@std@@V?$allocator@D@2@@std@@PEAVAbstractParameter@karto@@@std@@@2@@std@@@serialization@boost@@@serialization@boost@@SAAEBV?$extended_type_info_typeid@V?$map@V?$basic_string@DU?$char_traits@D@std@@V?$allocator@D@2@@std@@PEAVAbstractParameter@karto@@U?$less@V?$basic_string@DU?$char_traits@D@std@@V?$allocator@D@2@@std@@@2@V?$allocator@U?$pair@$$CBV?$basic_string@DU?$char_traits@D@std@@V?$allocator@D@2@@std@@PEAVAbstractParameter@karto@@@std@@@2@@std@@@23@XZ
	?get_const_instance@?$singleton@V?$extended_type_info_typeid@V?$map@VName@karto@@PEAVSensor@2@U?$less@VName@karto@@@std@@V?$allocator@U?$pair@$$CBVName@karto@@PEAVSensor@2@@std@@@5@@std@@@serialization@boost@@@serialization@boost@@SAAEBV?$extended_type_info_typeid@V?$map@VName@karto@@PEAVSensor@2@U?$less@VName@karto@@@std@@V?$allocator@U?$pair@$$CBVName@karto@@PEAVSensor@2@@std@@@5@@std@@@23@XZ
	?get_const_instance@?$singleton@V?$extended_type_info_typeid@V?$vector@PEAVAbstractParameter@karto@@V?$allocator@PEAVAbstractParameter@karto@@@std@@@std@@@serialization@boost@@@serialization@boost@@SAAEBV?$extended_type_info_typeid@V?$vector@PEAVAbstractParameter@karto@@V?$allocator@PEAVAbstractParameter@karto@@@std@@@std@@@23@XZ
	?get_const_instance@?$singleton@V?$extended_type_info_typeid@V?$vector@PEAVObject@karto@@V?$allocator@PEAVObject@karto@@@std@@@std@@@serialization@boost@@@serialization@boost@@SAAEBV?$extended_type_info_typeid@V?$vector@PEAVObject@karto@@V?$allocator@PEAVObject@karto@@@std@@@std@@@23@XZ
	?get_const_instance@?$singleton@V?$extended_type_info_typeid@VAbstractParameter@karto@@@serialization@boost@@@serialization@boost@@SAAEBV?$extended_type_info_typeid@VAbstractParameter@karto@@@23@XZ
	?get_const_instance@?$singleton@V?$extended_type_info_typeid@VDataset@karto@@@serialization@boost@@@serialization@boost@@SAAEBV?$extended_type_info_typeid@VDataset@karto@@@23@XZ
	?get_const_instance@?$singleton@V?$extended_type_info_typeid@VDatasetInfo@karto@@@serialization@boost@@@serialization@boost@@SAAEBV?$extended_type_info_typeid@VDatasetInfo@karto@@@23@XZ
	?get_const_instance@?$singleton@V?$extended_type_info_typeid@VName@karto@@@serialization@boost@@@serialization@boost@@SAAEBV?$extended_type_info_typeid@VName@karto@@@23@XZ
	?get_const_instance@?$singleton@V?$extended_type_info_typeid@VNonCopyable@karto@@@serialization@boost@@@serialization@boost@@SAAEBV?$extended_type_info_typeid@VNonCopyable@karto@@@23@XZ
	?get_const_instance@?$singleton@V?$extended_type_info_typeid@VObject@karto@@@serialization@boost@@@serialization@boost@@SAAEBV?$extended_type_info_typeid@VObject@karto@@@23@XZ
	?get_const_instance@?$singleton@V?$extended_type_info_typeid@VParameterManager@karto@@@serialization@boost@@@serialization@boost@@SAAEBV?$extended_type_info_typeid@VParameterManager@karto@@@23@XZ
	?get_const_instance@?$singleton@V?$extended_type_info_typeid@VSensor@karto@@@serialization@boost@@@serialization@boost@@SAAEBV?$extended_type_info_typeid@VSensor@karto@@@23@XZ
	?get_const_instance@?$singleton@V?$iserializer@Vbinary_iarchive@archive@boost@@U?$pair@$$CBHPEAVObject@karto@@@std@@@detail@archive@boost@@@serialization@boost@@SAAEBV?$iserializer@Vbinary_iarchive@archive@boost@@U?$pair@$$CBHPEAVObject@karto@@@std@@@detail@archive@3@XZ
	?get_const_instance@?$singleton@V?$iserializer@Vbinary_iarchive@archive@boost@@U?$pair@$$CBV?$basic_string@DU?$char_traits@D@std@@V?$allocator@D@2@@std@@PEAVAbstractParameter@karto@@@std@@@detail@archive@boost@@@serialization@boost@@SAAEBV?$iserializer@Vbinary_iarchive@archive@boost@@U?$pair@$$CBV?$basic_string@DU?$char_traits@D@std@@V?$allocator@D@2@@std@@PEAVAbstractParameter@karto@@@std@@@detail@archive@3@XZ
	?get_const_instance@?$singleton@V?$iserializer@Vbinary_iarchive@archive@boost@@U?$pair@$$CBVName@karto@@PEAVSensor@2@@std@@@detail@archive@boost@@@serialization@boost@@SAAEBV?$iserializer@Vbinary_iarchive@archive@boost@@U?$pair@$$CBVName@karto@@PEAVSensor@2@@std@@@detail@archive@3@XZ
	?get_const_instance@?$singleton@V?$iserializer@Vbinary_iarchive@archive@boost@@V?$Parameter@V?$basic_string@DU?$char_traits@D@std@@V?$allocator@D@2@@std@@@karto@@@detail@archive@boost@@@serialization@boost@@SAAEBV?$iserializer@Vbinary_iarchive@archive@boost@@V?$Parameter@V?$basic_string@DU?$char_traits@D@std@@V?$allocator@D@2@@std@@@karto@@@detail@archive@3@XZ
	?get_const_instance@?$singleton@V?$iserializer@Vbinary_iarchive@archive@boost@@V?$map@HPEAVObject@karto@@U?$less@H@std@@V?$allocator@U?$pair@$$CBHPEAVObject@karto@@@std@@@4@@std@@@detail@archive@boost@@@serialization@boost@@SAAEBV?$iserializer@Vbinary_iarchive@archive@boost@@V?$map@HPEAVObject@karto@@U?$less@H@std@@V?$allocator@U?$pair@$$CBHPEAVObject@karto@@@std@@@4@@std@@@detail@archive@3@XZ
	?get_const_instance@?$singleton@V?$iserializer@Vbinary_iarchive@archive@boost@@V?$map@V?$basic_string@DU?$char_traits@D@std@@V?$allocator@D@2@@std@@PEAVAbstractParameter@karto@@U?$less@V?$basic_string@DU?$char_traits@D@std@@V?$allocator@D@2@@std@@@2@V?$allocator@U?$pair@$$CBV?$basic_string@DU?$char_traits@D@std@@V?$allocator@D@2@@std@@PEAVAbstractParameter@karto@@@std@@@2@@std@@@detail@archive@boost@@@serialization@boost@@SAAEBV?$iserializer@Vbinary_iarchive@archive@boost@@V?$map@V?$basic_string@DU?$char_traits@D@std@@V?$allocator@D@2@@std@@PEAVAbstractParameter@karto@@U?$less@V?$basic_string@DU?$char_traits@D@std@@V?$allocator@D@2@@std@@@2@V?$allocator@U?$pair@$$CBV?$basic_string@DU?$char_traits@D@std@@V?$allocator@D@2@@std@@PEAVAbstractParameter@karto@@@std@@@2@@std@@@detail@archive@3@XZ
	?get_const_instance@?$singleton@V?$iserializer@Vbinary_iarchive@archive@boost@@V?$map@VName@karto@@PEAVSensor@2@U?$less@VName@karto@@@std@@V?$allocator@U?$pair@$$CBVName@karto@@PEAVSensor@2@@std@@@5@@std@@@detail@archive@boost@@@serialization@boost@@SAAEBV?$iserializer@Vbinary_iarchive@archive@boost@@V?$map@VName@karto@@PEAVSensor@2@U?$less@VName@karto@@@std@@V?$allocator@U?$pair@$$CBVName@karto@@PEAVSensor@2@@std@@@5@@std@@@detail@archive@3@XZ
	?get_const_instance@?$singleton@V?$iserializer@Vbinary_iarchive@archive@boost@@V?$vector@PEAVAbstractParameter@karto@@V?$allocator@PEAVAbstractParameter@karto@@@std@@@std@@@detail@archive@boost@@@serialization@boost@@SAAEBV?$iserializer@Vbinary_iarchive@archive@boost@@V?$vector@PEAVAbstractParameter@karto@@V?$allocator@PEAVAbstractParameter@karto@@@std@@@std@@@detail@archive@3@XZ
	?get_const_instance@?$singleton@V?$iserializer@Vbinary_iarchive@archive@boost@@V?$vector@PEAVObject@karto@@V?$allocator@PEAVObject@karto@@@std@@@std@@@detail@archive@boost@@@serialization@boost@@SAAEBV?$iserializer@Vbinary_iarchive@archive@boost@@V?$vector@PEAVObject@karto@@V?$allocator@PEAVObject@karto@@@std@@@std@@@detail@archive@3@XZ
	?get_const_instance@?$singleton@V?$iserializer@Vbinary_iarchive@archive@boost@@VAbstractParameter@karto@@@detail@archive@boost@@@serialization@boost@@SAAEBV?$iserializer@Vbinary_iarchive@archive@boost@@VAbstractParameter@karto@@@detail@archive@3@XZ
	?get_const_instance@?$singleton@V?$iserializer@Vbinary_iarchive@archive@boost@@VDataset@karto@@@detail@archive@boost@@@serialization@boost@@SAAEBV?$iserializer@Vbinary_iarchive@archive@boost@@VDataset@karto@@@detail@archive@3@XZ
	?get_const_instance@?$singleton@V?$iserializer@Vbinary_iarchive@archive@boost@@VDatasetInfo@karto@@@detail@archive@boost@@@serialization@boost@@SAAEBV?$iserializer@Vbinary_iarchive@archive@boost@@VDatasetInfo@karto@@@detail@archive@3@XZ
	?get_const_instance@?$singleton@V?$iserializer@Vbinary_iarchive@archive@boost@@VName@karto@@@detail@archive@boost@@@serialization@boost@@SAAEBV?$iserializer@Vbinary_iarchive@archive@boost@@VName@karto@@@detail@archive@3@XZ
	?get_const_instance@?$singleton@V?$iserializer@Vbinary_iarchive@archive@boost@@VNonCopyable@karto@@@detail@archive@boost@@@serialization@boost@@SAAEBV?$iserializer@Vbinary_iarchive@archive@boost@@VNonCopyable@karto@@@detail@archive@3@XZ
	?get_const_instance@?$singleton@V?$iserializer@Vbinary_iarchive@archive@boost@@VObject@karto@@@detail@archive@boost@@@serialization@boost@@SAAEBV?$iserializer@Vbinary_iarchive@archive@boost@@VObject@karto@@@detail@archive@3@XZ
	?get_const_instance@?$singleton@V?$iserializer@Vbinary_iarchive@archive@boost@@VParameterManager@karto@@@detail@archive@boost@@@serialization@boost@@SAAEBV?$iserializer@Vbinary_iarchive@archive@boost@@VParameterManager@karto@@@detail@archive@3@XZ
	?get_const_instance@?$singleton@V?$oserializer@Vbinary_oarchive@archive@boost@@U?$pair@$$CBHPEAVObject@karto@@@std@@@detail@archive@boost@@@serialization@boost@@SAAEBV?$oserializer@Vbinary_oarchive@archive@boost@@U?$pair@$$CBHPEAVObject@karto@@@std@@@detail@archive@3@XZ
	?get_const_instance@?$singleton@V?$oserializer@Vbinary_oarchive@archive@boost@@U?$pair@$$CBV?$basic_string@DU?$char_traits@D@std@@V?$allocator@D@2@@std@@PEAVAbstractParameter@karto@@@std@@@detail@archive@boost@@@serialization@boost@@SAAEBV?$oserializer@Vbinary_oarchive@archive@boost@@U?$pair@$$CBV?$basic_string@DU?$char_traits@D@std@@V?$allocator@D@2@@std@@PEAVAbstractParameter@karto@@@std@@@detail@archive@3@XZ
	?get_const_instance@?$singleton@V?$oserializer@Vbinary_oarchive@archive@boost@@U?$pair@$$CBVName@karto@@PEAVSensor@2@@std@@@detail@archive@boost@@@serialization@boost@@SAAEBV?$oserializer@Vbinary_oarchive@archive@boost@@U?$pair@$$CBVName@karto@@PEAVSensor@2@@std@@@detail@archive@3@XZ
	?get_const_instance@?$singleton@V?$oserializer@Vbinary_oarchive@archive@boost@@V?$Parameter@V?$basic_string@DU?$char_traits@D@std@@V?$allocator@D@2@@std@@@karto@@@detail@archive@boost@@@serialization@boost@@SAAEBV?$oserializer@Vbinary_oarchive@archive@boost@@V?$Parameter@V?$basic_string@DU?$char_traits@D@std@@V?$allocator@D@2@@std@@@karto@@@detail@archive@3@XZ
	?get_const_instance@?$singleton@V?$oserializer@Vbinary_oarchive@archive@boost@@V?$map@HPEAVObject@karto@@U?$less@H@std@@V?$allocator@U?$pair@$$CBHPEAVObject@karto@@@std@@@4@@std@@@detail@archive@boost@@@serialization@boost@@SAAEBV?$oserializer@Vbinary_oarchive@archive@boost@@V?$map@HPEAVObject@karto@@U?$less@H@std@@V?$allocator@U?$pair@$$CBHPEAVObject@karto@@@std@@@4@@std@@@detail@archive@3@XZ
	?get_const_instance@?$singleton@V?$oserializer@Vbinary_oarchive@archive@boost@@V?$map@V?$basic_string@DU?$char_traits@D@std@@V?$allocator@D@2@@std@@PEAVAbstractParameter@karto@@U?$less@V?$basic_string@DU?$char_traits@D@std@@V?$allocator@D@2@@std@@@2@V?$allocator@U?$pair@$$CBV?$basic_string@DU?$char_traits@D@std@@V?$allocator@D@2@@std@@PEAVAbstractParameter@karto@@@std@@@2@@std@@@detail@archive@boost@@@serialization@boost@@SAAEBV?$oserializer@Vbinary_oarchive@archive@boost@@V?$map@V?$basic_string@DU?$char_traits@D@std@@V?$allocator@D@2@@std@@PEAVAbstractParameter@karto@@U?$less@V?$basic_string@DU?$char_traits@D@std@@V?$allocator@D@2@@std@@@2@V?$allocator@U?$pair@$$CBV?$basic_string@DU?$char_traits@D@std@@V?$allocator@D@2@@std@@PEAVAbstractParameter@karto@@@std@@@2@@std@@@detail@archive@3@XZ
	?get_const_instance@?$singleton@V?$oserializer@Vbinary_oarchive@archive@boost@@V?$map@VName@karto@@PEAVSensor@2@U?$less@VName@karto@@@std@@V?$allocator@U?$pair@$$CBVName@karto@@PEAVSensor@2@@std@@@5@@std@@@detail@archive@boost@@@serialization@boost@@SAAEBV?$oserializer@Vbinary_oarchive@archive@boost@@V?$map@VName@karto@@PEAVSensor@2@U?$less@VName@karto@@@std@@V?$allocator@U?$pair@$$CBVName@karto@@PEAVSensor@2@@std@@@5@@std@@@detail@archive@3@XZ
	?get_const_instance@?$singleton@V?$oserializer@Vbinary_oarchive@archive@boost@@V?$vector@PEAVAbstractParameter@karto@@V?$allocator@PEAVAbstractParameter@karto@@@std@@@std@@@detail@archive@boost@@@serialization@boost@@SAAEBV?$oserializer@Vbinary_oarchive@archive@boost@@V?$vector@PEAVAbstractParameter@karto@@V?$allocator@PEAVAbstractParameter@karto@@@std@@@std@@@detail@archive@3@XZ
	?get_const_instance@?$singleton@V?$oserializer@Vbinary_oarchive@archive@boost@@V?$vector@PEAVObject@karto@@V?$allocator@PEAVObject@karto@@@std@@@std@@@detail@archive@boost@@@serialization@boost@@SAAEBV?$oserializer@Vbinary_oarchive@archive@boost@@V?$vector@PEAVObject@karto@@V?$allocator@PEAVObject@karto@@@std@@@std@@@detail@archive@3@XZ
	?get_const_instance@?$singleton@V?$oserializer@Vbinary_oarchive@archive@boost@@VAbstractParameter@karto@@@detail@archive@boost@@@serialization@boost@@SAAEBV?$oserializer@Vbinary_oarchive@archive@boost@@VAbstractParameter@karto@@@detail@archive@3@XZ
	?get_const_instance@?$singleton@V?$oserializer@Vbinary_oarchive@archive@boost@@VDataset@karto@@@detail@archive@boost@@@serialization@boost@@SAAEBV?$oserializer@Vbinary_oarchive@archive@boost@@VDataset@karto@@@detail@archive@3@XZ
	?get_const_instance@?$singleton@V?$oserializer@Vbinary_oarchive@archive@boost@@VDatasetInfo@karto@@@detail@archive@boost@@@serialization@boost@@SAAEBV?$oserializer@Vbinary_oarchive@archive@boost@@VDatasetInfo@karto@@@detail@archive@3@XZ
	?get_const_instance@?$singleton@V?$oserializer@Vbinary_oarchive@archive@boost@@VName@karto@@@detail@archive@boost@@@serialization@boost@@SAAEBV?$oserializer@Vbinary_oarchive@archive@boost@@VName@karto@@@detail@archive@3@XZ
	?get_const_instance@?$singleton@V?$oserializer@Vbinary_oarchive@archive@boost@@VNonCopyable@karto@@@detail@archive@boost@@@serialization@boost@@SAAEBV?$oserializer@Vbinary_oarchive@archive@boost@@VNonCopyable@karto@@@detail@archive@3@XZ
	?get_const_instance@?$singleton@V?$oserializer@Vbinary_oarchive@archive@boost@@VObject@karto@@@detail@archive@boost@@@serialization@boost@@SAAEBV?$oserializer@Vbinary_oarchive@archive@boost@@VObject@karto@@@detail@archive@3@XZ
	?get_const_instance@?$singleton@V?$oserializer@Vbinary_oarchive@archive@boost@@VParameterManager@karto@@@detail@archive@boost@@@serialization@boost@@SAAEBV?$oserializer@Vbinary_oarchive@archive@boost@@VParameterManager@karto@@@detail@archive@3@XZ
	?get_const_instance@?$singleton@V?$pointer_iserializer@Vbinary_iarchive@archive@boost@@VDatasetInfo@karto@@@detail@archive@boost@@@serialization@boost@@SAAEBV?$pointer_iserializer@Vbinary_iarchive@archive@boost@@VDatasetInfo@karto@@@detail@archive@3@XZ
	?get_const_instance@?$singleton@V?$pointer_iserializer@Vbinary_iarchive@archive@boost@@VParameterManager@karto@@@detail@archive@boost@@@serialization@boost@@SAAEBV?$pointer_iserializer@Vbinary_iarchive@archive@boost@@VParameterManager@karto@@@detail@archive@3@XZ
	?get_const_instance@?$singleton@V?$pointer_oserializer@Vbinary_oarchive@archive@boost@@VDatasetInfo@karto@@@detail@archive@boost@@@serialization@boost@@SAAEBV?$pointer_oserializer@Vbinary_oarchive@archive@boost@@VDatasetInfo@karto@@@detail@archive@3@XZ
	?get_const_instance@?$singleton@V?$pointer_oserializer@Vbinary_oarchive@archive@boost@@VParameterManager@karto@@@detail@archive@boost@@@serialization@boost@@SAAEBV?$pointer_oserializer@Vbinary_oarchive@archive@boost@@VParameterManager@karto@@@detail@archive@3@XZ
	?get_const_instance@?$singleton@V?$void_caster_primitive@V?$Parameter@V?$basic_string@DU?$char_traits@D@std@@V?$allocator@D@2@@std@@@karto@@VAbstractParameter@2@@void_cast_detail@serialization@boost@@@serialization@boost@@SAAEBV?$void_caster_primitive@V?$Parameter@V?$basic_string@DU?$char_traits@D@std@@V?$allocator@D@2@@std@@@karto@@VAbstractParameter@2@@void_cast_detail@23@XZ
	?get_const_instance@?$singleton@V?$void_caster_primitive@VDatasetInfo@karto@@VObject@2@@void_cast_detail@serialization@boost@@@serialization@boost@@SAAEBV?$void_caster_primitive@VDatasetInfo@karto@@VObject@2@@void_cast_detail@23@XZ
	?get_const_instance@?$singleton@V?$void_caster_primitive@VObject@karto@@VNonCopyable@2@@void_cast_detail@serialization@boost@@@serialization@boost@@SAAEBV?$void_caster_primitive@VObject@karto@@VNonCopyable@2@@void_cast_detail@23@XZ
	?get_const_instance@?$singleton@V?$void_caster_primitive@VParameterManager@karto@@VNonCopyable@2@@void_cast_detail@serialization@boost@@@serialization@boost@@SAAEBV?$void_caster_primitive@VParameterManager@karto@@VNonCopyable@2@@void_cast_detail@23@XZ
	?get_debug_info@extended_type_info_typeid_0@typeid_system@serialization@boost@@EEBAPEBDXZ
	?get_deleter@?$sp_counted_impl_p@V?$clone_impl@Ubad_alloc_@exception_detail@boost@@@exception_detail@boost@@@detail@boost@@UEAAPEAXAEBVtype_info@@@Z
	?get_deleter@?$sp_counted_impl_p@V?$clone_impl@Ubad_exception_@exception_detail@boost@@@exception_detail@boost@@@detail@boost@@UEAAPEAXAEBVtype_info@@@Z
	?get_event@basic_timed_mutex@detail@boost@@AEAAPEAXXZ
	?get_instance@?$singleton@V?$archive_serializer_map@Vbinary_oarchive@archive@boost@@@detail@archive@boost@@@serialization@boost@@CAAEAV?$archive_serializer_map@Vbinary_oarchive@archive@boost@@@detail@archive@3@XZ
	?get_instance@?$singleton@V?$extended_type_info_typeid@U?$pair@$$CBHPEAVObject@karto@@@std@@@serialization@boost@@@serialization@boost@@CAAEAV?$extended_type_info_typeid@U?$pair@$$CBHPEAVObject@karto@@@std@@@23@XZ
	?get_instance@?$singleton@V?$extended_type_info_typeid@U?$pair@$$CBV?$basic_string@DU?$char_traits@D@std@@V?$allocator@D@2@@std@@PEAVAbstractParameter@karto@@@std@@@serialization@boost@@@serialization@boost@@CAAEAV?$extended_type_info_typeid@U?$pair@$$CBV?$basic_string@DU?$char_traits@D@std@@V?$allocator@D@2@@std@@PEAVAbstractParameter@karto@@@std@@@23@XZ
	?get_instance@?$singleton@V?$extended_type_info_typeid@U?$pair@$$CBVName@karto@@PEAVSensor@2@@std@@@serialization@boost@@@serialization@boost@@CAAEAV?$extended_type_info_typeid@U?$pair@$$CBVName@karto@@PEAVSensor@2@@std@@@23@XZ
	?get_instance@?$singleton@V?$extended_type_info_typeid@V?$Parameter@V?$basic_string@DU?$char_traits@D@std@@V?$allocator@D@2@@std@@@karto@@@serialization@boost@@@serialization@boost@@CAAEAV?$extended_type_info_typeid@V?$Parameter@V?$basic_string@DU?$char_traits@D@std@@V?$allocator@D@2@@std@@@karto@@@23@XZ
	?get_instance@?$singleton@V?$extended_type_info_typeid@V?$map@HPEAVObject@karto@@U?$less@H@std@@V?$allocator@U?$pair@$$CBHPEAVObject@karto@@@std@@@4@@std@@@serialization@boost@@@serialization@boost@@CAAEAV?$extended_type_info_typeid@V?$map@HPEAVObject@karto@@U?$less@H@std@@V?$allocator@U?$pair@$$CBHPEAVObject@karto@@@std@@@4@@std@@@23@XZ
	?get_instance@?$singleton@V?$extended_type_info_typeid@V?$map@V?$basic_string@DU?$char_traits@D@std@@V?$allocator@D@2@@std@@PEAVAbstractParameter@karto@@U?$less@V?$basic_string@DU?$char_traits@D@std@@V?$allocator@D@2@@std@@@2@V?$allocator@U?$pair@$$CBV?$basic_string@DU?$char_traits@D@std@@V?$allocator@D@2@@std@@PEAVAbstractParameter@karto@@@std@@@2@@std@@@serialization@boost@@@serialization@boost@@CAAEAV?$extended_type_info_typeid@V?$map@V?$basic_string@DU?$char_traits@D@std@@V?$allocator@D@2@@std@@PEAVAbstractParameter@karto@@U?$less@V?$basic_string@DU?$char_traits@D@std@@V?$allocator@D@2@@std@@@2@V?$allocator@U?$pair@$$CBV?$basic_string@DU?$char_traits@D@std@@V?$allocator@D@2@@std@@PEAVAbstractParameter@karto@@@std@@@2@@std@@@23@XZ
	?get_instance@?$singleton@V?$extended_type_info_typeid@V?$map@VName@karto@@PEAVSensor@2@U?$less@VName@karto@@@std@@V?$allocator@U?$pair@$$CBVName@karto@@PEAVSensor@2@@std@@@5@@std@@@serialization@boost@@@serialization@boost@@CAAEAV?$extended_type_info_typeid@V?$map@VName@karto@@PEAVSensor@2@U?$less@VName@karto@@@std@@V?$allocator@U?$pair@$$CBVName@karto@@PEAVSensor@2@@std@@@5@@std@@@23@XZ
	?get_instance@?$singleton@V?$extended_type_info_typeid@V?$vector@PEAVAbstractParameter@karto@@V?$allocator@PEAVAbstractParameter@karto@@@std@@@std@@@serialization@boost@@@serialization@boost@@CAAEAV?$extended_type_info_typeid@V?$vector@PEAVAbstractParameter@karto@@V?$allocator@PEAVAbstractParameter@karto@@@std@@@std@@@23@XZ
	?get_instance@?$singleton@V?$extended_type_info_typeid@V?$vector@PEAVObject@karto@@V?$allocator@PEAVObject@karto@@@std@@@std@@@serialization@boost@@@serialization@boost@@CAAEAV?$extended_type_info_typeid@V?$vector@PEAVObject@karto@@V?$allocator@PEAVObject@karto@@@std@@@std@@@23@XZ
	?get_instance@?$singleton@V?$extended_type_info_typeid@VAbstractParameter@karto@@@serialization@boost@@@serialization@boost@@CAAEAV?$extended_type_info_typeid@VAbstractParameter@karto@@@23@XZ
	?get_instance@?$singleton@V?$extended_type_info_typeid@VDataset@karto@@@serialization@boost@@@serialization@boost@@CAAEAV?$extended_type_info_typeid@VDataset@karto@@@23@XZ
	?get_instance@?$singleton@V?$extended_type_info_typeid@VDatasetInfo@karto@@@serialization@boost@@@serialization@boost@@CAAEAV?$extended_type_info_typeid@VDatasetInfo@karto@@@23@XZ
	?get_instance@?$singleton@V?$extended_type_info_typeid@VName@karto@@@serialization@boost@@@serialization@boost@@CAAEAV?$extended_type_info_typeid@VName@karto@@@23@XZ
	?get_instance@?$singleton@V?$extended_type_info_typeid@VNonCopyable@karto@@@serialization@boost@@@serialization@boost@@CAAEAV?$extended_type_info_typeid@VNonCopyable@karto@@@23@XZ
	?get_instance@?$singleton@V?$extended_type_info_typeid@VObject@karto@@@serialization@boost@@@serialization@boost@@CAAEAV?$extended_type_info_typeid@VObject@karto@@@23@XZ
	?get_instance@?$singleton@V?$extended_type_info_typeid@VParameterManager@karto@@@serialization@boost@@@serialization@boost@@CAAEAV?$extended_type_info_typeid@VParameterManager@karto@@@23@XZ
	?get_instance@?$singleton@V?$extended_type_info_typeid@VSensor@karto@@@serialization@boost@@@serialization@boost@@CAAEAV?$extended_type_info_typeid@VSensor@karto@@@23@XZ
	?get_instance@?$singleton@V?$iserializer@Vbinary_iarchive@archive@boost@@U?$pair@$$CBHPEAVObject@karto@@@std@@@detail@archive@boost@@@serialization@boost@@CAAEAV?$iserializer@Vbinary_iarchive@archive@boost@@U?$pair@$$CBHPEAVObject@karto@@@std@@@detail@archive@3@XZ
	?get_instance@?$singleton@V?$iserializer@Vbinary_iarchive@archive@boost@@U?$pair@$$CBV?$basic_string@DU?$char_traits@D@std@@V?$allocator@D@2@@std@@PEAVAbstractParameter@karto@@@std@@@detail@archive@boost@@@serialization@boost@@CAAEAV?$iserializer@Vbinary_iarchive@archive@boost@@U?$pair@$$CBV?$basic_string@DU?$char_traits@D@std@@V?$allocator@D@2@@std@@PEAVAbstractParameter@karto@@@std@@@detail@archive@3@XZ
	?get_instance@?$singleton@V?$iserializer@Vbinary_iarchive@archive@boost@@U?$pair@$$CBVName@karto@@PEAVSensor@2@@std@@@detail@archive@boost@@@serialization@boost@@CAAEAV?$iserializer@Vbinary_iarchive@archive@boost@@U?$pair@$$CBVName@karto@@PEAVSensor@2@@std@@@detail@archive@3@XZ
	?get_instance@?$singleton@V?$iserializer@Vbinary_iarchive@archive@boost@@V?$Parameter@V?$basic_string@DU?$char_traits@D@std@@V?$allocator@D@2@@std@@@karto@@@detail@archive@boost@@@serialization@boost@@CAAEAV?$iserializer@Vbinary_iarchive@archive@boost@@V?$Parameter@V?$basic_string@DU?$char_traits@D@std@@V?$allocator@D@2@@std@@@karto@@@detail@archive@3@XZ
	?get_instance@?$singleton@V?$iserializer@Vbinary_iarchive@archive@boost@@V?$map@HPEAVObject@karto@@U?$less@H@std@@V?$allocator@U?$pair@$$CBHPEAVObject@karto@@@std@@@4@@std@@@detail@archive@boost@@@serialization@boost@@CAAEAV?$iserializer@Vbinary_iarchive@archive@boost@@V?$map@HPEAVObject@karto@@U?$less@H@std@@V?$allocator@U?$pair@$$CBHPEAVObject@karto@@@std@@@4@@std@@@detail@archive@3@XZ
	?get_instance@?$singleton@V?$iserializer@Vbinary_iarchive@archive@boost@@V?$map@V?$basic_string@DU?$char_traits@D@std@@V?$allocator@D@2@@std@@PEAVAbstractParameter@karto@@U?$less@V?$basic_string@DU?$char_traits@D@std@@V?$allocator@D@2@@std@@@2@V?$allocator@U?$pair@$$CBV?$basic_string@DU?$char_traits@D@std@@V?$allocator@D@2@@std@@PEAVAbstractParameter@karto@@@std@@@2@@std@@@detail@archive@boost@@@serialization@boost@@CAAEAV?$iserializer@Vbinary_iarchive@archive@boost@@V?$map@V?$basic_string@DU?$char_traits@D@std@@V?$allocator@D@2@@std@@PEAVAbstractParameter@karto@@U?$less@V?$basic_string@DU?$char_traits@D@std@@V?$allocator@D@2@@std@@@2@V?$allocator@U?$pair@$$CBV?$basic_string@DU?$char_traits@D@std@@V?$allocator@D@2@@std@@PEAVAbstractParameter@karto@@@std@@@2@@std@@@detail@archive@3@XZ
	?get_instance@?$singleton@V?$iserializer@Vbinary_iarchive@archive@boost@@V?$map@VName@karto@@PEAVSensor@2@U?$less@VName@karto@@@std@@V?$allocator@U?$pair@$$CBVName@karto@@PEAVSensor@2@@std@@@5@@std@@@detail@archive@boost@@@serialization@boost@@CAAEAV?$iserializer@Vbinary_iarchive@archive@boost@@V?$map@VName@karto@@PEAVSensor@2@U?$less@VName@karto@@@std@@V?$allocator@U?$pair@$$CBVName@karto@@PEAVSensor@2@@std@@@5@@std@@@detail@archive@3@XZ
	?get_instance@?$singleton@V?$iserializer@Vbinary_iarchive@archive@boost@@V?$vector@PEAVAbstractParameter@karto@@V?$allocator@PEAVAbstractParameter@karto@@@std@@@std@@@detail@archive@boost@@@serialization@boost@@CAAEAV?$iserializer@Vbinary_iarchive@archive@boost@@V?$vector@PEAVAbstractParameter@karto@@V?$allocator@PEAVAbstractParameter@karto@@@std@@@std@@@detail@archive@3@XZ
	?get_instance@?$singleton@V?$iserializer@Vbinary_iarchive@archive@boost@@V?$vector@PEAVObject@karto@@V?$allocator@PEAVObject@karto@@@std@@@std@@@detail@archive@boost@@@serialization@boost@@CAAEAV?$iserializer@Vbinary_iarchive@archive@boost@@V?$vector@PEAVObject@karto@@V?$allocator@PEAVObject@karto@@@std@@@std@@@detail@archive@3@XZ
	?get_instance@?$singleton@V?$iserializer@Vbinary_iarchive@archive@boost@@VAbstractParameter@karto@@@detail@archive@boost@@@serialization@boost@@CAAEAV?$iserializer@Vbinary_iarchive@archive@boost@@VAbstractParameter@karto@@@detail@archive@3@XZ
	?get_instance@?$singleton@V?$iserializer@Vbinary_iarchive@archive@boost@@VDataset@karto@@@detail@archive@boost@@@serialization@boost@@CAAEAV?$iserializer@Vbinary_iarchive@archive@boost@@VDataset@karto@@@detail@archive@3@XZ
	?get_instance@?$singleton@V?$iserializer@Vbinary_iarchive@archive@boost@@VDatasetInfo@karto@@@detail@archive@boost@@@serialization@boost@@CAAEAV?$iserializer@Vbinary_iarchive@archive@boost@@VDatasetInfo@karto@@@detail@archive@3@XZ
	?get_instance@?$singleton@V?$iserializer@Vbinary_iarchive@archive@boost@@VName@karto@@@detail@archive@boost@@@serialization@boost@@CAAEAV?$iserializer@Vbinary_iarchive@archive@boost@@VName@karto@@@detail@archive@3@XZ
	?get_instance@?$singleton@V?$iserializer@Vbinary_iarchive@archive@boost@@VNonCopyable@karto@@@detail@archive@boost@@@serialization@boost@@CAAEAV?$iserializer@Vbinary_iarchive@archive@boost@@VNonCopyable@karto@@@detail@archive@3@XZ
	?get_instance@?$singleton@V?$iserializer@Vbinary_iarchive@archive@boost@@VObject@karto@@@detail@archive@boost@@@serialization@boost@@CAAEAV?$iserializer@Vbinary_iarchive@archive@boost@@VObject@karto@@@detail@archive@3@XZ
	?get_instance@?$singleton@V?$iserializer@Vbinary_iarchive@archive@boost@@VParameterManager@karto@@@detail@archive@boost@@@serialization@boost@@CAAEAV?$iserializer@Vbinary_iarchive@archive@boost@@VParameterManager@karto@@@detail@archive@3@XZ
	?get_instance@?$singleton@V?$oserializer@Vbinary_oarchive@archive@boost@@U?$pair@$$CBHPEAVObject@karto@@@std@@@detail@archive@boost@@@serialization@boost@@CAAEAV?$oserializer@Vbinary_oarchive@archive@boost@@U?$pair@$$CBHPEAVObject@karto@@@std@@@detail@archive@3@XZ
	?get_instance@?$singleton@V?$oserializer@Vbinary_oarchive@archive@boost@@U?$pair@$$CBV?$basic_string@DU?$char_traits@D@std@@V?$allocator@D@2@@std@@PEAVAbstractParameter@karto@@@std@@@detail@archive@boost@@@serialization@boost@@CAAEAV?$oserializer@Vbinary_oarchive@archive@boost@@U?$pair@$$CBV?$basic_string@DU?$char_traits@D@std@@V?$allocator@D@2@@std@@PEAVAbstractParameter@karto@@@std@@@detail@archive@3@XZ
	?get_instance@?$singleton@V?$oserializer@Vbinary_oarchive@archive@boost@@U?$pair@$$CBVName@karto@@PEAVSensor@2@@std@@@detail@archive@boost@@@serialization@boost@@CAAEAV?$oserializer@Vbinary_oarchive@archive@boost@@U?$pair@$$CBVName@karto@@PEAVSensor@2@@std@@@detail@archive@3@XZ
	?get_instance@?$singleton@V?$oserializer@Vbinary_oarchive@archive@boost@@V?$Parameter@V?$basic_string@DU?$char_traits@D@std@@V?$allocator@D@2@@std@@@karto@@@detail@archive@boost@@@serialization@boost@@CAAEAV?$oserializer@Vbinary_oarchive@archive@boost@@V?$Parameter@V?$basic_string@DU?$char_traits@D@std@@V?$allocator@D@2@@std@@@karto@@@detail@archive@3@XZ
	?get_instance@?$singleton@V?$oserializer@Vbinary_oarchive@archive@boost@@V?$map@HPEAVObject@karto@@U?$less@H@std@@V?$allocator@U?$pair@$$CBHPEAVObject@karto@@@std@@@4@@std@@@detail@archive@boost@@@serialization@boost@@CAAEAV?$oserializer@Vbinary_oarchive@archive@boost@@V?$map@HPEAVObject@karto@@U?$less@H@std@@V?$allocator@U?$pair@$$CBHPEAVObject@karto@@@std@@@4@@std@@@detail@archive@3@XZ
	?get_instance@?$singleton@V?$oserializer@Vbinary_oarchive@archive@boost@@V?$map@V?$basic_string@DU?$char_traits@D@std@@V?$allocator@D@2@@std@@PEAVAbstractParameter@karto@@U?$less@V?$basic_string@DU?$char_traits@D@std@@V?$allocator@D@2@@std@@@2@V?$allocator@U?$pair@$$CBV?$basic_string@DU?$char_traits@D@std@@V?$allocator@D@2@@std@@PEAVAbstractParameter@karto@@@std@@@2@@std@@@detail@archive@boost@@@serialization@boost@@CAAEAV?$oserializer@Vbinary_oarchive@archive@boost@@V?$map@V?$basic_string@DU?$char_traits@D@std@@V?$allocator@D@2@@std@@PEAVAbstractParameter@karto@@U?$less@V?$basic_string@DU?$char_traits@D@std@@V?$allocator@D@2@@std@@@2@V?$allocator@U?$pair@$$CBV?$basic_string@DU?$char_traits@D@std@@V?$allocator@D@2@@std@@PEAVAbstractParameter@karto@@@std@@@2@@std@@@detail@archive@3@XZ
	?get_instance@?$singleton@V?$oserializer@Vbinary_oarchive@archive@boost@@V?$map@VName@karto@@PEAVSensor@2@U?$less@VName@karto@@@std@@V?$allocator@U?$pair@$$CBVName@karto@@PEAVSensor@2@@std@@@5@@std@@@detail@archive@boost@@@serialization@boost@@CAAEAV?$oserializer@Vbinary_oarchive@archive@boost@@V?$map@VName@karto@@PEAVSensor@2@U?$less@VName@karto@@@std@@V?$allocator@U?$pair@$$CBVName@karto@@PEAVSensor@2@@std@@@5@@std@@@detail@archive@3@XZ
	?get_instance@?$singleton@V?$oserializer@Vbinary_oarchive@archive@boost@@V?$vector@PEAVAbstractParameter@karto@@V?$allocator@PEAVAbstractParameter@karto@@@std@@@std@@@detail@archive@boost@@@serialization@boost@@CAAEAV?$oserializer@Vbinary_oarchive@archive@boost@@V?$vector@PEAVAbstractParameter@karto@@V?$allocator@PEAVAbstractParameter@karto@@@std@@@std@@@detail@archive@3@XZ
	?get_instance@?$singleton@V?$oserializer@Vbinary_oarchive@archive@boost@@V?$vector@PEAVObject@karto@@V?$allocator@PEAVObject@karto@@@std@@@std@@@detail@archive@boost@@@serialization@boost@@CAAEAV?$oserializer@Vbinary_oarchive@archive@boost@@V?$vector@PEAVObject@karto@@V?$allocator@PEAVObject@karto@@@std@@@std@@@detail@archive@3@XZ
	?get_instance@?$singleton@V?$oserializer@Vbinary_oarchive@archive@boost@@VAbstractParameter@karto@@@detail@archive@boost@@@serialization@boost@@CAAEAV?$oserializer@Vbinary_oarchive@archive@boost@@VAbstractParameter@karto@@@detail@archive@3@XZ
	?get_instance@?$singleton@V?$oserializer@Vbinary_oarchive@archive@boost@@VDataset@karto@@@detail@archive@boost@@@serialization@boost@@CAAEAV?$oserializer@Vbinary_oarchive@archive@boost@@VDataset@karto@@@detail@archive@3@XZ
	?get_instance@?$singleton@V?$oserializer@Vbinary_oarchive@archive@boost@@VDatasetInfo@karto@@@detail@archive@boost@@@serialization@boost@@CAAEAV?$oserializer@Vbinary_oarchive@archive@boost@@VDatasetInfo@karto@@@detail@archive@3@XZ
	?get_instance@?$singleton@V?$oserializer@Vbinary_oarchive@archive@boost@@VName@karto@@@detail@archive@boost@@@serialization@boost@@CAAEAV?$oserializer@Vbinary_oarchive@archive@boost@@VName@karto@@@detail@archive@3@XZ
	?get_instance@?$singleton@V?$oserializer@Vbinary_oarchive@archive@boost@@VNonCopyable@karto@@@detail@archive@boost@@@serialization@boost@@CAAEAV?$oserializer@Vbinary_oarchive@archive@boost@@VNonCopyable@karto@@@detail@archive@3@XZ
	?get_instance@?$singleton@V?$oserializer@Vbinary_oarchive@archive@boost@@VObject@karto@@@detail@archive@boost@@@serialization@boost@@CAAEAV?$oserializer@Vbinary_oarchive@archive@boost@@VObject@karto@@@detail@archive@3@XZ
	?get_instance@?$singleton@V?$oserializer@Vbinary_oarchive@archive@boost@@VParameterManager@karto@@@detail@archive@boost@@@serialization@boost@@CAAEAV?$oserializer@Vbinary_oarchive@archive@boost@@VParameterManager@karto@@@detail@archive@3@XZ
	?get_instance@?$singleton@V?$pointer_iserializer@Vbinary_iarchive@archive@boost@@VDatasetInfo@karto@@@detail@archive@boost@@@serialization@boost@@CAAEAV?$pointer_iserializer@Vbinary_iarchive@archive@boost@@VDatasetInfo@karto@@@detail@archive@3@XZ
	?get_instance@?$singleton@V?$pointer_iserializer@Vbinary_iarchive@archive@boost@@VParameterManager@karto@@@detail@archive@boost@@@serialization@boost@@CAAEAV?$pointer_iserializer@Vbinary_iarchive@archive@boost@@VParameterManager@karto@@@detail@archive@3@XZ
	?get_instance@?$singleton@V?$pointer_oserializer@Vbinary_oarchive@archive@boost@@VDatasetInfo@karto@@@detail@archive@boost@@@serialization@boost@@CAAEAV?$pointer_oserializer@Vbinary_oarchive@archive@boost@@VDatasetInfo@karto@@@detail@archive@3@XZ
	?get_instance@?$singleton@V?$pointer_oserializer@Vbinary_oarchive@archive@boost@@VParameterManager@karto@@@detail@archive@boost@@@serialization@boost@@CAAEAV?$pointer_oserializer@Vbinary_oarchive@archive@boost@@VParameterManager@karto@@@detail@archive@3@XZ
	?get_instance@?$singleton@V?$void_caster_primitive@V?$Parameter@V?$basic_string@DU?$char_traits@D@std@@V?$allocator@D@2@@std@@@karto@@VAbstractParameter@2@@void_cast_detail@serialization@boost@@@serialization@boost@@CAAEAV?$void_caster_primitive@V?$Parameter@V?$basic_string@DU?$char_traits@D@std@@V?$allocator@D@2@@std@@@karto@@VAbstractParameter@2@@void_cast_detail@23@XZ
	?get_instance@?$singleton@V?$void_caster_primitive@VDatasetInfo@karto@@VObject@2@@void_cast_detail@serialization@boost@@@serialization@boost@@CAAEAV?$void_caster_primitive@VDatasetInfo@karto@@VObject@2@@void_cast_detail@23@XZ
	?get_instance@?$singleton@V?$void_caster_primitive@VObject@karto@@VNonCopyable@2@@void_cast_detail@serialization@boost@@@serialization@boost@@CAAEAV?$void_caster_primitive@VObject@karto@@VNonCopyable@2@@void_cast_detail@23@XZ
	?get_instance@?$singleton@V?$void_caster_primitive@VParameterManager@karto@@VNonCopyable@2@@void_cast_detail@serialization@boost@@@serialization@boost@@CAAEAV?$void_caster_primitive@VParameterManager@karto@@VNonCopyable@2@@void_cast_detail@23@XZ
	?get_local_deleter@?$sp_counted_impl_p@V?$clone_impl@Ubad_alloc_@exception_detail@boost@@@exception_detail@boost@@@detail@boost@@UEAAPEAXAEBVtype_info@@@Z
	?get_local_deleter@?$sp_counted_impl_p@V?$clone_impl@Ubad_exception_@exception_detail@boost@@@exception_detail@boost@@@detail@boost@@UEAAPEAXAEBVtype_info@@@Z
	?get_lock@singleton_module@serialization@boost@@AEAAAEA_NXZ
	?get_mutable_instance@?$singleton@V?$iserializer@Vbinary_iarchive@archive@boost@@VDatasetInfo@karto@@@detail@archive@boost@@@serialization@boost@@SAAEAV?$iserializer@Vbinary_iarchive@archive@boost@@VDatasetInfo@karto@@@detail@archive@3@XZ
	?get_mutable_instance@?$singleton@V?$iserializer@Vbinary_iarchive@archive@boost@@VParameterManager@karto@@@detail@archive@boost@@@serialization@boost@@SAAEAV?$iserializer@Vbinary_iarchive@archive@boost@@VParameterManager@karto@@@detail@archive@3@XZ
	?get_mutable_instance@?$singleton@V?$oserializer@Vbinary_oarchive@archive@boost@@VDatasetInfo@karto@@@detail@archive@boost@@@serialization@boost@@SAAEAV?$oserializer@Vbinary_oarchive@archive@boost@@VDatasetInfo@karto@@@detail@archive@3@XZ
	?get_mutable_instance@?$singleton@V?$oserializer@Vbinary_oarchive@archive@boost@@VParameterManager@karto@@@detail@archive@boost@@@serialization@boost@@SAAEAV?$oserializer@Vbinary_oarchive@archive@boost@@VParameterManager@karto@@@detail@archive@3@XZ
	?get_untyped_deleter@?$sp_counted_impl_p@V?$clone_impl@Ubad_alloc_@exception_detail@boost@@@exception_detail@boost@@@detail@boost@@UEAAPEAXXZ
	?get_untyped_deleter@?$sp_counted_impl_p@V?$clone_impl@Ubad_exception_@exception_detail@boost@@@exception_detail@boost@@@detail@boost@@UEAAPEAXXZ
	?handle_loaned_message@?$Subscription@U?$PoseWithCovarianceStamped_@V?$allocator@X@std@@@msg@geometry_msgs@@V?$allocator@X@std@@V?$MessageMemoryStrategy@U?$PoseWithCovarianceStamped_@V?$allocator@X@std@@@msg@geometry_msgs@@V?$allocator@X@std@@@message_memory_strategy@rclcpp@@@rclcpp@@UEAAXPEAXAEBVMessageInfo@2@@Z
	?handle_message@?$Subscription@U?$PoseWithCovarianceStamped_@V?$allocator@X@std@@@msg@geometry_msgs@@V?$allocator@X@std@@V?$MessageMemoryStrategy@U?$PoseWithCovarianceStamped_@V?$allocator@X@std@@@msg@geometry_msgs@@V?$allocator@X@std@@@message_memory_strategy@rclcpp@@@rclcpp@@UEAAXAEAV?$shared_ptr@X@std@@AEBVMessageInfo@2@@Z
	?handle_message@?$SubscriptionTopicStatistics@U?$PoseWithCovarianceStamped_@V?$allocator@X@std@@@msg@geometry_msgs@@@topic_statistics@rclcpp@@UEBAXAEBU?$PoseWithCovarianceStamped_@V?$allocator@X@std@@@msg@geometry_msgs@@VTime@3@@Z
	?handle_request@?$Service@UEmpty@srv@std_srvs@@@rclcpp@@UEAAXV?$shared_ptr@Urmw_request_id_t@@@std@@V?$shared_ptr@X@4@@Z
	?has_data@?$RingBufferImplementation@V?$shared_ptr@$$CBU?$PoseWithCovarianceStamped_@V?$allocator@X@std@@@msg@geometry_msgs@@@std@@@buffers@experimental@rclcpp@@UEBA_NXZ
	?has_data@?$RingBufferImplementation@V?$unique_ptr@U?$PoseWithCovarianceStamped_@V?$allocator@X@std@@@msg@geometry_msgs@@U?$default_delete@U?$PoseWithCovarianceStamped_@V?$allocator@X@std@@@msg@geometry_msgs@@@std@@@std@@@buffers@experimental@rclcpp@@UEBA_NXZ
	?has_data@?$TypedIntraProcessBuffer@U?$PoseWithCovarianceStamped_@V?$allocator@X@std@@@msg@geometry_msgs@@V?$allocator@X@std@@U?$default_delete@U?$PoseWithCovarianceStamped_@V?$allocator@X@std@@@msg@geometry_msgs@@@5@V?$shared_ptr@$$CBU?$PoseWithCovarianceStamped_@V?$allocator@X@std@@@msg@geometry_msgs@@@5@@buffers@experimental@rclcpp@@UEBA_NXZ
	?has_data@?$TypedIntraProcessBuffer@U?$PoseWithCovarianceStamped_@V?$allocator@X@std@@@msg@geometry_msgs@@V?$allocator@X@std@@U?$default_delete@U?$PoseWithCovarianceStamped_@V?$allocator@X@std@@@msg@geometry_msgs@@@5@V?$unique_ptr@U?$PoseWithCovarianceStamped_@V?$allocator@X@std@@@msg@geometry_msgs@@U?$default_delete@U?$PoseWithCovarianceStamped_@V?$allocator@X@std@@@msg@geometry_msgs@@@std@@@5@@buffers@experimental@rclcpp@@UEBA_NXZ
	?has_virtual_base@?$void_caster_primitive@V?$Parameter@V?$basic_string@DU?$char_traits@D@std@@V?$allocator@D@2@@std@@@karto@@VAbstractParameter@2@@void_cast_detail@serialization@boost@@EEBA_NXZ
	?has_virtual_base@?$void_caster_primitive@VDatasetInfo@karto@@VObject@2@@void_cast_detail@serialization@boost@@EEBA_NXZ
	?has_virtual_base@?$void_caster_primitive@VObject@karto@@VNonCopyable@2@@void_cast_detail@serialization@boost@@EEBA_NXZ
	?has_virtual_base@?$void_caster_primitive@VParameterManager@karto@@VNonCopyable@2@@void_cast_detail@serialization@boost@@EEBA_NXZ
	?heap_allocation@?$pointer_iserializer@Vbinary_iarchive@archive@boost@@VDatasetInfo@karto@@@detail@archive@boost@@EEBAPEAXXZ
	?heap_allocation@?$pointer_iserializer@Vbinary_iarchive@archive@boost@@VParameterManager@karto@@@detail@archive@boost@@EEBAPEAXXZ
	?insert@?$basic_string@DU?$char_traits@D@std@@V?$allocator@D@2@@std@@QEAAAEAV12@_KQEBD0@Z
	?is_locked@singleton_module@serialization@boost@@QEAA_NXZ
	?is_polymorphic@?$iserializer@Vbinary_iarchive@archive@boost@@U?$pair@$$CBHPEAVObject@karto@@@std@@@detail@archive@boost@@UEBA_NXZ
	?is_polymorphic@?$iserializer@Vbinary_iarchive@archive@boost@@U?$pair@$$CBV?$basic_string@DU?$char_traits@D@std@@V?$allocator@D@2@@std@@PEAVAbstractParameter@karto@@@std@@@detail@archive@boost@@UEBA_NXZ
	?is_polymorphic@?$iserializer@Vbinary_iarchive@archive@boost@@U?$pair@$$CBVName@karto@@PEAVSensor@2@@std@@@detail@archive@boost@@UEBA_NXZ
	?is_polymorphic@?$iserializer@Vbinary_iarchive@archive@boost@@V?$Parameter@V?$basic_string@DU?$char_traits@D@std@@V?$allocator@D@2@@std@@@karto@@@detail@archive@boost@@UEBA_NXZ
	?is_polymorphic@?$iserializer@Vbinary_iarchive@archive@boost@@V?$map@HPEAVObject@karto@@U?$less@H@std@@V?$allocator@U?$pair@$$CBHPEAVObject@karto@@@std@@@4@@std@@@detail@archive@boost@@UEBA_NXZ
	?is_polymorphic@?$iserializer@Vbinary_iarchive@archive@boost@@V?$map@V?$basic_string@DU?$char_traits@D@std@@V?$allocator@D@2@@std@@PEAVAbstractParameter@karto@@U?$less@V?$basic_string@DU?$char_traits@D@std@@V?$allocator@D@2@@std@@@2@V?$allocator@U?$pair@$$CBV?$basic_string@DU?$char_traits@D@std@@V?$allocator@D@2@@std@@PEAVAbstractParameter@karto@@@std@@@2@@std@@@detail@archive@boost@@UEBA_NXZ
	?is_polymorphic@?$iserializer@Vbinary_iarchive@archive@boost@@V?$map@VName@karto@@PEAVSensor@2@U?$less@VName@karto@@@std@@V?$allocator@U?$pair@$$CBVName@karto@@PEAVSensor@2@@std@@@5@@std@@@detail@archive@boost@@UEBA_NXZ
	?is_polymorphic@?$iserializer@Vbinary_iarchive@archive@boost@@V?$vector@PEAVAbstractParameter@karto@@V?$allocator@PEAVAbstractParameter@karto@@@std@@@std@@@detail@archive@boost@@UEBA_NXZ
	?is_polymorphic@?$iserializer@Vbinary_iarchive@archive@boost@@V?$vector@PEAVObject@karto@@V?$allocator@PEAVObject@karto@@@std@@@std@@@detail@archive@boost@@UEBA_NXZ
	?is_polymorphic@?$iserializer@Vbinary_iarchive@archive@boost@@VAbstractParameter@karto@@@detail@archive@boost@@UEBA_NXZ
	?is_polymorphic@?$iserializer@Vbinary_iarchive@archive@boost@@VDataset@karto@@@detail@archive@boost@@UEBA_NXZ
	?is_polymorphic@?$iserializer@Vbinary_iarchive@archive@boost@@VDatasetInfo@karto@@@detail@archive@boost@@UEBA_NXZ
	?is_polymorphic@?$iserializer@Vbinary_iarchive@archive@boost@@VName@karto@@@detail@archive@boost@@UEBA_NXZ
	?is_polymorphic@?$iserializer@Vbinary_iarchive@archive@boost@@VNonCopyable@karto@@@detail@archive@boost@@UEBA_NXZ
	?is_polymorphic@?$iserializer@Vbinary_iarchive@archive@boost@@VObject@karto@@@detail@archive@boost@@UEBA_NXZ
	?is_polymorphic@?$iserializer@Vbinary_iarchive@archive@boost@@VParameterManager@karto@@@detail@archive@boost@@UEBA_NXZ
	?is_polymorphic@?$oserializer@Vbinary_oarchive@archive@boost@@U?$pair@$$CBHPEAVObject@karto@@@std@@@detail@archive@boost@@UEBA_NXZ
	?is_polymorphic@?$oserializer@Vbinary_oarchive@archive@boost@@U?$pair@$$CBV?$basic_string@DU?$char_traits@D@std@@V?$allocator@D@2@@std@@PEAVAbstractParameter@karto@@@std@@@detail@archive@boost@@UEBA_NXZ
	?is_polymorphic@?$oserializer@Vbinary_oarchive@archive@boost@@U?$pair@$$CBVName@karto@@PEAVSensor@2@@std@@@detail@archive@boost@@UEBA_NXZ
	?is_polymorphic@?$oserializer@Vbinary_oarchive@archive@boost@@V?$Parameter@V?$basic_string@DU?$char_traits@D@std@@V?$allocator@D@2@@std@@@karto@@@detail@archive@boost@@UEBA_NXZ
	?is_polymorphic@?$oserializer@Vbinary_oarchive@archive@boost@@V?$map@HPEAVObject@karto@@U?$less@H@std@@V?$allocator@U?$pair@$$CBHPEAVObject@karto@@@std@@@4@@std@@@detail@archive@boost@@UEBA_NXZ
	?is_polymorphic@?$oserializer@Vbinary_oarchive@archive@boost@@V?$map@V?$basic_string@DU?$char_traits@D@std@@V?$allocator@D@2@@std@@PEAVAbstractParameter@karto@@U?$less@V?$basic_string@DU?$char_traits@D@std@@V?$allocator@D@2@@std@@@2@V?$allocator@U?$pair@$$CBV?$basic_string@DU?$char_traits@D@std@@V?$allocator@D@2@@std@@PEAVAbstractParameter@karto@@@std@@@2@@std@@@detail@archive@boost@@UEBA_NXZ
	?is_polymorphic@?$oserializer@Vbinary_oarchive@archive@boost@@V?$map@VName@karto@@PEAVSensor@2@U?$less@VName@karto@@@std@@V?$allocator@U?$pair@$$CBVName@karto@@PEAVSensor@2@@std@@@5@@std@@@detail@archive@boost@@UEBA_NXZ
	?is_polymorphic@?$oserializer@Vbinary_oarchive@archive@boost@@V?$vector@PEAVAbstractParameter@karto@@V?$allocator@PEAVAbstractParameter@karto@@@std@@@std@@@detail@archive@boost@@UEBA_NXZ
	?is_polymorphic@?$oserializer@Vbinary_oarchive@archive@boost@@V?$vector@PEAVObject@karto@@V?$allocator@PEAVObject@karto@@@std@@@std@@@detail@archive@boost@@UEBA_NXZ
	?is_polymorphic@?$oserializer@Vbinary_oarchive@archive@boost@@VAbstractParameter@karto@@@detail@archive@boost@@UEBA_NXZ
	?is_polymorphic@?$oserializer@Vbinary_oarchive@archive@boost@@VDataset@karto@@@detail@archive@boost@@UEBA_NXZ
	?is_polymorphic@?$oserializer@Vbinary_oarchive@archive@boost@@VDatasetInfo@karto@@@detail@archive@boost@@UEBA_NXZ
	?is_polymorphic@?$oserializer@Vbinary_oarchive@archive@boost@@VName@karto@@@detail@archive@boost@@UEBA_NXZ
	?is_polymorphic@?$oserializer@Vbinary_oarchive@archive@boost@@VNonCopyable@karto@@@detail@archive@boost@@UEBA_NXZ
	?is_polymorphic@?$oserializer@Vbinary_oarchive@archive@boost@@VObject@karto@@@detail@archive@boost@@UEBA_NXZ
	?is_polymorphic@?$oserializer@Vbinary_oarchive@archive@boost@@VParameterManager@karto@@@detail@archive@boost@@UEBA_NXZ
	?is_ready@?$SubscriptionIntraProcess@U?$PoseWithCovarianceStamped_@V?$allocator@X@std@@@msg@geometry_msgs@@V?$allocator@X@std@@U?$default_delete@U?$PoseWithCovarianceStamped_@V?$allocator@X@std@@@msg@geometry_msgs@@@5@U123@@experimental@rclcpp@@UEAA_NPEAUrcl_wait_set_t@@@Z
	?is_steady@?$GenericTimer@V<lambda_dc0acc6c162c69a79de61b136908d558>@@$0A@@rclcpp@@UEAA_NXZ
	?laserCallback@LocalizationSlamToolbox@slam_toolbox@@MEAAXV?$shared_ptr@$$CBU?$LaserScan_@V?$allocator@X@std@@@msg@sensor_msgs@@@std@@@Z
	?loadPoseGraphByParams@LocalizationSlamToolbox@slam_toolbox@@UEAAXXZ
	?load_object_data@?$iserializer@Vbinary_iarchive@archive@boost@@U?$pair@$$CBHPEAVObject@karto@@@std@@@detail@archive@boost@@UEBAXAEAVbasic_iarchive@234@PEAXI@Z
	?load_object_data@?$iserializer@Vbinary_iarchive@archive@boost@@U?$pair@$$CBV?$basic_string@DU?$char_traits@D@std@@V?$allocator@D@2@@std@@PEAVAbstractParameter@karto@@@std@@@detail@archive@boost@@UEBAXAEAVbasic_iarchive@234@PEAXI@Z
	?load_object_data@?$iserializer@Vbinary_iarchive@archive@boost@@U?$pair@$$CBVName@karto@@PEAVSensor@2@@std@@@detail@archive@boost@@UEBAXAEAVbasic_iarchive@234@PEAXI@Z
	?load_object_data@?$iserializer@Vbinary_iarchive@archive@boost@@V?$Parameter@V?$basic_string@DU?$char_traits@D@std@@V?$allocator@D@2@@std@@@karto@@@detail@archive@boost@@UEBAXAEAVbasic_iarchive@234@PEAXI@Z
	?load_object_data@?$iserializer@Vbinary_iarchive@archive@boost@@V?$map@HPEAVObject@karto@@U?$less@H@std@@V?$allocator@U?$pair@$$CBHPEAVObject@karto@@@std@@@4@@std@@@detail@archive@boost@@UEBAXAEAVbasic_iarchive@234@PEAXI@Z
	?load_object_data@?$iserializer@Vbinary_iarchive@archive@boost@@V?$map@V?$basic_string@DU?$char_traits@D@std@@V?$allocator@D@2@@std@@PEAVAbstractParameter@karto@@U?$less@V?$basic_string@DU?$char_traits@D@std@@V?$allocator@D@2@@std@@@2@V?$allocator@U?$pair@$$CBV?$basic_string@DU?$char_traits@D@std@@V?$allocator@D@2@@std@@PEAVAbstractParameter@karto@@@std@@@2@@std@@@detail@archive@boost@@UEBAXAEAVbasic_iarchive@234@PEAXI@Z
	?load_object_data@?$iserializer@Vbinary_iarchive@archive@boost@@V?$map@VName@karto@@PEAVSensor@2@U?$less@VName@karto@@@std@@V?$allocator@U?$pair@$$CBVName@karto@@PEAVSensor@2@@std@@@5@@std@@@detail@archive@boost@@UEBAXAEAVbasic_iarchive@234@PEAXI@Z
	?load_object_data@?$iserializer@Vbinary_iarchive@archive@boost@@V?$vector@PEAVAbstractParameter@karto@@V?$allocator@PEAVAbstractParameter@karto@@@std@@@std@@@detail@archive@boost@@UEBAXAEAVbasic_iarchive@234@PEAXI@Z
	?load_object_data@?$iserializer@Vbinary_iarchive@archive@boost@@V?$vector@PEAVObject@karto@@V?$allocator@PEAVObject@karto@@@std@@@std@@@detail@archive@boost@@UEBAXAEAVbasic_iarchive@234@PEAXI@Z
	?load_object_data@?$iserializer@Vbinary_iarchive@archive@boost@@VAbstractParameter@karto@@@detail@archive@boost@@UEBAXAEAVbasic_iarchive@234@PEAXI@Z
	?load_object_data@?$iserializer@Vbinary_iarchive@archive@boost@@VDataset@karto@@@detail@archive@boost@@UEBAXAEAVbasic_iarchive@234@PEAXI@Z
	?load_object_data@?$iserializer@Vbinary_iarchive@archive@boost@@VDatasetInfo@karto@@@detail@archive@boost@@UEBAXAEAVbasic_iarchive@234@PEAXI@Z
	?load_object_data@?$iserializer@Vbinary_iarchive@archive@boost@@VName@karto@@@detail@archive@boost@@UEBAXAEAVbasic_iarchive@234@PEAXI@Z
	?load_object_data@?$iserializer@Vbinary_iarchive@archive@boost@@VNonCopyable@karto@@@detail@archive@boost@@UEBAXAEAVbasic_iarchive@234@PEAXI@Z
	?load_object_data@?$iserializer@Vbinary_iarchive@archive@boost@@VObject@karto@@@detail@archive@boost@@UEBAXAEAVbasic_iarchive@234@PEAXI@Z
	?load_object_data@?$iserializer@Vbinary_iarchive@archive@boost@@VParameterManager@karto@@@detail@archive@boost@@UEBAXAEAVbasic_iarchive@234@PEAXI@Z
	?load_object_ptr@?$pointer_iserializer@Vbinary_iarchive@archive@boost@@VDatasetInfo@karto@@@detail@archive@boost@@EEBAXAEAVbasic_iarchive@234@PEAXI@Z
	?load_object_ptr@?$pointer_iserializer@Vbinary_iarchive@archive@boost@@VParameterManager@karto@@@detail@archive@boost@@EEBAXAEAVbasic_iarchive@234@PEAXI@Z
	?localizePoseCallback@LocalizationSlamToolbox@slam_toolbox@@IEAAXV?$shared_ptr@U?$PoseWithCovarianceStamped_@V?$allocator@X@std@@@msg@geometry_msgs@@@std@@@Z
	?lock@basic_timed_mutex@detail@boost@@QEAAXXZ
	?lock@singleton_module@serialization@boost@@QEAAXXZ
	?message@generic_error_category@detail@system@boost@@UEBA?AV?$basic_string@DU?$char_traits@D@std@@V?$allocator@D@2@@std@@H@Z
	?message@generic_error_category@detail@system@boost@@UEBAPEBDHPEAD_K@Z
	?message@system_error_category@detail@system@boost@@UEBA?AV?$basic_string@DU?$char_traits@D@std@@V?$allocator@D@2@@std@@H@Z
	?message@system_error_category@detail@system@boost@@UEBAPEBDHPEAD_K@Z
	?name@generic_error_category@detail@system@boost@@UEBAPEBDXZ
	?name@system_error_category@detail@system@boost@@UEBAPEBDXZ
	?overflow@?$basic_stringbuf@DU?$char_traits@D@std@@V?$allocator@D@2@@std@@MEAAHH@Z
	?pbackfail@?$basic_stringbuf@DU?$char_traits@D@std@@V?$allocator@D@2@@std@@MEAAHH@Z
	?post_init_setup@?$Publisher@U?$MetricsMessage_@V?$allocator@X@std@@@msg@statistics_msgs@@V?$allocator@X@std@@@rclcpp@@UEAAXPEAVNodeBaseInterface@node_interfaces@2@AEBV?$basic_string@DU?$char_traits@D@std@@V?$allocator@D@2@@std@@AEBVQoS@2@AEBU?$PublisherOptionsWithAllocator@V?$allocator@X@std@@@2@@Z
	?publish@?$Publisher@U?$MetricsMessage_@V?$allocator@X@std@@@msg@statistics_msgs@@V?$allocator@X@std@@@rclcpp@@UEAAXAEBU?$MetricsMessage_@V?$allocator@X@std@@@msg@statistics_msgs@@@Z
	?publish@?$Publisher@U?$MetricsMessage_@V?$allocator@X@std@@@msg@statistics_msgs@@V?$allocator@X@std@@@rclcpp@@UEAAXV?$unique_ptr@U?$MetricsMessage_@V?$allocator@X@std@@@msg@statistics_msgs@@U?$default_delete@U?$MetricsMessage_@V?$allocator@X@std@@@msg@statistics_msgs@@@std@@@std@@@Z
	?publish_message@?$SubscriptionTopicStatistics@U?$PoseWithCovarianceStamped_@V?$allocator@X@std@@@msg@geometry_msgs@@@topic_statistics@rclcpp@@UEAAXXZ
	?resize@?$basic_string@DU?$char_traits@D@std@@V?$allocator@D@2@@std@@QEAAX_KD@Z
	?rethrow@?$clone_impl@Ubad_alloc_@exception_detail@boost@@@exception_detail@boost@@$0PPPPPPPM@A@EBAXXZ
	?rethrow@?$clone_impl@Ubad_alloc_@exception_detail@boost@@@exception_detail@boost@@EEBAXXZ
	?rethrow@?$clone_impl@Ubad_exception_@exception_detail@boost@@@exception_detail@boost@@$0PPPPPPPM@A@EBAXXZ
	?rethrow@?$clone_impl@Ubad_exception_@exception_detail@boost@@@exception_detail@boost@@EEBAXXZ
	?rethrow@?$wrapexcept@Vlock_error@boost@@@boost@@UEBAXXZ
	?rethrow@?$wrapexcept@Vthread_resource_error@boost@@@boost@@UEBAXXZ
	?return_message@?$MessageMemoryStrategy@U?$PoseWithCovarianceStamped_@V?$allocator@X@std@@@msg@geometry_msgs@@V?$allocator@X@std@@@message_memory_strategy@rclcpp@@UEAAXAEAV?$shared_ptr@U?$PoseWithCovarianceStamped_@V?$allocator@X@std@@@msg@geometry_msgs@@@std@@@Z
	?return_message@?$Subscription@U?$PoseWithCovarianceStamped_@V?$allocator@X@std@@@msg@geometry_msgs@@V?$allocator@X@std@@V?$MessageMemoryStrategy@U?$PoseWithCovarianceStamped_@V?$allocator@X@std@@@msg@geometry_msgs@@V?$allocator@X@std@@@message_memory_strategy@rclcpp@@@rclcpp@@UEAAXAEAV?$shared_ptr@X@std@@@Z
	?return_serialized_message@?$MessageMemoryStrategy@U?$PoseWithCovarianceStamped_@V?$allocator@X@std@@@msg@geometry_msgs@@V?$allocator@X@std@@@message_memory_strategy@rclcpp@@UEAAXAEAV?$shared_ptr@VSerializedMessage@rclcpp@@@std@@@Z
	?return_serialized_message@?$Subscription@U?$PoseWithCovarianceStamped_@V?$allocator@X@std@@@msg@geometry_msgs@@V?$allocator@X@std@@V?$MessageMemoryStrategy@U?$PoseWithCovarianceStamped_@V?$allocator@X@std@@@msg@geometry_msgs@@V?$allocator@X@std@@@message_memory_strategy@rclcpp@@@rclcpp@@UEAAXAEAV?$shared_ptr@VSerializedMessage@rclcpp@@@std@@@Z
	?save_object_data@?$oserializer@Vbinary_oarchive@archive@boost@@U?$pair@$$CBHPEAVObject@karto@@@std@@@detail@archive@boost@@UEBAXAEAVbasic_oarchive@234@PEBX@Z
	?save_object_data@?$oserializer@Vbinary_oarchive@archive@boost@@U?$pair@$$CBV?$basic_string@DU?$char_traits@D@std@@V?$allocator@D@2@@std@@PEAVAbstractParameter@karto@@@std@@@detail@archive@boost@@UEBAXAEAVbasic_oarchive@234@PEBX@Z
	?save_object_data@?$oserializer@Vbinary_oarchive@archive@boost@@U?$pair@$$CBVName@karto@@PEAVSensor@2@@std@@@detail@archive@boost@@UEBAXAEAVbasic_oarchive@234@PEBX@Z
	?save_object_data@?$oserializer@Vbinary_oarchive@archive@boost@@V?$Parameter@V?$basic_string@DU?$char_traits@D@std@@V?$allocator@D@2@@std@@@karto@@@detail@archive@boost@@UEBAXAEAVbasic_oarchive@234@PEBX@Z
	?save_object_data@?$oserializer@Vbinary_oarchive@archive@boost@@V?$map@HPEAVObject@karto@@U?$less@H@std@@V?$allocator@U?$pair@$$CBHPEAVObject@karto@@@std@@@4@@std@@@detail@archive@boost@@UEBAXAEAVbasic_oarchive@234@PEBX@Z
	?save_object_data@?$oserializer@Vbinary_oarchive@archive@boost@@V?$map@V?$basic_string@DU?$char_traits@D@std@@V?$allocator@D@2@@std@@PEAVAbstractParameter@karto@@U?$less@V?$basic_string@DU?$char_traits@D@std@@V?$allocator@D@2@@std@@@2@V?$allocator@U?$pair@$$CBV?$basic_string@DU?$char_traits@D@std@@V?$allocator@D@2@@std@@PEAVAbstractParameter@karto@@@std@@@2@@std@@@detail@archive@boost@@UEBAXAEAVbasic_oarchive@234@PEBX@Z
	?save_object_data@?$oserializer@Vbinary_oarchive@archive@boost@@V?$map@VName@karto@@PEAVSensor@2@U?$less@VName@karto@@@std@@V?$allocator@U?$pair@$$CBVName@karto@@PEAVSensor@2@@std@@@5@@std@@@detail@archive@boost@@UEBAXAEAVbasic_oarchive@234@PEBX@Z
	?save_object_data@?$oserializer@Vbinary_oarchive@archive@boost@@V?$vector@PEAVAbstractParameter@karto@@V?$allocator@PEAVAbstractParameter@karto@@@std@@@std@@@detail@archive@boost@@UEBAXAEAVbasic_oarchive@234@PEBX@Z
	?save_object_data@?$oserializer@Vbinary_oarchive@archive@boost@@V?$vector@PEAVObject@karto@@V?$allocator@PEAVObject@karto@@@std@@@std@@@detail@archive@boost@@UEBAXAEAVbasic_oarchive@234@PEBX@Z
	?save_object_data@?$oserializer@Vbinary_oarchive@archive@boost@@VAbstractParameter@karto@@@detail@archive@boost@@UEBAXAEAVbasic_oarchive@234@PEBX@Z
	?save_object_data@?$oserializer@Vbinary_oarchive@archive@boost@@VDataset@karto@@@detail@archive@boost@@UEBAXAEAVbasic_oarchive@234@PEBX@Z
	?save_object_data@?$oserializer@Vbinary_oarchive@archive@boost@@VDatasetInfo@karto@@@detail@archive@boost@@UEBAXAEAVbasic_oarchive@234@PEBX@Z
	?save_object_data@?$oserializer@Vbinary_oarchive@archive@boost@@VName@karto@@@detail@archive@boost@@UEBAXAEAVbasic_oarchive@234@PEBX@Z
	?save_object_data@?$oserializer@Vbinary_oarchive@archive@boost@@VNonCopyable@karto@@@detail@archive@boost@@UEBAXAEAVbasic_oarchive@234@PEBX@Z
	?save_object_data@?$oserializer@Vbinary_oarchive@archive@boost@@VObject@karto@@@detail@archive@boost@@UEBAXAEAVbasic_oarchive@234@PEBX@Z
	?save_object_data@?$oserializer@Vbinary_oarchive@archive@boost@@VParameterManager@karto@@@detail@archive@boost@@UEBAXAEAVbasic_oarchive@234@PEBX@Z
	?save_object_ptr@?$pointer_oserializer@Vbinary_oarchive@archive@boost@@VDatasetInfo@karto@@@detail@archive@boost@@EEBAXAEAVbasic_oarchive@234@PEBX@Z
	?save_object_ptr@?$pointer_oserializer@Vbinary_oarchive@archive@boost@@VParameterManager@karto@@@detail@archive@boost@@EEBAXAEAVbasic_oarchive@234@PEBX@Z
	?seekoff@?$basic_stringbuf@DU?$char_traits@D@std@@V?$allocator@D@2@@std@@MEAA?AV?$fpos@U_Mbstatet@@@2@_JHH@Z
	?seekpos@?$basic_stringbuf@DU?$char_traits@D@std@@V?$allocator@D@2@@std@@MEAA?AV?$fpos@U_Mbstatet@@@2@V32@H@Z
	?serializePoseGraphCallback@LocalizationSlamToolbox@slam_toolbox@@MEAA_NV?$shared_ptr@Urmw_request_id_t@@@std@@V?$shared_ptr@U?$SerializePoseGraph_Request_@V?$allocator@X@std@@@srv@slam_toolbox@@@4@V?$shared_ptr@U?$SerializePoseGraph_Response_@V?$allocator@X@std@@@srv@slam_toolbox@@@4@@Z
	?set_default_buffer_capacity@?$MessageMemoryStrategy@U?$PoseWithCovarianceStamped_@V?$allocator@X@std@@@msg@geometry_msgs@@V?$allocator@X@std@@@message_memory_strategy@rclcpp@@UEAAX_K@Z
	?shared_from_this@?$enable_shared_from_this@VPublisherBase@rclcpp@@@std@@QEAA?AV?$shared_ptr@VPublisherBase@rclcpp@@@2@XZ
	?sp_enable_shared_from_this@detail@boost@@YAXZZ
	?str@?$basic_stringbuf@DU?$char_traits@D@std@@V?$allocator@D@2@@std@@QEBA?AV?$basic_string@DU?$char_traits@D@std@@V?$allocator@D@2@@2@XZ
	?system_category_default_error_condition_win32@detail@system@boost@@YA?AVerror_condition@23@H@Z
	?system_category_message_win32@detail@system@boost@@YA?AV?$basic_string@DU?$char_traits@D@std@@V?$allocator@D@2@@std@@H@Z
	?tear_down@?$SubscriptionTopicStatistics@U?$PoseWithCovarianceStamped_@V?$allocator@X@std@@@msg@geometry_msgs@@@topic_statistics@rclcpp@@AEAAXXZ
	?to_string@std@@YA?AV?$basic_string@DU?$char_traits@D@std@@V?$allocator@D@2@@1@_J@Z
	?tracking@?$iserializer@Vbinary_iarchive@archive@boost@@U?$pair@$$CBHPEAVObject@karto@@@std@@@detail@archive@boost@@UEBA_NI@Z
	?tracking@?$iserializer@Vbinary_iarchive@archive@boost@@U?$pair@$$CBV?$basic_string@DU?$char_traits@D@std@@V?$allocator@D@2@@std@@PEAVAbstractParameter@karto@@@std@@@detail@archive@boost@@UEBA_NI@Z
	?tracking@?$iserializer@Vbinary_iarchive@archive@boost@@U?$pair@$$CBVName@karto@@PEAVSensor@2@@std@@@detail@archive@boost@@UEBA_NI@Z
	?tracking@?$iserializer@Vbinary_iarchive@archive@boost@@V?$Parameter@V?$basic_string@DU?$char_traits@D@std@@V?$allocator@D@2@@std@@@karto@@@detail@archive@boost@@UEBA_NI@Z
	?tracking@?$iserializer@Vbinary_iarchive@archive@boost@@V?$map@HPEAVObject@karto@@U?$less@H@std@@V?$allocator@U?$pair@$$CBHPEAVObject@karto@@@std@@@4@@std@@@detail@archive@boost@@UEBA_NI@Z
	?tracking@?$iserializer@Vbinary_iarchive@archive@boost@@V?$map@V?$basic_string@DU?$char_traits@D@std@@V?$allocator@D@2@@std@@PEAVAbstractParameter@karto@@U?$less@V?$basic_string@DU?$char_traits@D@std@@V?$allocator@D@2@@std@@@2@V?$allocator@U?$pair@$$CBV?$basic_string@DU?$char_traits@D@std@@V?$allocator@D@2@@std@@PEAVAbstractParameter@karto@@@std@@@2@@std@@@detail@archive@boost@@UEBA_NI@Z
	?tracking@?$iserializer@Vbinary_iarchive@archive@boost@@V?$map@VName@karto@@PEAVSensor@2@U?$less@VName@karto@@@std@@V?$allocator@U?$pair@$$CBVName@karto@@PEAVSensor@2@@std@@@5@@std@@@detail@archive@boost@@UEBA_NI@Z
	?tracking@?$iserializer@Vbinary_iarchive@archive@boost@@V?$vector@PEAVAbstractParameter@karto@@V?$allocator@PEAVAbstractParameter@karto@@@std@@@std@@@detail@archive@boost@@UEBA_NI@Z
	?tracking@?$iserializer@Vbinary_iarchive@archive@boost@@V?$vector@PEAVObject@karto@@V?$allocator@PEAVObject@karto@@@std@@@std@@@detail@archive@boost@@UEBA_NI@Z
	?tracking@?$iserializer@Vbinary_iarchive@archive@boost@@VAbstractParameter@karto@@@detail@archive@boost@@UEBA_NI@Z
	?tracking@?$iserializer@Vbinary_iarchive@archive@boost@@VDataset@karto@@@detail@archive@boost@@UEBA_NI@Z
	?tracking@?$iserializer@Vbinary_iarchive@archive@boost@@VDatasetInfo@karto@@@detail@archive@boost@@UEBA_NI@Z
	?tracking@?$iserializer@Vbinary_iarchive@archive@boost@@VName@karto@@@detail@archive@boost@@UEBA_NI@Z
	?tracking@?$iserializer@Vbinary_iarchive@archive@boost@@VNonCopyable@karto@@@detail@archive@boost@@UEBA_NI@Z
	?tracking@?$iserializer@Vbinary_iarchive@archive@boost@@VObject@karto@@@detail@archive@boost@@UEBA_NI@Z
	?tracking@?$iserializer@Vbinary_iarchive@archive@boost@@VParameterManager@karto@@@detail@archive@boost@@UEBA_NI@Z
	?tracking@?$oserializer@Vbinary_oarchive@archive@boost@@U?$pair@$$CBHPEAVObject@karto@@@std@@@detail@archive@boost@@UEBA_NI@Z
	?tracking@?$oserializer@Vbinary_oarchive@archive@boost@@U?$pair@$$CBV?$basic_string@DU?$char_traits@D@std@@V?$allocator@D@2@@std@@PEAVAbstractParameter@karto@@@std@@@detail@archive@boost@@UEBA_NI@Z
	?tracking@?$oserializer@Vbinary_oarchive@archive@boost@@U?$pair@$$CBVName@karto@@PEAVSensor@2@@std@@@detail@archive@boost@@UEBA_NI@Z
	?tracking@?$oserializer@Vbinary_oarchive@archive@boost@@V?$Parameter@V?$basic_string@DU?$char_traits@D@std@@V?$allocator@D@2@@std@@@karto@@@detail@archive@boost@@UEBA_NI@Z
	?tracking@?$oserializer@Vbinary_oarchive@archive@boost@@V?$map@HPEAVObject@karto@@U?$less@H@std@@V?$allocator@U?$pair@$$CBHPEAVObject@karto@@@std@@@4@@std@@@detail@archive@boost@@UEBA_NI@Z
	?tracking@?$oserializer@Vbinary_oarchive@archive@boost@@V?$map@V?$basic_string@DU?$char_traits@D@std@@V?$allocator@D@2@@std@@PEAVAbstractParameter@karto@@U?$less@V?$basic_string@DU?$char_traits@D@std@@V?$allocator@D@2@@std@@@2@V?$allocator@U?$pair@$$CBV?$basic_string@DU?$char_traits@D@std@@V?$allocator@D@2@@std@@PEAVAbstractParameter@karto@@@std@@@2@@std@@@detail@archive@boost@@UEBA_NI@Z
	?tracking@?$oserializer@Vbinary_oarchive@archive@boost@@V?$map@VName@karto@@PEAVSensor@2@U?$less@VName@karto@@@std@@V?$allocator@U?$pair@$$CBVName@karto@@PEAVSensor@2@@std@@@5@@std@@@detail@archive@boost@@UEBA_NI@Z
	?tracking@?$oserializer@Vbinary_oarchive@archive@boost@@V?$vector@PEAVAbstractParameter@karto@@V?$allocator@PEAVAbstractParameter@karto@@@std@@@std@@@detail@archive@boost@@UEBA_NI@Z
	?tracking@?$oserializer@Vbinary_oarchive@archive@boost@@V?$vector@PEAVObject@karto@@V?$allocator@PEAVObject@karto@@@std@@@std@@@detail@archive@boost@@UEBA_NI@Z
	?tracking@?$oserializer@Vbinary_oarchive@archive@boost@@VAbstractParameter@karto@@@detail@archive@boost@@UEBA_NI@Z
	?tracking@?$oserializer@Vbinary_oarchive@archive@boost@@VDataset@karto@@@detail@archive@boost@@UEBA_NI@Z
	?tracking@?$oserializer@Vbinary_oarchive@archive@boost@@VDatasetInfo@karto@@@detail@archive@boost@@UEBA_NI@Z
	?tracking@?$oserializer@Vbinary_oarchive@archive@boost@@VName@karto@@@detail@archive@boost@@UEBA_NI@Z
	?tracking@?$oserializer@Vbinary_oarchive@archive@boost@@VNonCopyable@karto@@@detail@archive@boost@@UEBA_NI@Z
	?tracking@?$oserializer@Vbinary_oarchive@archive@boost@@VObject@karto@@@detail@archive@boost@@UEBA_NI@Z
	?tracking@?$oserializer@Vbinary_oarchive@archive@boost@@VParameterManager@karto@@@detail@archive@boost@@UEBA_NI@Z
	?trigger_guard_condition@?$SubscriptionIntraProcess@U?$PoseWithCovarianceStamped_@V?$allocator@X@std@@@msg@geometry_msgs@@V?$allocator@X@std@@U?$default_delete@U?$PoseWithCovarianceStamped_@V?$allocator@X@std@@@msg@geometry_msgs@@@5@U123@@experimental@rclcpp@@EEAAXXZ
	?underflow@?$basic_stringbuf@DU?$char_traits@D@std@@V?$allocator@D@2@@std@@MEAAHXZ
	?unknown_message_win32@detail@system@boost@@YA?AV?$basic_string@DU?$char_traits@D@std@@V?$allocator@D@2@@std@@H@Z
	?unlock@singleton_module@serialization@boost@@QEAAXXZ
	?upcast@?$void_caster_primitive@V?$Parameter@V?$basic_string@DU?$char_traits@D@std@@V?$allocator@D@2@@std@@@karto@@VAbstractParameter@2@@void_cast_detail@serialization@boost@@EEBAPEBXQEBX@Z
	?upcast@?$void_caster_primitive@VDatasetInfo@karto@@VObject@2@@void_cast_detail@serialization@boost@@EEBAPEBXQEBX@Z
	?upcast@?$void_caster_primitive@VObject@karto@@VNonCopyable@2@@void_cast_detail@serialization@boost@@EEBAPEBXQEBX@Z
	?upcast@?$void_caster_primitive@VParameterManager@karto@@VNonCopyable@2@@void_cast_detail@serialization@boost@@EEBAPEBXQEBX@Z
	?use_take_shared_method@?$SubscriptionIntraProcess@U?$PoseWithCovarianceStamped_@V?$allocator@X@std@@@msg@geometry_msgs@@V?$allocator@X@std@@U?$default_delete@U?$PoseWithCovarianceStamped_@V?$allocator@X@std@@@msg@geometry_msgs@@@5@U123@@experimental@rclcpp@@UEBA_NXZ
	?use_take_shared_method@?$TypedIntraProcessBuffer@U?$PoseWithCovarianceStamped_@V?$allocator@X@std@@@msg@geometry_msgs@@V?$allocator@X@std@@U?$default_delete@U?$PoseWithCovarianceStamped_@V?$allocator@X@std@@@msg@geometry_msgs@@@5@V?$shared_ptr@$$CBU?$PoseWithCovarianceStamped_@V?$allocator@X@std@@@msg@geometry_msgs@@@5@@buffers@experimental@rclcpp@@UEBA_NXZ
	?use_take_shared_method@?$TypedIntraProcessBuffer@U?$PoseWithCovarianceStamped_@V?$allocator@X@std@@@msg@geometry_msgs@@V?$allocator@X@std@@U?$default_delete@U?$PoseWithCovarianceStamped_@V?$allocator@X@std@@@msg@geometry_msgs@@@5@V?$unique_ptr@U?$PoseWithCovarianceStamped_@V?$allocator@X@std@@@msg@geometry_msgs@@U?$default_delete@U?$PoseWithCovarianceStamped_@V?$allocator@X@std@@@msg@geometry_msgs@@@std@@@5@@buffers@experimental@rclcpp@@UEBA_NXZ
	?version@?$iserializer@Vbinary_iarchive@archive@boost@@U?$pair@$$CBHPEAVObject@karto@@@std@@@detail@archive@boost@@UEBA?AVversion_type@34@XZ
	?version@?$iserializer@Vbinary_iarchive@archive@boost@@U?$pair@$$CBV?$basic_string@DU?$char_traits@D@std@@V?$allocator@D@2@@std@@PEAVAbstractParameter@karto@@@std@@@detail@archive@boost@@UEBA?AVversion_type@34@XZ
	?version@?$iserializer@Vbinary_iarchive@archive@boost@@U?$pair@$$CBVName@karto@@PEAVSensor@2@@std@@@detail@archive@boost@@UEBA?AVversion_type@34@XZ
	?version@?$iserializer@Vbinary_iarchive@archive@boost@@V?$Parameter@V?$basic_string@DU?$char_traits@D@std@@V?$allocator@D@2@@std@@@karto@@@detail@archive@boost@@UEBA?AVversion_type@34@XZ
	?version@?$iserializer@Vbinary_iarchive@archive@boost@@V?$map@HPEAVObject@karto@@U?$less@H@std@@V?$allocator@U?$pair@$$CBHPEAVObject@karto@@@std@@@4@@std@@@detail@archive@boost@@UEBA?AVversion_type@34@XZ
	?version@?$iserializer@Vbinary_iarchive@archive@boost@@V?$map@V?$basic_string@DU?$char_traits@D@std@@V?$allocator@D@2@@std@@PEAVAbstractParameter@karto@@U?$less@V?$basic_string@DU?$char_traits@D@std@@V?$allocator@D@2@@std@@@2@V?$allocator@U?$pair@$$CBV?$basic_string@DU?$char_traits@D@std@@V?$allocator@D@2@@std@@PEAVAbstractParameter@karto@@@std@@@2@@std@@@detail@archive@boost@@UEBA?AVversion_type@34@XZ
	?version@?$iserializer@Vbinary_iarchive@archive@boost@@V?$map@VName@karto@@PEAVSensor@2@U?$less@VName@karto@@@std@@V?$allocator@U?$pair@$$CBVName@karto@@PEAVSensor@2@@std@@@5@@std@@@detail@archive@boost@@UEBA?AVversion_type@34@XZ
	?version@?$iserializer@Vbinary_iarchive@archive@boost@@V?$vector@PEAVAbstractParameter@karto@@V?$allocator@PEAVAbstractParameter@karto@@@std@@@std@@@detail@archive@boost@@UEBA?AVversion_type@34@XZ
	?version@?$iserializer@Vbinary_iarchive@archive@boost@@V?$vector@PEAVObject@karto@@V?$allocator@PEAVObject@karto@@@std@@@std@@@detail@archive@boost@@UEBA?AVversion_type@34@XZ
	?version@?$iserializer@Vbinary_iarchive@archive@boost@@VAbstractParameter@karto@@@detail@archive@boost@@UEBA?AVversion_type@34@XZ
	?version@?$iserializer@Vbinary_iarchive@archive@boost@@VDataset@karto@@@detail@archive@boost@@UEBA?AVversion_type@34@XZ
	?version@?$iserializer@Vbinary_iarchive@archive@boost@@VDatasetInfo@karto@@@detail@archive@boost@@UEBA?AVversion_type@34@XZ
	?version@?$iserializer@Vbinary_iarchive@archive@boost@@VName@karto@@@detail@archive@boost@@UEBA?AVversion_type@34@XZ
	?version@?$iserializer@Vbinary_iarchive@archive@boost@@VNonCopyable@karto@@@detail@archive@boost@@UEBA?AVversion_type@34@XZ
	?version@?$iserializer@Vbinary_iarchive@archive@boost@@VObject@karto@@@detail@archive@boost@@UEBA?AVversion_type@34@XZ
	?version@?$iserializer@Vbinary_iarchive@archive@boost@@VParameterManager@karto@@@detail@archive@boost@@UEBA?AVversion_type@34@XZ
	?version@?$oserializer@Vbinary_oarchive@archive@boost@@U?$pair@$$CBHPEAVObject@karto@@@std@@@detail@archive@boost@@UEBA?AVversion_type@34@XZ
	?version@?$oserializer@Vbinary_oarchive@archive@boost@@U?$pair@$$CBV?$basic_string@DU?$char_traits@D@std@@V?$allocator@D@2@@std@@PEAVAbstractParameter@karto@@@std@@@detail@archive@boost@@UEBA?AVversion_type@34@XZ
	?version@?$oserializer@Vbinary_oarchive@archive@boost@@U?$pair@$$CBVName@karto@@PEAVSensor@2@@std@@@detail@archive@boost@@UEBA?AVversion_type@34@XZ
	?version@?$oserializer@Vbinary_oarchive@archive@boost@@V?$Parameter@V?$basic_string@DU?$char_traits@D@std@@V?$allocator@D@2@@std@@@karto@@@detail@archive@boost@@UEBA?AVversion_type@34@XZ
	?version@?$oserializer@Vbinary_oarchive@archive@boost@@V?$map@HPEAVObject@karto@@U?$less@H@std@@V?$allocator@U?$pair@$$CBHPEAVObject@karto@@@std@@@4@@std@@@detail@archive@boost@@UEBA?AVversion_type@34@XZ
	?version@?$oserializer@Vbinary_oarchive@archive@boost@@V?$map@V?$basic_string@DU?$char_traits@D@std@@V?$allocator@D@2@@std@@PEAVAbstractParameter@karto@@U?$less@V?$basic_string@DU?$char_traits@D@std@@V?$allocator@D@2@@std@@@2@V?$allocator@U?$pair@$$CBV?$basic_string@DU?$char_traits@D@std@@V?$allocator@D@2@@std@@PEAVAbstractParameter@karto@@@std@@@2@@std@@@detail@archive@boost@@UEBA?AVversion_type@34@XZ
	?version@?$oserializer@Vbinary_oarchive@archive@boost@@V?$map@VName@karto@@PEAVSensor@2@U?$less@VName@karto@@@std@@V?$allocator@U?$pair@$$CBVName@karto@@PEAVSensor@2@@std@@@5@@std@@@detail@archive@boost@@UEBA?AVversion_type@34@XZ
	?version@?$oserializer@Vbinary_oarchive@archive@boost@@V?$vector@PEAVAbstractParameter@karto@@V?$allocator@PEAVAbstractParameter@karto@@@std@@@std@@@detail@archive@boost@@UEBA?AVversion_type@34@XZ
	?version@?$oserializer@Vbinary_oarchive@archive@boost@@V?$vector@PEAVObject@karto@@V?$allocator@PEAVObject@karto@@@std@@@std@@@detail@archive@boost@@UEBA?AVversion_type@34@XZ
	?version@?$oserializer@Vbinary_oarchive@archive@boost@@VAbstractParameter@karto@@@detail@archive@boost@@UEBA?AVversion_type@34@XZ
	?version@?$oserializer@Vbinary_oarchive@archive@boost@@VDataset@karto@@@detail@archive@boost@@UEBA?AVversion_type@34@XZ
	?version@?$oserializer@Vbinary_oarchive@archive@boost@@VDatasetInfo@karto@@@detail@archive@boost@@UEBA?AVversion_type@34@XZ
	?version@?$oserializer@Vbinary_oarchive@archive@boost@@VName@karto@@@detail@archive@boost@@UEBA?AVversion_type@34@XZ
	?version@?$oserializer@Vbinary_oarchive@archive@boost@@VNonCopyable@karto@@@detail@archive@boost@@UEBA?AVversion_type@34@XZ
	?version@?$oserializer@Vbinary_oarchive@archive@boost@@VObject@karto@@@detail@archive@boost@@UEBA?AVversion_type@34@XZ
	?version@?$oserializer@Vbinary_oarchive@archive@boost@@VParameterManager@karto@@@detail@archive@boost@@UEBA?AVversion_type@34@XZ
	?what@bad_weak_ptr@std@@UEBAPEBDXZ
	?what@exception@std@@UEBAPEBDXZ
	?what@system_error@system@boost@@UEBAPEBDXZ
	__local_stdio_printf_options
	snprintf
